; Listing generated by Microsoft (R) Optimizing Compiler Version 19.29.30038.1 

include listing.inc

INCLUDELIB LIBCMT
INCLUDELIB OLDNAMES

CONST	SEGMENT
?piecewise_construct@std@@3Upiecewise_construct_t@1@B	ORG $+1 ; std::piecewise_construct
?_Fake_alloc@std@@3U_Fake_allocator@1@B	ORG $+1		; std::_Fake_alloc
CONST	ENDS
PUBLIC	??0exception@std@@QEAA@AEBV01@@Z		; std::exception::exception
PUBLIC	??1exception@std@@UEAA@XZ			; std::exception::~exception
PUBLIC	?what@exception@std@@UEBAPEBDXZ			; std::exception::what
PUBLIC	??_Gexception@std@@UEAAPEAXI@Z			; std::exception::`scalar deleting destructor'
PUBLIC	??1bad_alloc@std@@UEAA@XZ			; std::bad_alloc::~bad_alloc
PUBLIC	??0bad_alloc@std@@QEAA@AEBV01@@Z		; std::bad_alloc::bad_alloc
PUBLIC	??_Gbad_alloc@std@@UEAAPEAXI@Z			; std::bad_alloc::`scalar deleting destructor'
PUBLIC	??0bad_array_new_length@std@@QEAA@XZ		; std::bad_array_new_length::bad_array_new_length
PUBLIC	??1bad_array_new_length@std@@UEAA@XZ		; std::bad_array_new_length::~bad_array_new_length
PUBLIC	??0bad_array_new_length@std@@QEAA@AEBV01@@Z	; std::bad_array_new_length::bad_array_new_length
PUBLIC	??_Gbad_array_new_length@std@@UEAAPEAXI@Z	; std::bad_array_new_length::`scalar deleting destructor'
PUBLIC	?_Throw_bad_array_new_length@std@@YAXXZ		; std::_Throw_bad_array_new_length
PUBLIC	?_Xlen_string@std@@YAXXZ			; std::_Xlen_string
PUBLIC	??0?$basic_string@DU?$char_traits@D@std@@V?$allocator@D@2@@std@@QEAA@AEBV01@@Z ; std::basic_string<char,std::char_traits<char>,std::allocator<char> >::basic_string<char,std::char_traits<char>,std::allocator<char> >
PUBLIC	??1?$basic_string@DU?$char_traits@D@std@@V?$allocator@D@2@@std@@QEAA@XZ ; std::basic_string<char,std::char_traits<char>,std::allocator<char> >::~basic_string<char,std::char_traits<char>,std::allocator<char> >
PUBLIC	?deallocate@?$allocator@_W@std@@QEAAXQEA_W_K@Z	; std::allocator<wchar_t>::deallocate
PUBLIC	?allocate@?$allocator@_W@std@@QEAAPEA_W_K@Z	; std::allocator<wchar_t>::allocate
PUBLIC	??0?$basic_string@_WU?$char_traits@_W@std@@V?$allocator@_W@2@@std@@QEAA@AEBV01@@Z ; std::basic_string<wchar_t,std::char_traits<wchar_t>,std::allocator<wchar_t> >::basic_string<wchar_t,std::char_traits<wchar_t>,std::allocator<wchar_t> >
PUBLIC	??0?$basic_string@_WU?$char_traits@_W@std@@V?$allocator@_W@2@@std@@QEAA@XZ ; std::basic_string<wchar_t,std::char_traits<wchar_t>,std::allocator<wchar_t> >::basic_string<wchar_t,std::char_traits<wchar_t>,std::allocator<wchar_t> >
PUBLIC	??0?$basic_string@_WU?$char_traits@_W@std@@V?$allocator@_W@2@@std@@QEAA@QEB_W@Z ; std::basic_string<wchar_t,std::char_traits<wchar_t>,std::allocator<wchar_t> >::basic_string<wchar_t,std::char_traits<wchar_t>,std::allocator<wchar_t> >
PUBLIC	??4?$basic_string@_WU?$char_traits@_W@std@@V?$allocator@_W@2@@std@@QEAAAEAV01@$$QEAV01@@Z ; std::basic_string<wchar_t,std::char_traits<wchar_t>,std::allocator<wchar_t> >::operator=
PUBLIC	??1?$basic_string@_WU?$char_traits@_W@std@@V?$allocator@_W@2@@std@@QEAA@XZ ; std::basic_string<wchar_t,std::char_traits<wchar_t>,std::allocator<wchar_t> >::~basic_string<wchar_t,std::char_traits<wchar_t>,std::allocator<wchar_t> >
PUBLIC	?assign@?$basic_string@_WU?$char_traits@_W@std@@V?$allocator@_W@2@@std@@QEAAAEAV12@QEB_W_K@Z ; std::basic_string<wchar_t,std::char_traits<wchar_t>,std::allocator<wchar_t> >::assign
PUBLIC	?_Tidy_deallocate@?$basic_string@_WU?$char_traits@_W@std@@V?$allocator@_W@2@@std@@AEAAXXZ ; std::basic_string<wchar_t,std::char_traits<wchar_t>,std::allocator<wchar_t> >::_Tidy_deallocate
PUBLIC	??1?$StringBuffer@D@WcharMbcsConvertor@@QEAA@XZ	; WcharMbcsConvertor::StringBuffer<char>::~StringBuffer<char>
PUBLIC	??1?$StringBuffer@_W@WcharMbcsConvertor@@QEAA@XZ ; WcharMbcsConvertor::StringBuffer<wchar_t>::~StringBuffer<wchar_t>
PUBLIC	??__Finstance@?1??getInstance@WcharMbcsConvertor@@SAAEAV1@XZ@YAXXZ ; `WcharMbcsConvertor::getInstance'::`2'::`dynamic atexit destructor for 'instance''
PUBLIC	??1Window@@UEAA@XZ				; Window::~Window
PUBLIC	?init@Window@@UEAAXPEAUHINSTANCE__@@PEAUHWND__@@@Z ; Window::init
PUBLIC	?display@Window@@UEBAX_N@Z			; Window::display
PUBLIC	?reSizeTo@Window@@UEAAXAEAUtagRECT@@@Z		; Window::reSizeTo
PUBLIC	?reSizeToWH@Window@@UEAAXAEAUtagRECT@@@Z	; Window::reSizeToWH
PUBLIC	?redraw@Window@@UEBAX_N@Z			; Window::redraw
PUBLIC	?getClientRect@Window@@UEBAXAEAUtagRECT@@@Z	; Window::getClientRect
PUBLIC	?getWindowRect@Window@@UEBAXAEAUtagRECT@@@Z	; Window::getWindowRect
PUBLIC	?getWidth@Window@@UEBAHXZ			; Window::getWidth
PUBLIC	?getHeight@Window@@UEBAHXZ			; Window::getHeight
PUBLIC	?isVisible@Window@@UEBA_NXZ			; Window::isVisible
PUBLIC	??_GWindow@@UEAAPEAXI@Z				; Window::`scalar deleting destructor'
PUBLIC	?isCreated@StaticDialog@@UEBA_NXZ		; StaticDialog::isCreated
PUBLIC	??_GStaticDialog@@UEAAPEAXI@Z			; StaticDialog::`scalar deleting destructor'
PUBLIC	??0recordedMacroStep@@QEAA@H_K0PEB_WH@Z		; recordedMacroStep::recordedMacroStep
PUBLIC	??1recordedMacroStep@@QEAA@XZ			; recordedMacroStep::~recordedMacroStep
PUBLIC	?deallocate@?$allocator@UrecordedMacroStep@@@std@@QEAAXQEAUrecordedMacroStep@@_K@Z ; std::allocator<recordedMacroStep>::deallocate
PUBLIC	?allocate@?$allocator@UrecordedMacroStep@@@std@@QEAAPEAUrecordedMacroStep@@_K@Z ; std::allocator<recordedMacroStep>::allocate
PUBLIC	??0?$vector@UrecordedMacroStep@@V?$allocator@UrecordedMacroStep@@@std@@@std@@QEAA@AEBV01@@Z ; std::vector<recordedMacroStep,std::allocator<recordedMacroStep> >::vector<recordedMacroStep,std::allocator<recordedMacroStep> >
PUBLIC	??1?$vector@UrecordedMacroStep@@V?$allocator@UrecordedMacroStep@@@std@@@std@@QEAA@XZ ; std::vector<recordedMacroStep,std::allocator<recordedMacroStep> >::~vector<recordedMacroStep,std::allocator<recordedMacroStep> >
PUBLIC	?push_back@?$vector@UrecordedMacroStep@@V?$allocator@UrecordedMacroStep@@@std@@@std@@QEAAX$$QEAUrecordedMacroStep@@@Z ; std::vector<recordedMacroStep,std::allocator<recordedMacroStep> >::push_back
PUBLIC	?_Destroy@?$vector@UrecordedMacroStep@@V?$allocator@UrecordedMacroStep@@@std@@@std@@AEAAXPEAUrecordedMacroStep@@0@Z ; std::vector<recordedMacroStep,std::allocator<recordedMacroStep> >::_Destroy
PUBLIC	?_Tidy@?$vector@UrecordedMacroStep@@V?$allocator@UrecordedMacroStep@@@std@@@std@@AEAAXXZ ; std::vector<recordedMacroStep,std::allocator<recordedMacroStep> >::_Tidy
PUBLIC	?_Xlength@?$vector@UrecordedMacroStep@@V?$allocator@UrecordedMacroStep@@@std@@@std@@CAXXZ ; std::vector<recordedMacroStep,std::allocator<recordedMacroStep> >::_Xlength
PUBLIC	?deallocate@?$allocator@PEAUHWND__@@@std@@QEAAXQEAPEAUHWND__@@_K@Z ; std::allocator<HWND__ *>::deallocate
PUBLIC	?_Xlength@?$vector@PEAUHWND__@@V?$allocator@PEAUHWND__@@@std@@@std@@CAXXZ ; std::vector<HWND__ *,std::allocator<HWND__ *> >::_Xlength
PUBLIC	??1?$vector@PEAUHMENU__@@V?$allocator@PEAUHMENU__@@@std@@@std@@QEAA@XZ ; std::vector<HMENU__ *,std::allocator<HMENU__ *> >::~vector<HMENU__ *,std::allocator<HMENU__ *> >
PUBLIC	??1?$vector@_KV?$allocator@_K@std@@@std@@QEAA@XZ ; std::vector<unsigned __int64,std::allocator<unsigned __int64> >::~vector<unsigned __int64,std::allocator<unsigned __int64> >
PUBLIC	??_GsessionFileInfo@@QEAAPEAXI@Z		; sessionFileInfo::`scalar deleting destructor'
PUBLIC	??1?$vector@UsessionFileInfo@@V?$allocator@UsessionFileInfo@@@std@@@std@@QEAA@XZ ; std::vector<sessionFileInfo,std::allocator<sessionFileInfo> >::~vector<sessionFileInfo,std::allocator<sessionFileInfo> >
PUBLIC	??1?$vector@V?$basic_string@_WU?$char_traits@_W@std@@V?$allocator@_W@2@@std@@V?$allocator@V?$basic_string@_WU?$char_traits@_W@std@@V?$allocator@_W@2@@std@@@2@@std@@QEAA@XZ ; std::vector<std::basic_string<wchar_t,std::char_traits<wchar_t>,std::allocator<wchar_t> >,std::allocator<std::basic_string<wchar_t,std::char_traits<wchar_t>,std::allocator<wchar_t> > > >::~vector<std::basic_string<wchar_t,std::char_traits<wchar_t>,std::allocator<wchar_t> >,std::allocator<std::basic_string<wchar_t,std::char_traits<wchar_t>,std::allocator<wchar_t> > > >
PUBLIC	?_Tidy@?$vector@V?$basic_string@_WU?$char_traits@_W@std@@V?$allocator@_W@2@@std@@V?$allocator@V?$basic_string@_WU?$char_traits@_W@std@@V?$allocator@_W@2@@std@@@2@@std@@AEAAXXZ ; std::vector<std::basic_string<wchar_t,std::char_traits<wchar_t>,std::allocator<wchar_t> >,std::allocator<std::basic_string<wchar_t,std::char_traits<wchar_t>,std::allocator<wchar_t> > > >::_Tidy
PUBLIC	??1Session@@QEAA@XZ				; Session::~Session
PUBLIC	??1?$vector@UFloatingWindowInfo@@V?$allocator@UFloatingWindowInfo@@@std@@@std@@QEAA@XZ ; std::vector<FloatingWindowInfo,std::allocator<FloatingWindowInfo> >::~vector<FloatingWindowInfo,std::allocator<FloatingWindowInfo> >
PUBLIC	?_Tidy@?$vector@UFloatingWindowInfo@@V?$allocator@UFloatingWindowInfo@@@std@@@std@@AEAAXXZ ; std::vector<FloatingWindowInfo,std::allocator<FloatingWindowInfo> >::_Tidy
PUBLIC	??1?$vector@UPluginDlgDockingInfo@@V?$allocator@UPluginDlgDockingInfo@@@std@@@std@@QEAA@XZ ; std::vector<PluginDlgDockingInfo,std::allocator<PluginDlgDockingInfo> >::~vector<PluginDlgDockingInfo,std::allocator<PluginDlgDockingInfo> >
PUBLIC	?_Tidy@?$vector@UPluginDlgDockingInfo@@V?$allocator@UPluginDlgDockingInfo@@@std@@@std@@AEAAXXZ ; std::vector<PluginDlgDockingInfo,std::allocator<PluginDlgDockingInfo> >::_Tidy
PUBLIC	??1?$vector@UContainerTabInfo@@V?$allocator@UContainerTabInfo@@@std@@@std@@QEAA@XZ ; std::vector<ContainerTabInfo,std::allocator<ContainerTabInfo> >::~vector<ContainerTabInfo,std::allocator<ContainerTabInfo> >
PUBLIC	?_Tidy@?$vector@UContainerTabInfo@@V?$allocator@UContainerTabInfo@@@std@@@std@@AEAAXXZ ; std::vector<ContainerTabInfo,std::allocator<ContainerTabInfo> >::_Tidy
PUBLIC	??1DockingManagerData@@QEAA@XZ			; DockingManagerData::~DockingManagerData
PUBLIC	??0DockingManagerData@@QEAA@AEBU0@@Z		; DockingManagerData::DockingManagerData
PUBLIC	??1PrintSettings@@QEAA@XZ			; PrintSettings::~PrintSettings
PUBLIC	??$?9_WU?$char_traits@_W@std@@V?$allocator@_W@1@@std@@YA_NAEBV?$basic_string@_WU?$char_traits@_W@std@@V?$allocator@_W@2@@0@QEB_W@Z ; std::operator!=<wchar_t,std::char_traits<wchar_t>,std::allocator<wchar_t> >
PUBLIC	??0?$vector@U?$pair@DD@std@@V?$allocator@U?$pair@DD@std@@@2@@std@@QEAA@AEBV01@@Z ; std::vector<std::pair<char,char>,std::allocator<std::pair<char,char> > >::vector<std::pair<char,char>,std::allocator<std::pair<char,char> > >
PUBLIC	??1?$vector@U?$pair@DD@std@@V?$allocator@U?$pair@DD@std@@@2@@std@@QEAA@XZ ; std::vector<std::pair<char,char>,std::allocator<std::pair<char,char> > >::~vector<std::pair<char,char>,std::allocator<std::pair<char,char> > >
PUBLIC	?_Tidy@?$vector@U?$pair@DD@std@@V?$allocator@U?$pair@DD@std@@@2@@std@@AEAAXXZ ; std::vector<std::pair<char,char>,std::allocator<std::pair<char,char> > >::_Tidy
PUBLIC	??1MatchedPairConf@@QEAA@XZ			; MatchedPairConf::~MatchedPairConf
PUBLIC	??1?$vector@ULangMenuItem@@V?$allocator@ULangMenuItem@@@std@@@std@@QEAA@XZ ; std::vector<LangMenuItem,std::allocator<LangMenuItem> >::~vector<LangMenuItem,std::allocator<LangMenuItem> >
PUBLIC	?_Tidy@?$vector@ULangMenuItem@@V?$allocator@ULangMenuItem@@@std@@@std@@AEAAXXZ ; std::vector<LangMenuItem,std::allocator<LangMenuItem> >::_Tidy
PUBLIC	??1NppGUI@@QEAA@XZ				; NppGUI::~NppGUI
PUBLIC	??0NppGUI@@QEAA@AEBU0@@Z			; NppGUI::NppGUI
PUBLIC	?getInstance@NppParameters@@SAAEAV1@XZ		; NppParameters::getInstance
PUBLIC	?getWingupFullPath@NppParameters@@QEBA?AV?$basic_string@_WU?$char_traits@_W@std@@V?$allocator@_W@2@@std@@XZ ; NppParameters::getWingupFullPath
PUBLIC	?getInstance@FileManager@@SAAEAV1@XZ		; FileManager::getInstance
PUBLIC	?deallocate@?$allocator@PEAVBuffer@@@std@@QEAAXQEAPEAVBuffer@@_K@Z ; std::allocator<Buffer *>::deallocate
PUBLIC	??1?$vector@PEAVBuffer@@V?$allocator@PEAVBuffer@@@std@@@std@@QEAA@XZ ; std::vector<Buffer *,std::allocator<Buffer *> >::~vector<Buffer *,std::allocator<Buffer *> >
PUBLIC	?_Xlength@?$vector@PEAVBuffer@@V?$allocator@PEAVBuffer@@@std@@@std@@CAXXZ ; std::vector<Buffer *,std::allocator<Buffer *> >::_Xlength
PUBLIC	??__Finstance@?1??getInstance@FileManager@@SAAEAV1@XZ@YAXXZ ; `FileManager::getInstance'::`2'::`dynamic atexit destructor for 'instance''
PUBLIC	?execute@ScintillaEditView@@QEBA_JI_K_J@Z	; ScintillaEditView::execute
PUBLIC	?getCurrentLineNumber@ScintillaEditView@@QEBA_KXZ ; ScintillaEditView::getCurrentLineNumber
PUBLIC	?getCurrentColumnNumber@ScintillaEditView@@QEBAJXZ ; ScintillaEditView::getCurrentColumnNumber
PUBLIC	?clearIndicator@ScintillaEditView@@QEAAXH@Z	; ScintillaEditView::clearIndicator
PUBLIC	?changeIcons@DocTabView@@QEAAXE@Z		; DocTabView::changeIcons
PUBLIC	?getDataOfAllTb@DockingCont@@QEAA?AV?$vector@PEAUtTbData@@V?$allocator@PEAUtTbData@@@std@@@std@@XZ ; DockingCont::getDataOfAllTb
PUBLIC	??1?$vector@PEAUtTbData@@V?$allocator@PEAUtTbData@@@std@@@std@@QEAA@XZ ; std::vector<tTbData *,std::allocator<tTbData *> >::~vector<tTbData *,std::allocator<tTbData *> >
PUBLIC	?_Tidy@?$vector@PEAUtTbData@@V?$allocator@PEAUtTbData@@@std@@@std@@AEAAXXZ ; std::vector<tTbData *,std::allocator<tTbData *> >::_Tidy
PUBLIC	??1?$vector@PEAVDockingCont@@V?$allocator@PEAVDockingCont@@@std@@@std@@QEAA@XZ ; std::vector<DockingCont *,std::allocator<DockingCont *> >::~vector<DockingCont *,std::allocator<DockingCont *> >
PUBLIC	?_Tidy@?$vector@PEAVDockingCont@@V?$allocator@PEAVDockingCont@@@std@@@std@@AEAAXXZ ; std::vector<DockingCont *,std::allocator<DockingCont *> >::_Tidy
PUBLIC	??1Process@@QEAA@XZ				; Process::~Process
PUBLIC	?process@Notepad_plus@@QEAA_JPEAUHWND__@@I_K_J@Z ; Notepad_plus::process
PUBLIC	?Notepad_plus_Proc@Notepad_plus_Window@@CA_JPEAUHWND__@@I_K_J@Z ; Notepad_plus_Window::Notepad_plus_Proc
PUBLIC	?runProc@Notepad_plus_Window@@AEAA_JPEAUHWND__@@I_K_J@Z ; Notepad_plus_Window::runProc
PUBLIC	??1TaskLstFnStatus@@QEAA@XZ			; TaskLstFnStatus::~TaskLstFnStatus
PUBLIC	??4TaskLstFnStatus@@QEAAAEAU0@$$QEAU0@@Z	; TaskLstFnStatus::operator=
PUBLIC	?destroy@BabyGridWrapper@@UEAAXXZ		; BabyGridWrapper::destroy
PUBLIC	??_GBabyGridWrapper@@UEAAPEAXI@Z		; BabyGridWrapper::`scalar deleting destructor'
PUBLIC	??0ShortcutMapper@@QEAA@XZ			; ShortcutMapper::ShortcutMapper
PUBLIC	??1ShortcutMapper@@UEAA@XZ			; ShortcutMapper::~ShortcutMapper
PUBLIC	?destroy@ShortcutMapper@@UEAAXXZ		; ShortcutMapper::destroy
PUBLIC	??1?$vector@PEAUHFONT__@@V?$allocator@PEAUHFONT__@@@std@@@std@@QEAA@XZ ; std::vector<HFONT__ *,std::allocator<HFONT__ *> >::~vector<HFONT__ *,std::allocator<HFONT__ *> >
PUBLIC	??_GShortcutMapper@@UEAAPEAXI@Z			; ShortcutMapper::`scalar deleting destructor'
PUBLIC	?CharacterIs@@YAH_WPEB_W@Z			; CharacterIs
PUBLIC	??1?$_Tidy_guard@V?$vector@PEAVDockingCont@@V?$allocator@PEAVDockingCont@@@std@@@std@@@std@@QEAA@XZ ; std::_Tidy_guard<std::vector<DockingCont *,std::allocator<DockingCont *> > >::~_Tidy_guard<std::vector<DockingCont *,std::allocator<DockingCont *> > >
PUBLIC	??1?$_Tidy_guard@V?$vector@PEAUtTbData@@V?$allocator@PEAUtTbData@@@std@@@std@@@std@@QEAA@XZ ; std::_Tidy_guard<std::vector<tTbData *,std::allocator<tTbData *> > >::~_Tidy_guard<std::vector<tTbData *,std::allocator<tTbData *> > >
PUBLIC	??$_Emplace_reallocate@PEAVBuffer@@@?$vector@PEAVBuffer@@V?$allocator@PEAVBuffer@@@std@@@std@@QEAAPEAPEAVBuffer@@QEAPEAV2@$$QEAPEAV2@@Z ; std::vector<Buffer *,std::allocator<Buffer *> >::_Emplace_reallocate<Buffer *>
PUBLIC	??1?$_Tidy_guard@V?$vector@ULangMenuItem@@V?$allocator@ULangMenuItem@@@std@@@std@@@std@@QEAA@XZ ; std::_Tidy_guard<std::vector<LangMenuItem,std::allocator<LangMenuItem> > >::~_Tidy_guard<std::vector<LangMenuItem,std::allocator<LangMenuItem> > >
PUBLIC	??1?$_Tidy_guard@V?$vector@U?$pair@DD@std@@V?$allocator@U?$pair@DD@std@@@2@@std@@@std@@QEAA@XZ ; std::_Tidy_guard<std::vector<std::pair<char,char>,std::allocator<std::pair<char,char> > > >::~_Tidy_guard<std::vector<std::pair<char,char>,std::allocator<std::pair<char,char> > > >
PUBLIC	??1?$_Tidy_guard@V?$vector@UContainerTabInfo@@V?$allocator@UContainerTabInfo@@@std@@@std@@@std@@QEAA@XZ ; std::_Tidy_guard<std::vector<ContainerTabInfo,std::allocator<ContainerTabInfo> > >::~_Tidy_guard<std::vector<ContainerTabInfo,std::allocator<ContainerTabInfo> > >
PUBLIC	??1?$_Tidy_guard@V?$vector@UPluginDlgDockingInfo@@V?$allocator@UPluginDlgDockingInfo@@@std@@@std@@@std@@QEAA@XZ ; std::_Tidy_guard<std::vector<PluginDlgDockingInfo,std::allocator<PluginDlgDockingInfo> > >::~_Tidy_guard<std::vector<PluginDlgDockingInfo,std::allocator<PluginDlgDockingInfo> > >
PUBLIC	??1?$_Tidy_guard@V?$vector@UFloatingWindowInfo@@V?$allocator@UFloatingWindowInfo@@@std@@@std@@@std@@QEAA@XZ ; std::_Tidy_guard<std::vector<FloatingWindowInfo,std::allocator<FloatingWindowInfo> > >::~_Tidy_guard<std::vector<FloatingWindowInfo,std::allocator<FloatingWindowInfo> > >
PUBLIC	??$_Emplace_reallocate@PEAUHWND__@@@?$vector@PEAUHWND__@@V?$allocator@PEAUHWND__@@@std@@@std@@QEAAPEAPEAUHWND__@@QEAPEAU2@$$QEAPEAU2@@Z ; std::vector<HWND__ *,std::allocator<HWND__ *> >::_Emplace_reallocate<HWND__ *>
PUBLIC	??$_Emplace_reallocate@UrecordedMacroStep@@@?$vector@UrecordedMacroStep@@V?$allocator@UrecordedMacroStep@@@std@@@std@@QEAAPEAUrecordedMacroStep@@QEAU2@$$QEAU2@@Z ; std::vector<recordedMacroStep,std::allocator<recordedMacroStep> >::_Emplace_reallocate<recordedMacroStep>
PUBLIC	??1?$_Tidy_guard@V?$vector@UrecordedMacroStep@@V?$allocator@UrecordedMacroStep@@@std@@@std@@@std@@QEAA@XZ ; std::_Tidy_guard<std::vector<recordedMacroStep,std::allocator<recordedMacroStep> > >::~_Tidy_guard<std::vector<recordedMacroStep,std::allocator<recordedMacroStep> > >
PUBLIC	??$_Ucopy@PEAUrecordedMacroStep@@@?$vector@UrecordedMacroStep@@V?$allocator@UrecordedMacroStep@@@std@@@std@@AEAAPEAUrecordedMacroStep@@PEAU2@00@Z ; std::vector<recordedMacroStep,std::allocator<recordedMacroStep> >::_Ucopy<recordedMacroStep *>
PUBLIC	??$_Allocate@$0BA@U_Default_allocate_traits@std@@$0A@@std@@YAPEAX_K@Z ; std::_Allocate<16,std::_Default_allocate_traits,0>
PUBLIC	??$_Sort_unchecked@PEAUTaskLstFnStatus@@U?$_Ref_fn@USortTaskListPred@@@std@@@std@@YAXPEAUTaskLstFnStatus@@0_JU?$_Ref_fn@USortTaskListPred@@@0@@Z ; std::_Sort_unchecked<TaskLstFnStatus *,std::_Ref_fn<SortTaskListPred> >
PUBLIC	??$_Copy_memmove@PEAPEAUHWND__@@PEAPEAU1@@std@@YAPEAPEAUHWND__@@PEAPEAU1@00@Z ; std::_Copy_memmove<HWND__ * *,HWND__ * *>
PUBLIC	??$_Assign_range@PEAUrecordedMacroStep@@@?$vector@UrecordedMacroStep@@V?$allocator@UrecordedMacroStep@@@std@@@std@@AEAAXPEAUrecordedMacroStep@@0Uforward_iterator_tag@1@@Z ; std::vector<recordedMacroStep,std::allocator<recordedMacroStep> >::_Assign_range<recordedMacroStep *>
PUBLIC	??$_Allocate_manually_vector_aligned@U_Default_allocate_traits@std@@@std@@YAPEAX_K@Z ; std::_Allocate_manually_vector_aligned<std::_Default_allocate_traits>
PUBLIC	??$_Uninitialized_move@PEAUrecordedMacroStep@@V?$allocator@UrecordedMacroStep@@@std@@@std@@YAPEAUrecordedMacroStep@@QEAU1@0PEAU1@AEAV?$allocator@UrecordedMacroStep@@@0@@Z ; std::_Uninitialized_move<recordedMacroStep *,std::allocator<recordedMacroStep> >
PUBLIC	??$_Insertion_sort_unchecked@PEAUTaskLstFnStatus@@U?$_Ref_fn@USortTaskListPred@@@std@@@std@@YAPEAUTaskLstFnStatus@@QEAU1@0U?$_Ref_fn@USortTaskListPred@@@0@@Z ; std::_Insertion_sort_unchecked<TaskLstFnStatus *,std::_Ref_fn<SortTaskListPred> >
PUBLIC	??$_Make_heap_unchecked@PEAUTaskLstFnStatus@@U?$_Ref_fn@USortTaskListPred@@@std@@@std@@YAXPEAUTaskLstFnStatus@@0U?$_Ref_fn@USortTaskListPred@@@0@@Z ; std::_Make_heap_unchecked<TaskLstFnStatus *,std::_Ref_fn<SortTaskListPred> >
PUBLIC	??$_Partition_by_median_guess_unchecked@PEAUTaskLstFnStatus@@U?$_Ref_fn@USortTaskListPred@@@std@@@std@@YA?AU?$pair@PEAUTaskLstFnStatus@@PEAU1@@0@PEAUTaskLstFnStatus@@0U?$_Ref_fn@USortTaskListPred@@@0@@Z ; std::_Partition_by_median_guess_unchecked<TaskLstFnStatus *,std::_Ref_fn<SortTaskListPred> >
PUBLIC	??$_Copy_memmove@PEAPEAVDockingCont@@PEAPEAV1@@std@@YAPEAPEAVDockingCont@@PEAPEAV1@00@Z ; std::_Copy_memmove<DockingCont * *,DockingCont * *>
PUBLIC	??$_Copy_memmove@PEAPEAUtTbData@@PEAPEAU1@@std@@YAPEAPEAUtTbData@@PEAPEAU1@00@Z ; std::_Copy_memmove<tTbData * *,tTbData * *>
PUBLIC	??1?$_Uninitialized_backout_al@V?$allocator@ULangMenuItem@@@std@@@std@@QEAA@XZ ; std::_Uninitialized_backout_al<std::allocator<LangMenuItem> >::~_Uninitialized_backout_al<std::allocator<LangMenuItem> >
PUBLIC	??1?$_Uninitialized_backout_al@V?$allocator@UPluginDlgDockingInfo@@@std@@@std@@QEAA@XZ ; std::_Uninitialized_backout_al<std::allocator<PluginDlgDockingInfo> >::~_Uninitialized_backout_al<std::allocator<PluginDlgDockingInfo> >
PUBLIC	??1?$_Uninitialized_backout_al@V?$allocator@UrecordedMacroStep@@@std@@@std@@QEAA@XZ ; std::_Uninitialized_backout_al<std::allocator<recordedMacroStep> >::~_Uninitialized_backout_al<std::allocator<recordedMacroStep> >
PUBLIC	??$_Copy_unchecked@PEAUrecordedMacroStep@@PEAU1@@std@@YAPEAUrecordedMacroStep@@PEAU1@00@Z ; std::_Copy_unchecked<recordedMacroStep *,recordedMacroStep *>
PUBLIC	??$_Copy_memmove@PEAPEAVBuffer@@PEAPEAV1@@std@@YAPEAPEAVBuffer@@PEAPEAV1@00@Z ; std::_Copy_memmove<Buffer * *,Buffer * *>
PUBLIC	??$_Pop_heap_hole_by_index@PEAUTaskLstFnStatus@@U1@U?$_Ref_fn@USortTaskListPred@@@std@@@std@@YAXPEAUTaskLstFnStatus@@_J1$$QEAU1@U?$_Ref_fn@USortTaskListPred@@@0@@Z ; std::_Pop_heap_hole_by_index<TaskLstFnStatus *,TaskLstFnStatus,std::_Ref_fn<SortTaskListPred> >
PUBLIC	??$iter_swap@PEAUTaskLstFnStatus@@PEAU1@@std@@YAXPEAUTaskLstFnStatus@@0@Z ; std::iter_swap<TaskLstFnStatus *,TaskLstFnStatus *>
PUBLIC	??$_Med3_unchecked@PEAUTaskLstFnStatus@@U?$_Ref_fn@USortTaskListPred@@@std@@@std@@YAXPEAUTaskLstFnStatus@@00U?$_Ref_fn@USortTaskListPred@@@0@@Z ; std::_Med3_unchecked<TaskLstFnStatus *,std::_Ref_fn<SortTaskListPred> >
PUBLIC	??_7exception@std@@6B@				; std::exception::`vftable'
PUBLIC	??_C@_0BC@EOODALEL@Unknown?5exception@		; `string'
PUBLIC	??_7bad_alloc@std@@6B@				; std::bad_alloc::`vftable'
PUBLIC	??_7bad_array_new_length@std@@6B@		; std::bad_array_new_length::`vftable'
PUBLIC	??_C@_0BF@KINCDENJ@bad?5array?5new?5length@	; `string'
PUBLIC	_TI3?AVbad_array_new_length@std@@
PUBLIC	_CTA3?AVbad_array_new_length@std@@
PUBLIC	??_R0?AVbad_array_new_length@std@@@8		; std::bad_array_new_length `RTTI Type Descriptor'
PUBLIC	_CT??_R0?AVbad_array_new_length@std@@@8??0bad_array_new_length@std@@QEAA@AEBV01@@Z24
PUBLIC	??_R0?AVbad_alloc@std@@@8			; std::bad_alloc `RTTI Type Descriptor'
PUBLIC	_CT??_R0?AVbad_alloc@std@@@8??0bad_alloc@std@@QEAA@AEBV01@@Z24
PUBLIC	??_R0?AVexception@std@@@8			; std::exception `RTTI Type Descriptor'
PUBLIC	_CT??_R0?AVexception@std@@@8??0exception@std@@QEAA@AEBV01@@Z24
PUBLIC	??_C@_0BA@JFNIOLAK@string?5too?5long@		; `string'
PUBLIC	?instance@?1??getInstance@WcharMbcsConvertor@@SAAEAV2@XZ@4V2@A ; `WcharMbcsConvertor::getInstance'::`2'::instance
PUBLIC	?$TSS0@?1??getInstance@WcharMbcsConvertor@@SAAEAV2@XZ@4HA ; `WcharMbcsConvertor::getInstance'::`2'::$TSS0
PUBLIC	??_C@_11LOCGONAA@@				; `string'
PUBLIC	??_7Window@@6B@					; Window::`vftable'
PUBLIC	??_7StaticDialog@@6B@				; StaticDialog::`vftable'
PUBLIC	?instance@?1??getInstancePointer@NppParameters@@CAPEAV2@XZ@4PEAV2@EA ; `NppParameters::getInstancePointer'::`2'::instance
PUBLIC	?$TSS0@?1??getInstancePointer@NppParameters@@CAPEAV2@XZ@4HA ; `NppParameters::getInstancePointer'::`2'::$TSS0
PUBLIC	?instance@?1??getInstance@FileManager@@SAAEAV2@XZ@4V2@A ; `FileManager::getInstance'::`2'::instance
PUBLIC	?$TSS0@?1??getInstance@FileManager@@SAAEAV2@XZ@4HA ; `FileManager::getInstance'::`2'::$TSS0
PUBLIC	??_7BabyGridWrapper@@6B@			; BabyGridWrapper::`vftable'
PUBLIC	??_7ShortcutMapper@@6B@				; ShortcutMapper::`vftable'
PUBLIC	??_C@_0BH@GEANJPBI@Exception?5On?5WM_CREATE@	; `string'
PUBLIC	??_C@_04OLJIFFAL@Find@				; `string'
PUBLIC	??_C@_15MNCACJLI@?$AA?2?$AA?1@			; `string'
PUBLIC	??_C@_1BA@GDFBKANO@?$AA?5?$AA?7?$AA?$FL?$AA?$CI?$AA?$CC?$AA?$DM?$AA?$DO@ ; `string'
PUBLIC	??_C@_1BK@BFONLOAD@?$AA?5?$AA?7?$AA?3?$AA?$CI?$AA?$CJ?$AA?$FL?$AA?$FN?$AA?$DM?$AA?$DO?$AA?$CC?$AA?$AN?$AA?6@ ; `string'
PUBLIC	??_C@_1M@EBNKMNOC@?$AA8?$AA?4?$AA1?$AA1?$AA?$AA@ ; `string'
PUBLIC	??_C@_1CE@OLIFPOLL@?$AAS?$AAe?$AAt?$AAt?$AAi?$AAn?$AAg?$AAs?$AA?5?$AAo?$AAn?$AA?5?$AAC?$AAl?$AAo@ ; `string'
PUBLIC	??_C@_1BLK@LDFJFIML@?$AAI?$AAt?$AA?5?$AAs?$AAe?$AAe?$AAm?$AAs?$AA?5?$AAt?$AAh?$AAe?$AA?5?$AAp?$AAa@ ; `string'
PUBLIC	??_C@_0BF@ONOGFCGL@SettingsOnCloudError@	; `string'
PUBLIC	??_C@_1BI@KEEMGJFF@?$AAE?$AAd?$AAg?$AAe?$AA?5?$AAc?$AAo?$AAl?$AAo?$AAu?$AAr@ ; `string'
PUBLIC	??_C@_0BA@FOIKENOD@vector?5too?5long@		; `string'
PUBLIC	??_R4exception@std@@6B@				; std::exception::`RTTI Complete Object Locator'
PUBLIC	??_R3exception@std@@8				; std::exception::`RTTI Class Hierarchy Descriptor'
PUBLIC	??_R2exception@std@@8				; std::exception::`RTTI Base Class Array'
PUBLIC	??_R1A@?0A@EA@exception@std@@8			; std::exception::`RTTI Base Class Descriptor at (0,-1,0,64)'
PUBLIC	??_R4bad_alloc@std@@6B@				; std::bad_alloc::`RTTI Complete Object Locator'
PUBLIC	??_R3bad_alloc@std@@8				; std::bad_alloc::`RTTI Class Hierarchy Descriptor'
PUBLIC	??_R2bad_alloc@std@@8				; std::bad_alloc::`RTTI Base Class Array'
PUBLIC	??_R1A@?0A@EA@bad_alloc@std@@8			; std::bad_alloc::`RTTI Base Class Descriptor at (0,-1,0,64)'
PUBLIC	??_R4bad_array_new_length@std@@6B@		; std::bad_array_new_length::`RTTI Complete Object Locator'
PUBLIC	??_R3bad_array_new_length@std@@8		; std::bad_array_new_length::`RTTI Class Hierarchy Descriptor'
PUBLIC	??_R2bad_array_new_length@std@@8		; std::bad_array_new_length::`RTTI Base Class Array'
PUBLIC	??_R1A@?0A@EA@bad_array_new_length@std@@8	; std::bad_array_new_length::`RTTI Base Class Descriptor at (0,-1,0,64)'
PUBLIC	??_R4Window@@6B@				; Window::`RTTI Complete Object Locator'
PUBLIC	??_R0?AVWindow@@@8				; Window `RTTI Type Descriptor'
PUBLIC	??_R3Window@@8					; Window::`RTTI Class Hierarchy Descriptor'
PUBLIC	??_R2Window@@8					; Window::`RTTI Base Class Array'
PUBLIC	??_R1A@?0A@EA@Window@@8				; Window::`RTTI Base Class Descriptor at (0,-1,0,64)'
PUBLIC	??_R4StaticDialog@@6B@				; StaticDialog::`RTTI Complete Object Locator'
PUBLIC	??_R0?AVStaticDialog@@@8			; StaticDialog `RTTI Type Descriptor'
PUBLIC	??_R3StaticDialog@@8				; StaticDialog::`RTTI Class Hierarchy Descriptor'
PUBLIC	??_R2StaticDialog@@8				; StaticDialog::`RTTI Base Class Array'
PUBLIC	??_R1A@?0A@EA@StaticDialog@@8			; StaticDialog::`RTTI Base Class Descriptor at (0,-1,0,64)'
PUBLIC	??_R4ShortcutMapper@@6B@			; ShortcutMapper::`RTTI Complete Object Locator'
PUBLIC	??_R0?AVShortcutMapper@@@8			; ShortcutMapper `RTTI Type Descriptor'
PUBLIC	??_R3ShortcutMapper@@8				; ShortcutMapper::`RTTI Class Hierarchy Descriptor'
PUBLIC	??_R2ShortcutMapper@@8				; ShortcutMapper::`RTTI Base Class Array'
PUBLIC	??_R1A@?0A@EA@ShortcutMapper@@8			; ShortcutMapper::`RTTI Base Class Descriptor at (0,-1,0,64)'
PUBLIC	??_R4BabyGridWrapper@@6B@			; BabyGridWrapper::`RTTI Complete Object Locator'
PUBLIC	??_R0?AVBabyGridWrapper@@@8			; BabyGridWrapper `RTTI Type Descriptor'
PUBLIC	??_R3BabyGridWrapper@@8				; BabyGridWrapper::`RTTI Class Hierarchy Descriptor'
PUBLIC	??_R2BabyGridWrapper@@8				; BabyGridWrapper::`RTTI Base Class Array'
PUBLIC	??_R1A@?0A@EA@BabyGridWrapper@@8		; BabyGridWrapper::`RTTI Base Class Descriptor at (0,-1,0,64)'
PUBLIC	__xmm@00000000000000070000000000000000
EXTRN	??_L@YAXPEAX_K1P6AX0@Z2@Z:PROC			; `eh vector constructor iterator'
EXTRN	??_M@YAXPEAX_K1P6AX0@Z@Z:PROC			; `eh vector destructor iterator'
EXTRN	_purecall:PROC
EXTRN	??2@YAPEAX_K@Z:PROC				; operator new
EXTRN	??3@YAXPEAX_K@Z:PROC				; operator delete
EXTRN	??_U@YAPEAX_K@Z:PROC				; operator new[]
EXTRN	??_V@YAXPEAX@Z:PROC				; operator delete[]
EXTRN	atexit:PROC
EXTRN	__report_rangecheckfailure:PROC
EXTRN	_Init_thread_header:PROC
EXTRN	_Init_thread_abort:PROC
EXTRN	_Init_thread_footer:PROC
EXTRN	_invalid_parameter_noinfo_noreturn:PROC
EXTRN	_wtoi:PROC
EXTRN	exit:PROC
EXTRN	wcscpy_s:PROC
EXTRN	wcsicmp:PROC
EXTRN	__std_exception_copy:PROC
EXTRN	__std_exception_destroy:PROC
EXTRN	??_Eexception@std@@UEAAPEAXI@Z:PROC		; std::exception::`vector deleting destructor'
EXTRN	??_Ebad_alloc@std@@UEAAPEAXI@Z:PROC		; std::bad_alloc::`vector deleting destructor'
EXTRN	??_Ebad_array_new_length@std@@UEAAPEAXI@Z:PROC	; std::bad_array_new_length::`vector deleting destructor'
EXTRN	?_Xlength_error@std@@YAXPEBD@Z:PROC		; std::_Xlength_error
EXTRN	__imp_GetModuleFileNameW:PROC
EXTRN	__imp_lstrcmpW:PROC
EXTRN	__imp_lstrcpynW:PROC
EXTRN	__imp_lstrcpyW:PROC
EXTRN	__imp_lstrlenW:PROC
EXTRN	__imp_SetTextColor:PROC
EXTRN	__imp_SendMessageW:PROC
EXTRN	__imp_PostMessageW:PROC
EXTRN	__imp_DefWindowProcW:PROC
EXTRN	__imp_PostQuitMessage:PROC
EXTRN	__imp_DestroyWindow:PROC
EXTRN	__imp_ShowWindow:PROC
EXTRN	__imp_MoveWindow:PROC
EXTRN	__imp_SetWindowPos:PROC
EXTRN	__imp_IsWindowVisible:PROC
EXTRN	__imp_GetDlgCtrlID:PROC
EXTRN	__imp_SetFocus:PROC
EXTRN	__imp_LoadMenuW:PROC
EXTRN	__imp_GetMenu:PROC
EXTRN	__imp_SetMenu:PROC
EXTRN	__imp_DrawMenuBar:PROC
EXTRN	__imp_DestroyMenu:PROC
EXTRN	__imp_CheckMenuItem:PROC
EXTRN	__imp_GetSubMenu:PROC
EXTRN	__imp_TrackPopupMenu:PROC
EXTRN	__imp_UpdateWindow:PROC
EXTRN	__imp_SetForegroundWindow:PROC
EXTRN	__imp_InvalidateRect:PROC
EXTRN	__imp_LockWindowUpdate:PROC
EXTRN	__imp_GetClientRect:PROC
EXTRN	__imp_GetWindowRect:PROC
EXTRN	__imp_MessageBoxA:PROC
EXTRN	__imp_GetCursorPos:PROC
EXTRN	__imp_FillRect:PROC
EXTRN	__imp_GetWindowLongPtrW:PROC
EXTRN	__imp_SetWindowLongPtrW:PROC
EXTRN	__imp_LoadIconW:PROC
EXTRN	__imp_PathFileExistsW:PROC
EXTRN	__imp_PathFindExtensionW:PROC
EXTRN	__imp_PathFindFileNameW:PROC
EXTRN	__imp_PathRemoveExtensionW:PROC
EXTRN	__imp_PathRemoveFileSpecW:PROC
EXTRN	?char2wchar@WcharMbcsConvertor@@QEAAPEB_WPEBDIHPEAH1@Z:PROC ; WcharMbcsConvertor::char2wchar
EXTRN	??_EWindow@@UEAAPEAXI@Z:PROC			; Window::`vector deleting destructor'
EXTRN	?registerDynBtn@ToolBar@@QEAAXIPEAUtoolbarIcons@@PEAUHICON__@@@Z:PROC ; ToolBar::registerDynBtn
EXTRN	?registerDynBtnDM@ToolBar@@QEAAXIPEAUtoolbarIconsWithDarkMode@@@Z:PROC ; ToolBar::registerDynBtnDM
EXTRN	?setIDVisible@ReBar@@QEAAXH_N@Z:PROC		; ReBar::setIDVisible
EXTRN	?getIDVisible@ReBar@@QEAA_NH@Z:PROC		; ReBar::getIDVisible
EXTRN	??1StaticDialog@@UEAA@XZ:PROC			; StaticDialog::~StaticDialog
EXTRN	?create@StaticDialog@@UEAAXH_N0@Z:PROC		; StaticDialog::create
EXTRN	?destroy@StaticDialog@@UEAAXXZ:PROC		; StaticDialog::destroy
EXTRN	??_EStaticDialog@@UEAAPEAXI@Z:PROC		; StaticDialog::`vector deleting destructor'
EXTRN	??1ContextMenu@@QEAA@XZ:PROC			; ContextMenu::~ContextMenu
EXTRN	?create@ContextMenu@@QEAAXPEAUHWND__@@AEBV?$vector@UMenuItemUnit@@V?$allocator@UMenuItemUnit@@@std@@@std@@QEAUHMENU__@@_N@Z:PROC ; ContextMenu::create
EXTRN	?isEnabled@NppDarkMode@@YA_NXZ:PROC		; NppDarkMode::isEnabled
EXTRN	?isDarkMenuEnabled@NppDarkMode@@YA_NXZ:PROC	; NppDarkMode::isDarkMenuEnabled
EXTRN	?isExperimentalEnabled@NppDarkMode@@YA_NXZ:PROC	; NppDarkMode::isExperimentalEnabled
EXTRN	?isScrollbarHackEnabled@NppDarkMode@@YA_NXZ:PROC ; NppDarkMode::isScrollbarHackEnabled
EXTRN	?getTextColor@NppDarkMode@@YAKXZ:PROC		; NppDarkMode::getTextColor
EXTRN	?getBackgroundBrush@NppDarkMode@@YAPEAUHBRUSH__@@XZ:PROC ; NppDarkMode::getBackgroundBrush
EXTRN	?getDarkerBackgroundBrush@NppDarkMode@@YAPEAUHBRUSH__@@XZ:PROC ; NppDarkMode::getDarkerBackgroundBrush
EXTRN	?handleSettingChange@NppDarkMode@@YAXPEAUHWND__@@_J@Z:PROC ; NppDarkMode::handleSettingChange
EXTRN	?runUAHWndProc@NppDarkMode@@YA_NPEAUHWND__@@I_K_JPEA_J@Z:PROC ; NppDarkMode::runUAHWndProc
EXTRN	?drawUAHMenuNCBottomLine@NppDarkMode@@YAXPEAUHWND__@@@Z:PROC ; NppDarkMode::drawUAHMenuNCBottomLine
EXTRN	?enableDarkScrollBarForWindowAndChildren@NppDarkMode@@YAXPEAUHWND__@@@Z:PROC ; NppDarkMode::enableDarkScrollBarForWindowAndChildren
EXTRN	?setDarkTitleBar@NppDarkMode@@YAXPEAUHWND__@@@Z:PROC ; NppDarkMode::setDarkTitleBar
EXTRN	?convertIntToFormatType@@YA?AW4EolType@@HW41@@Z:PROC ; convertIntToFormatType
EXTRN	?writeSession@NppParameters@@QEAAXAEBUSession@@PEB_W@Z:PROC ; NppParameters::writeSession
EXTRN	?loadSession@NppParameters@@QEAA_NAEAUSession@@PEB_W@Z:PROC ; NppParameters::loadSession
EXTRN	?saveConfig_xml@NppParameters@@QEAAXXZ:PROC	; NppParameters::saveConfig_xml
EXTRN	?writeSettingsFilesOnCloudForThe1stTime@NppParameters@@QEAA_NAEBV?$basic_string@_WU?$char_traits@_W@std@@V?$allocator@_W@2@@std@@@Z:PROC ; NppParameters::writeSettingsFilesOnCloudForThe1stTime
EXTRN	?removeCloudChoice@NppParameters@@QEAAXXZ:PROC	; NppParameters::removeCloudChoice
EXTRN	?isCloudPathChanged@NppParameters@@QEBA_NXZ:PROC ; NppParameters::isCloudPathChanged
EXTRN	??0NppParameters@@AEAA@XZ:PROC			; NppParameters::NppParameters
EXTRN	??0Utf8_16_Read@@QEAA@XZ:PROC			; Utf8_16_Read::Utf8_16_Read
EXTRN	??1Utf8_16_Read@@QEAA@XZ:PROC			; Utf8_16_Read::~Utf8_16_Read
EXTRN	?convert@Utf8_16_Read@@QEAA_KPEAD_K@Z:PROC	; Utf8_16_Read::convert
EXTRN	??0Utf8_16_Write@@QEAA@XZ:PROC			; Utf8_16_Write::Utf8_16_Write
EXTRN	??1Utf8_16_Write@@QEAA@XZ:PROC			; Utf8_16_Write::~Utf8_16_Write
EXTRN	?setEncoding@Utf8_16_Write@@QEAAXW4UniMode@@@Z:PROC ; Utf8_16_Write::setEncoding
EXTRN	?convert@Utf8_16_Write@@QEAA_KPEAD_K@Z:PROC	; Utf8_16_Write::convert
EXTRN	?getBufferByIndex@FileManager@@QEAAPEAVBuffer@@_K@Z:PROC ; FileManager::getBufferByIndex
EXTRN	?getBufferFromName@FileManager@@QEAAPEAVBuffer@@PEB_W@Z:PROC ; FileManager::getBufferFromName
EXTRN	?backupCurrentBuffer@FileManager@@QEAA_NXZ:PROC	; FileManager::backupCurrentBuffer
EXTRN	?getFileNameFromBuffer@FileManager@@QEAAHPEAVBuffer@@PEA_W@Z:PROC ; FileManager::getFileNameFromBuffer
EXTRN	??1FileManager@@AEAA@XZ:PROC			; FileManager::~FileManager
EXTRN	?setFileName@Buffer@@QEAAXPEB_WW4LangType@@@Z:PROC ; Buffer::setFileName
EXTRN	?setLangType@Buffer@@QEAAXW4LangType@@PEB_W@Z:PROC ; Buffer::setLangType
EXTRN	?setUnicodeMode@Buffer@@QEAAXW4UniMode@@@Z:PROC	; Buffer::setUnicodeMode
EXTRN	?setDirty@Buffer@@QEAAX_N@Z:PROC		; Buffer::setDirty
EXTRN	?getCurrentLang@Buffer@@QEBAPEAULang@@XZ:PROC	; Buffer::getCurrentLang
EXTRN	?reload@Buffer@@QEAAXXZ:PROC			; Buffer::reload
EXTRN	?doNotify@Buffer@@AEAAXH@Z:PROC			; Buffer::doNotify
EXTRN	?setImageList@TabBar@@QEAAXPEAU_IMAGELIST@@@Z:PROC ; TabBar::setImageList
EXTRN	?getGenericSelectedText@ScintillaEditView@@QEAAPEA_WPEA_WH_N@Z:PROC ; ScintillaEditView::getGenericSelectedText
EXTRN	?getLine@ScintillaEditView@@QEAAX_KPEA_WH@Z:PROC ; ScintillaEditView::getLine
EXTRN	?addText@ScintillaEditView@@QEAAX_KPEBD@Z:PROC	; ScintillaEditView::addText
EXTRN	?performGlobalStyles@ScintillaEditView@@QEAAXXZ:PROC ; ScintillaEditView::performGlobalStyles
EXTRN	?getIndicatorRange@ScintillaEditView@@QEAA_NHPEAH00@Z:PROC ; ScintillaEditView::getIndicatorRange
EXTRN	?defineDocType@ScintillaEditView@@QEAAXW4LangType@@@Z:PROC ; ScintillaEditView::defineDocType
EXTRN	?setWordChars@ScintillaEditView@@QEAAXXZ:PROC	; ScintillaEditView::setWordChars
EXTRN	?setTabSettings@ScintillaEditView@@QEAAXPEAULang@@@Z:PROC ; ScintillaEditView::setTabSettings
EXTRN	?setBorderEdge@ScintillaEditView@@QEAAX_N@Z:PROC ; ScintillaEditView::setBorderEdge
EXTRN	?getIndexByBuffer@DocTabView@@QEAAHPEAVBuffer@@@Z:PROC ; DocTabView::getIndexByBuffer
EXTRN	?getBufferByIndex@DocTabView@@QEAAPEAVBuffer@@_K@Z:PROC ; DocTabView::getBufferByIndex
EXTRN	?setBuffer@DocTabView@@QEAAX_KPEAVBuffer@@@Z:PROC ; DocTabView::setBuffer
EXTRN	?getHeight@StatusBar@@UEBAHXZ:PROC		; StatusBar::getHeight
EXTRN	?setText@StatusBar@@QEAA_NPEB_WH@Z:PROC		; StatusBar::setText
EXTRN	?adjustParts@StatusBar@@QEAAXH@Z:PROC		; StatusBar::adjustParts
EXTRN	?setFinderStyle@Finder@@QEAAXXZ:PROC		; Finder::setFinderStyle
EXTRN	?doDialog@FindInFinderDlg@@QEAAXPEAVFinder@@_N@Z:PROC ; FindInFinderDlg::doDialog
EXTRN	?doDialog@FindReplaceDlg@@QEAAXW4DIALOG_TYPE@@_N1@Z:PROC ; FindReplaceDlg::doDialog
EXTRN	?setSearchText@FindReplaceDlg@@QEAAXPEA_W@Z:PROC ; FindReplaceDlg::setSearchText
EXTRN	?setProjectCheckmarks@FindReplaceDlg@@QEAAXPEAUFindHistory@@H@Z:PROC ; FindReplaceDlg::setProjectCheckmarks
EXTRN	?createFinder@FindReplaceDlg@@QEAAPEAVFinder@@XZ:PROC ; FindReplaceDlg::createFinder
EXTRN	?switchMode@LastRecentFileList@@QEAAXXZ:PROC	; LastRecentFileList::switchMode
EXTRN	?updateMenu@LastRecentFileList@@QEAAXXZ:PROC	; LastRecentFileList::updateMenu
EXTRN	?setUserMaxNbLRF@LastRecentFileList@@QEAAXH@Z:PROC ; LastRecentFileList::setUserMaxNbLRF
EXTRN	?saveLRFL@LastRecentFileList@@QEAAXXZ:PROC	; LastRecentFileList::saveLRFL
EXTRN	??0trayIconControler@@QEAA@PEAUHWND__@@IIPEAUHICON__@@PEB_W@Z:PROC ; trayIconControler::trayIconControler
EXTRN	?doTrayIcon@trayIconControler@@QEAAHK@Z:PROC	; trayIconControler::doTrayIcon
EXTRN	?getShortcutByCmdID@PluginsManager@@QEAA_NHPEAUShortcutKey@@@Z:PROC ; PluginsManager::getShortcutByCmdID
EXTRN	?removeShortcutByCmdID@PluginsManager@@QEAA_NH@Z:PROC ; PluginsManager::removeShortcutByCmdID
EXTRN	?notify@PluginsManager@@QEAAXPEBUSCNotification@@@Z:PROC ; PluginsManager::notify
EXTRN	?relayNppMessages@PluginsManager@@QEAAXI_K_J@Z:PROC ; PluginsManager::relayNppMessages
EXTRN	?relayPluginMessages@PluginsManager@@QEAA_NI_K_J@Z:PROC ; PluginsManager::relayPluginMessages
EXTRN	?allocateCmdID@PluginsManager@@QEAA_NHPEAH@Z:PROC ; PluginsManager::allocateCmdID
EXTRN	?allocateMarker@PluginsManager@@QEAA_NHPEAH@Z:PROC ; PluginsManager::allocateMarker
EXTRN	?initPopupMenu@WindowsMenu@@QEAAXPEAUHMENU__@@PEAVDocTabView@@@Z:PROC ; WindowsMenu::initPopupMenu
EXTRN	?getMacro2Exec@RunMacroDlg@@QEBAHXZ:PROC	; RunMacroDlg::getMacro2Exec
EXTRN	?showFloatingContainers@DockingManager@@QEAAX_N@Z:PROC ; DockingManager::showFloatingContainers
EXTRN	?updateContainerInfo@DockingManager@@QEAAXPEAUHWND__@@@Z:PROC ; DockingManager::updateContainerInfo
EXTRN	?createDockableDlg@DockingManager@@QEAAXUtTbData@@H_N@Z:PROC ; DockingManager::createDockableDlg
EXTRN	?showDockableDlg@DockingManager@@QEAAXPEAUHWND__@@H@Z:PROC ; DockingManager::showDockableDlg
EXTRN	?showDockableDlg@DockingManager@@QEAAXPEA_WH@Z:PROC ; DockingManager::showDockableDlg
EXTRN	?run@Process@@QEBAX_N@Z:PROC			; Process::run
EXTRN	?createSintilla@ScintillaCtrls@@QEAAPEAUHWND__@@PEAU2@@Z:PROC ; ScintillaCtrls::createSintilla
EXTRN	?getScintillaEditViewFrom@ScintillaCtrls@@QEAAPEAVScintillaEditView@@PEAUHWND__@@@Z:PROC ; ScintillaCtrls::getScintillaEditViewFrom
EXTRN	?changeDlgLang@NativeLangSpeaker@@QEAA_NPEAUHWND__@@PEBDPEAD_K@Z:PROC ; NativeLangSpeaker::changeDlgLang
EXTRN	?changeFindReplaceDlgLang@NativeLangSpeaker@@QEAAXAEAVFindReplaceDlg@@@Z:PROC ; NativeLangSpeaker::changeFindReplaceDlgLang
EXTRN	?messageBox@NativeLangSpeaker@@QEAAHPEBDPEAUHWND__@@PEB_W2HH2@Z:PROC ; NativeLangSpeaker::messageBox
EXTRN	?init@Notepad_plus@@QEAA_JPEAUHWND__@@@Z:PROC	; Notepad_plus::init
EXTRN	?killAllChildren@Notepad_plus@@QEAAXXZ:PROC	; Notepad_plus::killAllChildren
EXTRN	?setTitle@Notepad_plus@@QEAAXXZ:PROC		; Notepad_plus::setTitle
EXTRN	?getTaskListInfo@Notepad_plus@@QEAAXPEAUTaskListInfo@@@Z:PROC ; Notepad_plus::getTaskListInfo
EXTRN	?doOpen@Notepad_plus@@QEAAPEAVBuffer@@AEBV?$basic_string@_WU?$char_traits@_W@std@@V?$allocator@_W@2@@std@@_N1HPEB_WU_FILETIME@@@Z:PROC ; Notepad_plus::doOpen
EXTRN	?doReload@Notepad_plus@@QEAA_NPEAVBuffer@@_N@Z:PROC ; Notepad_plus::doReload
EXTRN	?doSave@Notepad_plus@@QEAA_NPEAVBuffer@@PEB_W_N@Z:PROC ; Notepad_plus::doSave
EXTRN	?fileClose@Notepad_plus@@QEAA_NPEAVBuffer@@H@Z:PROC ; Notepad_plus::fileClose
EXTRN	?fileCloseAll@Notepad_plus@@QEAA_N_N0@Z:PROC	; Notepad_plus::fileCloseAll
EXTRN	?fileSave@Notepad_plus@@QEAA_NPEAVBuffer@@@Z:PROC ; Notepad_plus::fileSave
EXTRN	?fileSaveAll@Notepad_plus@@QEAA_NXZ:PROC	; Notepad_plus::fileSaveAll
EXTRN	?fileSaveSpecific@Notepad_plus@@QEAA_NAEBV?$basic_string@_WU?$char_traits@_W@std@@V?$allocator@_W@2@@std@@@Z:PROC ; Notepad_plus::fileSaveSpecific
EXTRN	?switchToFile@Notepad_plus@@QEAA_NPEAVBuffer@@@Z:PROC ; Notepad_plus::switchToFile
EXTRN	?saveScintillasZoom@Notepad_plus@@QEAAXXZ:PROC	; Notepad_plus::saveScintillasZoom
EXTRN	?saveGUIParams@Notepad_plus@@QEAA_NXZ:PROC	; Notepad_plus::saveGUIParams
EXTRN	?saveProjectPanelsParams@Notepad_plus@@QEAA_NXZ:PROC ; Notepad_plus::saveProjectPanelsParams
EXTRN	?saveFileBrowserParam@Notepad_plus@@QEAA_NXZ:PROC ; Notepad_plus::saveFileBrowserParam
EXTRN	?saveUserDefineLangs@Notepad_plus@@QEAAXXZ:PROC	; Notepad_plus::saveUserDefineLangs
EXTRN	?saveShortcuts@Notepad_plus@@QEAAXXZ:PROC	; Notepad_plus::saveShortcuts
EXTRN	?saveSession@Notepad_plus@@QEAAXAEBUSession@@@Z:PROC ; Notepad_plus::saveSession
EXTRN	?saveFindHistory@Notepad_plus@@QEAAXXZ:PROC	; Notepad_plus::saveFindHistory
EXTRN	?getCurrentOpenedFiles@Notepad_plus@@QEAAXAEAUSession@@_N@Z:PROC ; Notepad_plus::getCurrentOpenedFiles
EXTRN	?fileLoadSession@Notepad_plus@@QEAA_NPEB_W@Z:PROC ; Notepad_plus::fileLoadSession
EXTRN	?fileSaveSession@Notepad_plus@@QEAAPEB_W_KPEAPEA_WPEB_W_N@Z:PROC ; Notepad_plus::fileSaveSession
EXTRN	?macroPlayback@Notepad_plus@@QEAAXV?$vector@UrecordedMacroStep@@V?$allocator@UrecordedMacroStep@@@std@@@std@@@Z:PROC ; Notepad_plus::macroPlayback
EXTRN	?findInFinderFiles@Notepad_plus@@QEAA_NPEAUFindersInfo@@@Z:PROC ; Notepad_plus::findInFinderFiles
EXTRN	?findInFiles@Notepad_plus@@QEAA_NXZ:PROC	; Notepad_plus::findInFiles
EXTRN	?findInProjects@Notepad_plus@@QEAA_NXZ:PROC	; Notepad_plus::findInProjects
EXTRN	?replaceInFiles@Notepad_plus@@QEAA_NXZ:PROC	; Notepad_plus::replaceInFiles
EXTRN	?replaceInProjects@Notepad_plus@@QEAA_NXZ:PROC	; Notepad_plus::replaceInProjects
EXTRN	?setFindReplaceFolderFilter@Notepad_plus@@QEAAXPEB_W0@Z:PROC ; Notepad_plus::setFindReplaceFolderFilter
EXTRN	?launchDocumentBackupTask@Notepad_plus@@QEAAXXZ:PROC ; Notepad_plus::launchDocumentBackupTask
EXTRN	?minimizeDialogs@Notepad_plus@@QEAAXXZ:PROC	; Notepad_plus::minimizeDialogs
EXTRN	?restoreMinimizeDialogs@Notepad_plus@@QEAAXXZ:PROC ; Notepad_plus::restoreMinimizeDialogs
EXTRN	?refreshDarkMode@Notepad_plus@@QEAAXXZ:PROC	; Notepad_plus::refreshDarkMode
EXTRN	?fullScreenToggle@Notepad_plus@@AEAAXXZ:PROC	; Notepad_plus::fullScreenToggle
EXTRN	?postItToggle@Notepad_plus@@AEAAXXZ:PROC	; Notepad_plus::postItToggle
EXTRN	?notify@Notepad_plus@@AEAAHPEAUSCNotification@@@Z:PROC ; Notepad_plus::notify
EXTRN	?command@Notepad_plus@@AEAAXH@Z:PROC		; Notepad_plus::command
EXTRN	?dockUserDlg@Notepad_plus@@AEAAXXZ:PROC		; Notepad_plus::dockUserDlg
EXTRN	?undockUserDlg@Notepad_plus@@AEAAXXZ:PROC	; Notepad_plus::undockUserDlg
EXTRN	?viewVisible@Notepad_plus@@AEAA_NH@Z:PROC	; Notepad_plus::viewVisible
EXTRN	?reloadLang@Notepad_plus@@AEAA_NXZ:PROC		; Notepad_plus::reloadLang
EXTRN	?loadStyles@Notepad_plus@@AEAA_NXZ:PROC		; Notepad_plus::loadStyles
EXTRN	?switchEditViewTo@Notepad_plus@@AEAAHH@Z:PROC	; Notepad_plus::switchEditViewTo
EXTRN	?activateBuffer@Notepad_plus@@AEAA_NPEAVBuffer@@H@Z:PROC ; Notepad_plus::activateBuffer
EXTRN	?checkClipboard@Notepad_plus@@AEAAXXZ:PROC	; Notepad_plus::checkClipboard
EXTRN	?checkUndoState@Notepad_plus@@AEAAXXZ:PROC	; Notepad_plus::checkUndoState
EXTRN	?setupColorSampleBitmapsOnMainMenuItems@Notepad_plus@@AEAAXXZ:PROC ; Notepad_plus::setupColorSampleBitmapsOnMainMenuItems
EXTRN	?dropFiles@Notepad_plus@@AEAAXPEAUHDROP__@@@Z:PROC ; Notepad_plus::dropFiles
EXTRN	?checkModifiedDocument@Notepad_plus@@AEAAX_N@Z:PROC ; Notepad_plus::checkModifiedDocument
EXTRN	?getMainClientRect@Notepad_plus@@AEBAXAEAUtagRECT@@@Z:PROC ; Notepad_plus::getMainClientRect
EXTRN	?getLangDesc@Notepad_plus@@AEAA?AV?$basic_string@_WU?$char_traits@_W@std@@V?$allocator@_W@2@@std@@W4LangType@@_N@Z:PROC ; Notepad_plus::getLangDesc
EXTRN	?addHotSpot@Notepad_plus@@AEAAXPEAVScintillaEditView@@@Z:PROC ; Notepad_plus::addHotSpot
EXTRN	?activateNextDoc@Notepad_plus@@AEAAX_N@Z:PROC	; Notepad_plus::activateNextDoc
EXTRN	?activateDoc@Notepad_plus@@AEAAX_K@Z:PROC	; Notepad_plus::activateDoc
EXTRN	?replaceInOpenedFiles@Notepad_plus@@AEAA_NXZ:PROC ; Notepad_plus::replaceInOpenedFiles
EXTRN	?findInOpenedFiles@Notepad_plus@@AEAA_NXZ:PROC	; Notepad_plus::findInOpenedFiles
EXTRN	?findInCurrentFile@Notepad_plus@@AEAA_N_N@Z:PROC ; Notepad_plus::findInCurrentFile
EXTRN	?getIntegralDockingData@Notepad_plus@@AEAA_NAEAUtTbData@@AEAHAEA_N@Z:PROC ; Notepad_plus::getIntegralDockingData
EXTRN	?drawTabbarColoursFromStylerArray@Notepad_plus@@AEAAXXZ:PROC ; Notepad_plus::drawTabbarColoursFromStylerArray
EXTRN	?loadCommandlineParams@Notepad_plus@@AEAA?AV?$vector@V?$basic_string@_WU?$char_traits@_W@std@@V?$allocator@_W@2@@std@@V?$allocator@V?$basic_string@_WU?$char_traits@_W@std@@V?$allocator@_W@2@@std@@@2@@std@@PEB_WPEBUCmdLineParamsDTO@@@Z:PROC ; Notepad_plus::loadCommandlineParams
EXTRN	?launchFileSwitcherPanel@Notepad_plus@@AEAAXXZ:PROC ; Notepad_plus::launchFileSwitcherPanel
EXTRN	?launchFunctionList@Notepad_plus@@AEAAXXZ:PROC	; Notepad_plus::launchFunctionList
EXTRN	?monitoringStartOrStopAndUpdateUI@Notepad_plus@@AEAAXPEAVBuffer@@_N@Z:PROC ; Notepad_plus::monitoringStartOrStopAndUpdateUI
EXTRN	?init@BabyGridWrapper@@UEAAXPEAUHINSTANCE__@@PEAUHWND__@@F@Z:PROC ; BabyGridWrapper::init
EXTRN	??_EBabyGridWrapper@@UEAAPEAXI@Z:PROC		; BabyGridWrapper::`vector deleting destructor'
EXTRN	?getClientRect@ShortcutMapper@@UEBAXAEAUtagRECT@@@Z:PROC ; ShortcutMapper::getClientRect
EXTRN	?findKeyConflicts@ShortcutMapper@@QEBA_NQEAV?$basic_string@_WU?$char_traits@_W@std@@V?$allocator@_W@2@@std@@AEBUKeyCombo@@AEB_K@Z:PROC ; ShortcutMapper::findKeyConflicts
EXTRN	?run_dlgProc@ShortcutMapper@@MEAA_JI_K_J@Z:PROC	; ShortcutMapper::run_dlgProc
EXTRN	??_EShortcutMapper@@UEAAPEAXI@Z:PROC		; ShortcutMapper::`vector deleting destructor'
EXTRN	?reload@VerticalFileSwitcherListView@@QEAAXXZ:PROC ; VerticalFileSwitcherListView::reload
EXTRN	?startColumnSort@VerticalFileSwitcher@@QEAAXXZ:PROC ; VerticalFileSwitcher::startColumnSort
EXTRN	?reloadMap@DocumentMap@@QEAAXXZ:PROC		; DocumentMap::reloadMap
EXTRN	?doMove@DocumentMap@@QEAAXXZ:PROC		; DocumentMap::doMove
EXTRN	?setSyntaxHiliting@DocumentMap@@QEAAXXZ:PROC	; DocumentMap::setSyntaxHiliting
EXTRN	?serialize@FunctionListPanel@@QEAA_NAEBV?$basic_string@_WU?$char_traits@_W@std@@V?$allocator@_W@2@@std@@@Z:PROC ; FunctionListPanel::serialize
EXTRN	_CxxThrowException:PROC
EXTRN	__CxxFrameHandler4:PROC
EXTRN	__GSHandlerCheck:PROC
EXTRN	__GSHandlerCheck_EH4:PROC
EXTRN	__chkstk:PROC
EXTRN	__security_check_cookie:PROC
EXTRN	memcpy:PROC
EXTRN	memmove:PROC
EXTRN	_Init_thread_epoch:DWORD
EXTRN	??_7type_info@@6B@:BYTE				; type_info::`vftable'
EXTRN	?_hideTabBarStatus@DocTabView@@0_NA:BYTE	; DocTabView::_hideTabBarStatus
EXTRN	?WDN_NOTIFY@@3IB:DWORD				; WDN_NOTIFY
EXTRN	?gNppHWND@Notepad_plus_Window@@2PEAUHWND__@@EA:QWORD ; Notepad_plus_Window::gNppHWND
EXTRN	__ImageBase:BYTE
EXTRN	__security_cookie:QWORD
EXTRN	_tls_index:DWORD
;	COMDAT ?instance@?1??getInstance@WcharMbcsConvertor@@SAAEAV2@XZ@4V2@A
_BSS	SEGMENT
?instance@?1??getInstance@WcharMbcsConvertor@@SAAEAV2@XZ@4V2@A DB 020H DUP (?) ; `WcharMbcsConvertor::getInstance'::`2'::instance
_BSS	ENDS
;	COMDAT ?$TSS0@?1??getInstance@WcharMbcsConvertor@@SAAEAV2@XZ@4HA
_BSS	SEGMENT
?$TSS0@?1??getInstance@WcharMbcsConvertor@@SAAEAV2@XZ@4HA DD 01H DUP (?) ; `WcharMbcsConvertor::getInstance'::`2'::$TSS0
_BSS	ENDS
;	COMDAT ?instance@?1??getInstancePointer@NppParameters@@CAPEAV2@XZ@4PEAV2@EA
_BSS	SEGMENT
?instance@?1??getInstancePointer@NppParameters@@CAPEAV2@XZ@4PEAV2@EA DQ 01H DUP (?) ; `NppParameters::getInstancePointer'::`2'::instance
_BSS	ENDS
;	COMDAT ?$TSS0@?1??getInstancePointer@NppParameters@@CAPEAV2@XZ@4HA
_BSS	SEGMENT
?$TSS0@?1??getInstancePointer@NppParameters@@CAPEAV2@XZ@4HA DD 01H DUP (?) ; `NppParameters::getInstancePointer'::`2'::$TSS0
_BSS	ENDS
;	COMDAT ?instance@?1??getInstance@FileManager@@SAAEAV2@XZ@4V2@A
_BSS	SEGMENT
?instance@?1??getInstance@FileManager@@SAAEAV2@XZ@4V2@A DB 040H DUP (?) ; `FileManager::getInstance'::`2'::instance
_BSS	ENDS
;	COMDAT ?$TSS0@?1??getInstance@FileManager@@SAAEAV2@XZ@4HA
_BSS	SEGMENT
?$TSS0@?1??getInstance@FileManager@@SAAEAV2@XZ@4HA DD 01H DUP (?) ; `FileManager::getInstance'::`2'::$TSS0
_BSS	ENDS
;	COMDAT pdata
pdata	SEGMENT
$pdata$??0exception@std@@QEAA@AEBV01@@Z DD imagerel $LN5
	DD	imagerel $LN5+50
	DD	imagerel $unwind$??0exception@std@@QEAA@AEBV01@@Z
pdata	ENDS
;	COMDAT pdata
pdata	SEGMENT
$pdata$??1exception@std@@UEAA@XZ DD imagerel $LN5
	DD	imagerel $LN5+29
	DD	imagerel $unwind$??1exception@std@@UEAA@XZ
pdata	ENDS
;	COMDAT pdata
pdata	SEGMENT
$pdata$??_Gexception@std@@UEAAPEAXI@Z DD imagerel $LN9
	DD	imagerel $LN9+66
	DD	imagerel $unwind$??_Gexception@std@@UEAAPEAXI@Z
pdata	ENDS
;	COMDAT pdata
pdata	SEGMENT
$pdata$??0bad_alloc@std@@AEAA@QEBD@Z DD imagerel $LN8
	DD	imagerel $LN8+40
	DD	imagerel $unwind$??0bad_alloc@std@@AEAA@QEBD@Z
pdata	ENDS
;	COMDAT pdata
pdata	SEGMENT
$pdata$??1bad_alloc@std@@UEAA@XZ DD imagerel $LN8
	DD	imagerel $LN8+34
	DD	imagerel $unwind$??1bad_alloc@std@@UEAA@XZ
pdata	ENDS
;	COMDAT pdata
pdata	SEGMENT
$pdata$??0bad_alloc@std@@QEAA@AEBV01@@Z DD imagerel $LN8
	DD	imagerel $LN8+65
	DD	imagerel $unwind$??0bad_alloc@std@@QEAA@AEBV01@@Z
pdata	ENDS
;	COMDAT pdata
pdata	SEGMENT
$pdata$??_Gbad_alloc@std@@UEAAPEAXI@Z DD imagerel $LN12
	DD	imagerel $LN12+71
	DD	imagerel $unwind$??_Gbad_alloc@std@@UEAAPEAXI@Z
pdata	ENDS
;	COMDAT pdata
pdata	SEGMENT
$pdata$??0bad_array_new_length@std@@QEAA@XZ DD imagerel $LN11
	DD	imagerel $LN11+57
	DD	imagerel $unwind$??0bad_array_new_length@std@@QEAA@XZ
pdata	ENDS
;	COMDAT pdata
pdata	SEGMENT
$pdata$??1bad_array_new_length@std@@UEAA@XZ DD imagerel $LN11
	DD	imagerel $LN11+34
	DD	imagerel $unwind$??1bad_array_new_length@std@@UEAA@XZ
pdata	ENDS
;	COMDAT pdata
pdata	SEGMENT
$pdata$??0bad_array_new_length@std@@QEAA@AEBV01@@Z DD imagerel $LN11
	DD	imagerel $LN11+75
	DD	imagerel $unwind$??0bad_array_new_length@std@@QEAA@AEBV01@@Z
pdata	ENDS
;	COMDAT pdata
pdata	SEGMENT
$pdata$??_Gbad_array_new_length@std@@UEAAPEAXI@Z DD imagerel $LN15
	DD	imagerel $LN15+71
	DD	imagerel $unwind$??_Gbad_array_new_length@std@@UEAAPEAXI@Z
pdata	ENDS
;	COMDAT pdata
pdata	SEGMENT
$pdata$?_Throw_bad_array_new_length@std@@YAXXZ DD imagerel $LN4
	DD	imagerel $LN4+32
	DD	imagerel $unwind$?_Throw_bad_array_new_length@std@@YAXXZ
pdata	ENDS
;	COMDAT pdata
pdata	SEGMENT
$pdata$?_Adjust_manually_vector_aligned@std@@YAXAEAPEAXAEA_K@Z DD imagerel $LN13
	DD	imagerel $LN13+42
	DD	imagerel $unwind$?_Adjust_manually_vector_aligned@std@@YAXAEAPEAXAEA_K@Z
pdata	ENDS
;	COMDAT pdata
pdata	SEGMENT
$pdata$?copy@?$_Char_traits@_WG@std@@SAPEA_WQEA_WQEB_W_K@Z DD imagerel $LN4
	DD	imagerel $LN4+26
	DD	imagerel $unwind$?copy@?$_Char_traits@_WG@std@@SAPEA_WQEA_WQEB_W_K@Z
pdata	ENDS
;	COMDAT pdata
pdata	SEGMENT
$pdata$?move@?$_Char_traits@_WG@std@@SAPEA_WQEA_WQEB_W_K@Z DD imagerel $LN4
	DD	imagerel $LN4+26
	DD	imagerel $unwind$?move@?$_Char_traits@_WG@std@@SAPEA_WQEA_WQEB_W_K@Z
pdata	ENDS
;	COMDAT pdata
pdata	SEGMENT
$pdata$?copy@?$_Char_traits@DH@std@@SAPEADQEADQEBD_K@Z DD imagerel $LN4
	DD	imagerel $LN4+23
	DD	imagerel $unwind$?copy@?$_Char_traits@DH@std@@SAPEADQEADQEBD_K@Z
pdata	ENDS
;	COMDAT pdata
pdata	SEGMENT
$pdata$?_Xlen_string@std@@YAXXZ DD imagerel $LN4
	DD	imagerel $LN4+17
	DD	imagerel $unwind$?_Xlen_string@std@@YAXXZ
pdata	ENDS
;	COMDAT pdata
pdata	SEGMENT
$pdata$?deallocate@?$allocator@D@std@@QEAAXQEAD_K@Z DD imagerel $LN20
	DD	imagerel $LN20+61
	DD	imagerel $unwind$?deallocate@?$allocator@D@std@@QEAAXQEAD_K@Z
pdata	ENDS
;	COMDAT pdata
pdata	SEGMENT
$pdata$?allocate@?$allocator@D@std@@QEAAPEAD_K@Z DD imagerel $LN27
	DD	imagerel $LN27+88
	DD	imagerel $unwind$?allocate@?$allocator@D@std@@QEAAPEAD_K@Z
pdata	ENDS
;	COMDAT pdata
pdata	SEGMENT
$pdata$??0?$basic_string@DU?$char_traits@D@std@@V?$allocator@D@2@@std@@QEAA@AEBV01@@Z DD imagerel $LN52
	DD	imagerel $LN52+220
	DD	imagerel $unwind$??0?$basic_string@DU?$char_traits@D@std@@V?$allocator@D@2@@std@@QEAA@AEBV01@@Z
pdata	ENDS
;	COMDAT pdata
pdata	SEGMENT
$pdata$?_Construct_lv_contents@?$basic_string@DU?$char_traits@D@std@@V?$allocator@D@2@@std@@AEAAXAEBV12@@Z DD imagerel $LN43
	DD	imagerel $LN43+229
	DD	imagerel $unwind$?_Construct_lv_contents@?$basic_string@DU?$char_traits@D@std@@V?$allocator@D@2@@std@@AEAAXAEBV12@@Z
pdata	ENDS
;	COMDAT pdata
pdata	SEGMENT
$pdata$??1?$basic_string@DU?$char_traits@D@std@@V?$allocator@D@2@@std@@QEAA@XZ DD imagerel $LN30
	DD	imagerel $LN30+94
	DD	imagerel $unwind$??1?$basic_string@DU?$char_traits@D@std@@V?$allocator@D@2@@std@@QEAA@XZ
pdata	ENDS
;	COMDAT pdata
pdata	SEGMENT
$pdata$?_Tidy_deallocate@?$basic_string@DU?$char_traits@D@std@@V?$allocator@D@2@@std@@AEAAXXZ DD imagerel $LN27
	DD	imagerel $LN27+94
	DD	imagerel $unwind$?_Tidy_deallocate@?$basic_string@DU?$char_traits@D@std@@V?$allocator@D@2@@std@@AEAAXXZ
pdata	ENDS
;	COMDAT pdata
pdata	SEGMENT
$pdata$?deallocate@?$allocator@_W@std@@QEAAXQEA_W_K@Z DD imagerel $LN20
	DD	imagerel $LN20+62
	DD	imagerel $unwind$?deallocate@?$allocator@_W@std@@QEAAXQEA_W_K@Z
pdata	ENDS
;	COMDAT pdata
pdata	SEGMENT
$pdata$?allocate@?$allocator@_W@std@@QEAAPEA_W_K@Z DD imagerel $LN30
	DD	imagerel $LN30+107
	DD	imagerel $unwind$?allocate@?$allocator@_W@std@@QEAAPEA_W_K@Z
pdata	ENDS
;	COMDAT pdata
pdata	SEGMENT
$pdata$??0?$basic_string@_WU?$char_traits@_W@std@@V?$allocator@_W@2@@std@@QEAA@AEBV01@@Z DD imagerel $LN25
	DD	imagerel $LN25+159
	DD	imagerel $unwind$??0?$basic_string@_WU?$char_traits@_W@std@@V?$allocator@_W@2@@std@@QEAA@AEBV01@@Z
pdata	ENDS
;	COMDAT pdata
pdata	SEGMENT
$pdata$??0?$basic_string@_WU?$char_traits@_W@std@@V?$allocator@_W@2@@std@@QEAA@QEB_W@Z DD imagerel $LN18
	DD	imagerel $LN18+57
	DD	imagerel $unwind$??0?$basic_string@_WU?$char_traits@_W@std@@V?$allocator@_W@2@@std@@QEAA@QEB_W@Z
pdata	ENDS
;	COMDAT pdata
pdata	SEGMENT
$pdata$?_Move_assign@?$basic_string@_WU?$char_traits@_W@std@@V?$allocator@_W@2@@std@@AEAAXAEAV12@U_Equal_allocators@2@@Z DD imagerel $LN18
	DD	imagerel $LN18+63
	DD	imagerel $unwind$?_Move_assign@?$basic_string@_WU?$char_traits@_W@std@@V?$allocator@_W@2@@std@@AEAAXAEAV12@U_Equal_allocators@2@@Z
pdata	ENDS
;	COMDAT pdata
pdata	SEGMENT
$pdata$??4?$basic_string@_WU?$char_traits@_W@std@@V?$allocator@_W@2@@std@@QEAAAEAV01@$$QEAV01@@Z DD imagerel $LN22
	DD	imagerel $LN22+71
	DD	imagerel $unwind$??4?$basic_string@_WU?$char_traits@_W@std@@V?$allocator@_W@2@@std@@QEAAAEAV01@$$QEAV01@@Z
pdata	ENDS
;	COMDAT pdata
pdata	SEGMENT
$pdata$?_Construct_lv_contents@?$basic_string@_WU?$char_traits@_W@std@@V?$allocator@_W@2@@std@@AEAAXAEBV12@@Z DD imagerel $LN16
	DD	imagerel $LN16+164
	DD	imagerel $unwind$?_Construct_lv_contents@?$basic_string@_WU?$char_traits@_W@std@@V?$allocator@_W@2@@std@@AEAAXAEBV12@@Z
pdata	ENDS
;	COMDAT pdata
pdata	SEGMENT
$pdata$??4?$basic_string@_WU?$char_traits@_W@std@@V?$allocator@_W@2@@std@@QEAAAEAV01@AEBV01@@Z DD imagerel $LN13
	DD	imagerel $LN13+48
	DD	imagerel $unwind$??4?$basic_string@_WU?$char_traits@_W@std@@V?$allocator@_W@2@@std@@QEAAAEAV01@AEBV01@@Z
pdata	ENDS
;	COMDAT pdata
pdata	SEGMENT
$pdata$?assign@?$basic_string@_WU?$char_traits@_W@std@@V?$allocator@_W@2@@std@@QEAAAEAV12@QEB_W_K@Z DD imagerel $LN51
	DD	imagerel $LN51+291
	DD	imagerel $unwind$?assign@?$basic_string@_WU?$char_traits@_W@std@@V?$allocator@_W@2@@std@@QEAAAEAV12@QEB_W_K@Z
pdata	ENDS
;	COMDAT pdata
pdata	SEGMENT
$pdata$?_Tidy_deallocate@?$basic_string@_WU?$char_traits@_W@std@@V?$allocator@_W@2@@std@@AEAAXXZ DD imagerel $LN27
	DD	imagerel $LN27+97
	DD	imagerel $unwind$?_Tidy_deallocate@?$basic_string@_WU?$char_traits@_W@std@@V?$allocator@_W@2@@std@@AEAAXXZ
pdata	ENDS
;	COMDAT pdata
pdata	SEGMENT
$pdata$??_G?$basic_string@_WU?$char_traits@_W@std@@V?$allocator@_W@2@@std@@QEAAPEAXI@Z DD imagerel $LN9
	DD	imagerel $LN9+52
	DD	imagerel $unwind$??_G?$basic_string@_WU?$char_traits@_W@std@@V?$allocator@_W@2@@std@@QEAAPEAXI@Z
pdata	ENDS
;	COMDAT pdata
pdata	SEGMENT
$pdata$?getInstance@WcharMbcsConvertor@@SAAEAV1@XZ DD imagerel $LN10
	DD	imagerel $LN10+109
	DD	imagerel $unwind$?getInstance@WcharMbcsConvertor@@SAAEAV1@XZ
pdata	ENDS
;	COMDAT pdata
pdata	SEGMENT
$pdata$??1WcharMbcsConvertor@@IEAA@XZ DD imagerel $LN13
	DD	imagerel $LN13+56
	DD	imagerel $unwind$??1WcharMbcsConvertor@@IEAA@XZ
pdata	ENDS
;	COMDAT pdata
pdata	SEGMENT
$pdata$??__Finstance@?1??getInstance@WcharMbcsConvertor@@SAAEAV1@XZ@YAXXZ DD imagerel $LN15
	DD	imagerel $LN15+58
	DD	imagerel $unwind$??__Finstance@?1??getInstance@WcharMbcsConvertor@@SAAEAV1@XZ@YAXXZ
pdata	ENDS
;	COMDAT pdata
pdata	SEGMENT
$pdata$?reSizeTo@Window@@UEAAXAEAUtagRECT@@@Z DD imagerel $LN4
	DD	imagerel $LN4+61
	DD	imagerel $unwind$?reSizeTo@Window@@UEAAXAEAUtagRECT@@@Z
pdata	ENDS
;	COMDAT pdata
pdata	SEGMENT
$pdata$?reSizeToWH@Window@@UEAAXAEAUtagRECT@@@Z DD imagerel $LN4
	DD	imagerel $LN4+67
	DD	imagerel $unwind$?reSizeToWH@Window@@UEAAXAEAUtagRECT@@@Z
pdata	ENDS
;	COMDAT pdata
pdata	SEGMENT
$pdata$?redraw@Window@@UEBAX_N@Z DD imagerel $LN5
	DD	imagerel $LN5+57
	DD	imagerel $unwind$?redraw@Window@@UEBAX_N@Z
pdata	ENDS
;	COMDAT pdata
pdata	SEGMENT
$pdata$?getWidth@Window@@UEBAHXZ DD imagerel $LN4
	DD	imagerel $LN4+60
	DD	imagerel $unwind$?getWidth@Window@@UEBAHXZ
pdata	ENDS
;	COMDAT pdata
pdata	SEGMENT
$pdata$?getHeight@Window@@UEBAHXZ DD imagerel $LN5
	DD	imagerel $LN5+102
	DD	imagerel $unwind$?getHeight@Window@@UEBAHXZ
pdata	ENDS
;	COMDAT pdata
pdata	SEGMENT
$pdata$?isVisible@Window@@UEBA_NXZ DD imagerel $LN4
	DD	imagerel $LN4+24
	DD	imagerel $unwind$?isVisible@Window@@UEBA_NXZ
pdata	ENDS
;	COMDAT pdata
pdata	SEGMENT
$pdata$??_GWindow@@UEAAPEAXI@Z DD imagerel $LN6
	DD	imagerel $LN6+33
	DD	imagerel $unwind$??_GWindow@@UEAAPEAXI@Z
pdata	ENDS
;	COMDAT pdata
pdata	SEGMENT
$pdata$??_GStaticDialog@@UEAAPEAXI@Z DD imagerel $LN6
	DD	imagerel $LN6+52
	DD	imagerel $unwind$??_GStaticDialog@@UEAAPEAXI@Z
pdata	ENDS
;	COMDAT pdata
pdata	SEGMENT
$pdata$??0recordedMacroStep@@QEAA@H_K0PEB_WH@Z DD imagerel $LN154
	DD	imagerel $LN154+586
	DD	imagerel $unwind$??0recordedMacroStep@@QEAA@H_K0PEB_WH@Z
pdata	ENDS
;	COMDAT pdata
pdata	SEGMENT
$pdata$?dtor$1@?0???0recordedMacroStep@@QEAA@H_K0PEB_WH@Z@4HA DD imagerel ?dtor$1@?0???0recordedMacroStep@@QEAA@H_K0PEB_WH@Z@4HA
	DD	imagerel ?dtor$1@?0???0recordedMacroStep@@QEAA@H_K0PEB_WH@Z@4HA+38
	DD	imagerel $unwind$?dtor$1@?0???0recordedMacroStep@@QEAA@H_K0PEB_WH@Z@4HA
pdata	ENDS
;	COMDAT pdata
pdata	SEGMENT
$pdata$?dtor$2@?0???0recordedMacroStep@@QEAA@H_K0PEB_WH@Z@4HA DD imagerel ?dtor$2@?0???0recordedMacroStep@@QEAA@H_K0PEB_WH@Z@4HA
	DD	imagerel ?dtor$2@?0???0recordedMacroStep@@QEAA@H_K0PEB_WH@Z@4HA+38
	DD	imagerel $unwind$?dtor$2@?0???0recordedMacroStep@@QEAA@H_K0PEB_WH@Z@4HA
pdata	ENDS
;	COMDAT pdata
pdata	SEGMENT
$pdata$??1recordedMacroStep@@QEAA@XZ DD imagerel $LN8
	DD	imagerel $LN8+22
	DD	imagerel $unwind$??1recordedMacroStep@@QEAA@XZ
pdata	ENDS
;	COMDAT pdata
pdata	SEGMENT
$pdata$??0recordedMacroStep@@QEAA@AEBU0@@Z DD imagerel $LN6
	DD	imagerel $LN6+75
	DD	imagerel $unwind$??0recordedMacroStep@@QEAA@AEBU0@@Z
pdata	ENDS
;	COMDAT pdata
pdata	SEGMENT
$pdata$??0recordedMacroStep@@QEAA@$$QEAU0@@Z DD imagerel $LN28
	DD	imagerel $LN28+81
	DD	imagerel $unwind$??0recordedMacroStep@@QEAA@$$QEAU0@@Z
pdata	ENDS
;	COMDAT pdata
pdata	SEGMENT
$pdata$??4recordedMacroStep@@QEAAAEAU0@AEBU0@@Z DD imagerel $LN14
	DD	imagerel $LN14+91
	DD	imagerel $unwind$??4recordedMacroStep@@QEAAAEAU0@AEBU0@@Z
pdata	ENDS
;	COMDAT pdata
pdata	SEGMENT
$pdata$??_GrecordedMacroStep@@QEAAPEAXI@Z DD imagerel $LN12
	DD	imagerel $LN12+61
	DD	imagerel $unwind$??_GrecordedMacroStep@@QEAAPEAXI@Z
pdata	ENDS
;	COMDAT pdata
pdata	SEGMENT
$pdata$?deallocate@?$allocator@UrecordedMacroStep@@@std@@QEAAXQEAUrecordedMacroStep@@_K@Z DD imagerel $LN20
	DD	imagerel $LN20+65
	DD	imagerel $unwind$?deallocate@?$allocator@UrecordedMacroStep@@@std@@QEAAXQEAUrecordedMacroStep@@_K@Z
pdata	ENDS
;	COMDAT pdata
pdata	SEGMENT
$pdata$?allocate@?$allocator@UrecordedMacroStep@@@std@@QEAAPEAUrecordedMacroStep@@_K@Z DD imagerel $LN30
	DD	imagerel $LN30+107
	DD	imagerel $unwind$?allocate@?$allocator@UrecordedMacroStep@@@std@@QEAAPEAUrecordedMacroStep@@_K@Z
pdata	ENDS
;	COMDAT pdata
pdata	SEGMENT
$pdata$??0?$vector@UrecordedMacroStep@@V?$allocator@UrecordedMacroStep@@@std@@@std@@QEAA@AEBV01@@Z DD imagerel $LN93
	DD	imagerel $LN93+216
	DD	imagerel $unwind$??0?$vector@UrecordedMacroStep@@V?$allocator@UrecordedMacroStep@@@std@@@std@@QEAA@AEBV01@@Z
pdata	ENDS
;	COMDAT pdata
pdata	SEGMENT
$pdata$?push_back@?$vector@UrecordedMacroStep@@V?$allocator@UrecordedMacroStep@@@std@@@std@@QEAAX$$QEAUrecordedMacroStep@@@Z DD imagerel $LN37
	DD	imagerel $LN37+106
	DD	imagerel $unwind$?push_back@?$vector@UrecordedMacroStep@@V?$allocator@UrecordedMacroStep@@@std@@@std@@QEAAX$$QEAUrecordedMacroStep@@@Z
pdata	ENDS
;	COMDAT pdata
pdata	SEGMENT
$pdata$??4?$vector@UrecordedMacroStep@@V?$allocator@UrecordedMacroStep@@@std@@@std@@QEAAAEAV01@AEBV01@@Z DD imagerel $LN10
	DD	imagerel $LN10+41
	DD	imagerel $unwind$??4?$vector@UrecordedMacroStep@@V?$allocator@UrecordedMacroStep@@@std@@@std@@QEAAAEAV01@AEBV01@@Z
pdata	ENDS
;	COMDAT pdata
pdata	SEGMENT
$pdata$?_Clear_and_reserve_geometric@?$vector@UrecordedMacroStep@@V?$allocator@UrecordedMacroStep@@@std@@@std@@AEAAX_K@Z DD imagerel $LN56
	DD	imagerel $LN56+265
	DD	imagerel $unwind$?_Clear_and_reserve_geometric@?$vector@UrecordedMacroStep@@V?$allocator@UrecordedMacroStep@@@std@@@std@@AEAAX_K@Z
pdata	ENDS
;	COMDAT pdata
pdata	SEGMENT
$pdata$?_Destroy@?$vector@UrecordedMacroStep@@V?$allocator@UrecordedMacroStep@@@std@@@std@@AEAAXPEAUrecordedMacroStep@@0@Z DD imagerel $LN25
	DD	imagerel $LN25+66
	DD	imagerel $unwind$?_Destroy@?$vector@UrecordedMacroStep@@V?$allocator@UrecordedMacroStep@@@std@@@std@@AEAAXPEAUrecordedMacroStep@@0@Z
pdata	ENDS
;	COMDAT pdata
pdata	SEGMENT
$pdata$?_Buy_raw@?$vector@UrecordedMacroStep@@V?$allocator@UrecordedMacroStep@@@std@@@std@@AEAAX_K@Z DD imagerel $LN4
	DD	imagerel $LN4+50
	DD	imagerel $unwind$?_Buy_raw@?$vector@UrecordedMacroStep@@V?$allocator@UrecordedMacroStep@@@std@@@std@@AEAAX_K@Z
pdata	ENDS
;	COMDAT pdata
pdata	SEGMENT
$pdata$?_Change_array@?$vector@UrecordedMacroStep@@V?$allocator@UrecordedMacroStep@@@std@@@std@@AEAAXQEAUrecordedMacroStep@@_K1@Z DD imagerel $LN46
	DD	imagerel $LN46+198
	DD	imagerel $unwind$?_Change_array@?$vector@UrecordedMacroStep@@V?$allocator@UrecordedMacroStep@@@std@@@std@@AEAAXQEAUrecordedMacroStep@@_K1@Z
pdata	ENDS
;	COMDAT pdata
pdata	SEGMENT
$pdata$?_Tidy@?$vector@UrecordedMacroStep@@V?$allocator@UrecordedMacroStep@@@std@@@std@@AEAAXXZ DD imagerel $LN46
	DD	imagerel $LN46+161
	DD	imagerel $unwind$?_Tidy@?$vector@UrecordedMacroStep@@V?$allocator@UrecordedMacroStep@@@std@@@std@@AEAAXXZ
pdata	ENDS
;	COMDAT pdata
pdata	SEGMENT
$pdata$?_Xlength@?$vector@UrecordedMacroStep@@V?$allocator@UrecordedMacroStep@@@std@@@std@@CAXXZ DD imagerel $LN4
	DD	imagerel $LN4+17
	DD	imagerel $unwind$?_Xlength@?$vector@UrecordedMacroStep@@V?$allocator@UrecordedMacroStep@@@std@@@std@@CAXXZ
pdata	ENDS
;	COMDAT pdata
pdata	SEGMENT
$pdata$?deallocate@?$allocator@PEAUHWND__@@@std@@QEAAXQEAPEAUHWND__@@_K@Z DD imagerel $LN20
	DD	imagerel $LN20+66
	DD	imagerel $unwind$?deallocate@?$allocator@PEAUHWND__@@@std@@QEAAXQEAPEAUHWND__@@_K@Z
pdata	ENDS
;	COMDAT pdata
pdata	SEGMENT
$pdata$?allocate@?$allocator@PEAUHWND__@@@std@@QEAAPEAPEAUHWND__@@_K@Z DD imagerel $LN30
	DD	imagerel $LN30+111
	DD	imagerel $unwind$?allocate@?$allocator@PEAUHWND__@@@std@@QEAAPEAPEAUHWND__@@_K@Z
pdata	ENDS
;	COMDAT pdata
pdata	SEGMENT
$pdata$?erase@?$vector@PEAUHWND__@@V?$allocator@PEAUHWND__@@@std@@@std@@QEAA?AV?$_Vector_iterator@V?$_Vector_val@U?$_Simple_types@PEAUHWND__@@@std@@@std@@@2@V?$_Vector_const_iterator@V?$_Vector_val@U?$_Simple_types@PEAUHWND__@@@std@@@std@@@2@@Z DD imagerel $LN15
	DD	imagerel $LN15+70
	DD	imagerel $unwind$?erase@?$vector@PEAUHWND__@@V?$allocator@PEAUHWND__@@@std@@@std@@QEAA?AV?$_Vector_iterator@V?$_Vector_val@U?$_Simple_types@PEAUHWND__@@@std@@@std@@@2@V?$_Vector_const_iterator@V?$_Vector_val@U?$_Simple_types@PEAUHWND__@@@std@@@std@@@2@@Z
pdata	ENDS
;	COMDAT pdata
pdata	SEGMENT
$pdata$?_Umove@?$vector@PEAUHWND__@@V?$allocator@PEAUHWND__@@@std@@@std@@AEAAPEAPEAUHWND__@@PEAPEAU3@00@Z DD imagerel $LN18
	DD	imagerel $LN18+49
	DD	imagerel $unwind$?_Umove@?$vector@PEAUHWND__@@V?$allocator@PEAUHWND__@@@std@@@std@@AEAAPEAPEAUHWND__@@PEAPEAU3@00@Z
pdata	ENDS
;	COMDAT pdata
pdata	SEGMENT
$pdata$?_Change_array@?$vector@PEAUHWND__@@V?$allocator@PEAUHWND__@@@std@@@std@@AEAAXQEAPEAUHWND__@@_K1@Z DD imagerel $LN24
	DD	imagerel $LN24+135
	DD	imagerel $unwind$?_Change_array@?$vector@PEAUHWND__@@V?$allocator@PEAUHWND__@@@std@@@std@@AEAAXQEAPEAUHWND__@@_K1@Z
pdata	ENDS
;	COMDAT pdata
pdata	SEGMENT
$pdata$?_Xlength@?$vector@PEAUHWND__@@V?$allocator@PEAUHWND__@@@std@@@std@@CAXXZ DD imagerel $LN4
	DD	imagerel $LN4+17
	DD	imagerel $unwind$?_Xlength@?$vector@PEAUHWND__@@V?$allocator@PEAUHWND__@@@std@@@std@@CAXXZ
pdata	ENDS
;	COMDAT pdata
pdata	SEGMENT
$pdata$?display@ContextMenu@@QEBAXAEBUtagPOINT@@@Z DD imagerel $LN4
	DD	imagerel $LN4+49
	DD	imagerel $unwind$?display@ContextMenu@@QEBAXAEBUtagPOINT@@@Z
pdata	ENDS
;	COMDAT pdata
pdata	SEGMENT
$pdata$?deallocate@?$allocator@PEAUHMENU__@@@std@@QEAAXQEAPEAUHMENU__@@_K@Z DD imagerel $LN20
	DD	imagerel $LN20+66
	DD	imagerel $unwind$?deallocate@?$allocator@PEAUHMENU__@@@std@@QEAAXQEAPEAUHMENU__@@_K@Z
pdata	ENDS
;	COMDAT pdata
pdata	SEGMENT
$pdata$??1?$vector@PEAUHMENU__@@V?$allocator@PEAUHMENU__@@@std@@@std@@QEAA@XZ DD imagerel $LN28
	DD	imagerel $LN28+91
	DD	imagerel $unwind$??1?$vector@PEAUHMENU__@@V?$allocator@PEAUHMENU__@@@std@@@std@@QEAA@XZ
pdata	ENDS
;	COMDAT pdata
pdata	SEGMENT
$pdata$?_Tidy@?$vector@PEAUHMENU__@@V?$allocator@PEAUHMENU__@@@std@@@std@@AEAAXXZ DD imagerel $LN25
	DD	imagerel $LN25+91
	DD	imagerel $unwind$?_Tidy@?$vector@PEAUHMENU__@@V?$allocator@PEAUHMENU__@@@std@@@std@@AEAAXXZ
pdata	ENDS
;	COMDAT pdata
pdata	SEGMENT
$pdata$??0ContextMenu@@QEAA@XZ DD imagerel $LN12
	DD	imagerel $LN12+30
	DD	imagerel $unwind$??0ContextMenu@@QEAA@XZ
pdata	ENDS
;	COMDAT pdata
pdata	SEGMENT
$pdata$?deallocate@?$allocator@_K@std@@QEAAXQEA_K_K@Z DD imagerel $LN20
	DD	imagerel $LN20+66
	DD	imagerel $unwind$?deallocate@?$allocator@_K@std@@QEAAXQEA_K_K@Z
pdata	ENDS
;	COMDAT pdata
pdata	SEGMENT
$pdata$??1?$vector@_KV?$allocator@_K@std@@@std@@QEAA@XZ DD imagerel $LN28
	DD	imagerel $LN28+91
	DD	imagerel $unwind$??1?$vector@_KV?$allocator@_K@std@@@std@@QEAA@XZ
pdata	ENDS
;	COMDAT pdata
pdata	SEGMENT
$pdata$?_Tidy@?$vector@_KV?$allocator@_K@std@@@std@@AEAAXXZ DD imagerel $LN25
	DD	imagerel $LN25+91
	DD	imagerel $unwind$?_Tidy@?$vector@_KV?$allocator@_K@std@@@std@@AEAAXXZ
pdata	ENDS
;	COMDAT pdata
pdata	SEGMENT
$pdata$??1sessionFileInfo@@QEAA@XZ DD imagerel $LN66
	DD	imagerel $LN66+243
	DD	imagerel $unwind$??1sessionFileInfo@@QEAA@XZ
pdata	ENDS
;	COMDAT pdata
pdata	SEGMENT
$pdata$??_GsessionFileInfo@@QEAAPEAXI@Z DD imagerel $LN70
	DD	imagerel $LN70+278
	DD	imagerel $unwind$??_GsessionFileInfo@@QEAAPEAXI@Z
pdata	ENDS
;	COMDAT pdata
pdata	SEGMENT
$pdata$?deallocate@?$allocator@UsessionFileInfo@@@std@@QEAAXQEAUsessionFileInfo@@_K@Z DD imagerel $LN20
	DD	imagerel $LN20+65
	DD	imagerel $unwind$?deallocate@?$allocator@UsessionFileInfo@@@std@@QEAAXQEAUsessionFileInfo@@_K@Z
pdata	ENDS
;	COMDAT pdata
pdata	SEGMENT
$pdata$??1?$vector@UsessionFileInfo@@V?$allocator@UsessionFileInfo@@@std@@@std@@QEAA@XZ DD imagerel $LN41
	DD	imagerel $LN41+193
	DD	imagerel $unwind$??1?$vector@UsessionFileInfo@@V?$allocator@UsessionFileInfo@@@std@@@std@@QEAA@XZ
pdata	ENDS
;	COMDAT pdata
pdata	SEGMENT
$pdata$?_Destroy@?$vector@UsessionFileInfo@@V?$allocator@UsessionFileInfo@@@std@@@std@@AEAAXPEAUsessionFileInfo@@0@Z DD imagerel $LN16
	DD	imagerel $LN16+54
	DD	imagerel $unwind$?_Destroy@?$vector@UsessionFileInfo@@V?$allocator@UsessionFileInfo@@@std@@@std@@AEAAXPEAUsessionFileInfo@@0@Z
pdata	ENDS
;	COMDAT pdata
pdata	SEGMENT
$pdata$?_Tidy@?$vector@UsessionFileInfo@@V?$allocator@UsessionFileInfo@@@std@@@std@@AEAAXXZ DD imagerel $LN38
	DD	imagerel $LN38+193
	DD	imagerel $unwind$?_Tidy@?$vector@UsessionFileInfo@@V?$allocator@UsessionFileInfo@@@std@@@std@@AEAAXXZ
pdata	ENDS
;	COMDAT pdata
pdata	SEGMENT
$pdata$?deallocate@?$allocator@V?$basic_string@_WU?$char_traits@_W@std@@V?$allocator@_W@2@@std@@@std@@QEAAXQEAV?$basic_string@_WU?$char_traits@_W@std@@V?$allocator@_W@2@@2@_K@Z DD imagerel $LN20
	DD	imagerel $LN20+65
	DD	imagerel $unwind$?deallocate@?$allocator@V?$basic_string@_WU?$char_traits@_W@std@@V?$allocator@_W@2@@std@@@std@@QEAAXQEAV?$basic_string@_WU?$char_traits@_W@std@@V?$allocator@_W@2@@2@_K@Z
pdata	ENDS
;	COMDAT pdata
pdata	SEGMENT
$pdata$?_Destroy@?$vector@V?$basic_string@_WU?$char_traits@_W@std@@V?$allocator@_W@2@@std@@V?$allocator@V?$basic_string@_WU?$char_traits@_W@std@@V?$allocator@_W@2@@std@@@2@@std@@AEAAXPEAV?$basic_string@_WU?$char_traits@_W@std@@V?$allocator@_W@2@@2@0@Z DD imagerel $LN22
	DD	imagerel $LN22+49
	DD	imagerel $unwind$?_Destroy@?$vector@V?$basic_string@_WU?$char_traits@_W@std@@V?$allocator@_W@2@@std@@V?$allocator@V?$basic_string@_WU?$char_traits@_W@std@@V?$allocator@_W@2@@std@@@2@@std@@AEAAXPEAV?$basic_string@_WU?$char_traits@_W@std@@V?$allocator@_W@2@@2@0@Z
pdata	ENDS
;	COMDAT pdata
pdata	SEGMENT
$pdata$?_Tidy@?$vector@V?$basic_string@_WU?$char_traits@_W@std@@V?$allocator@_W@2@@std@@V?$allocator@V?$basic_string@_WU?$char_traits@_W@std@@V?$allocator@_W@2@@std@@@2@@std@@AEAAXXZ DD imagerel $LN43
	DD	imagerel $LN43+142
	DD	imagerel $unwind$?_Tidy@?$vector@V?$basic_string@_WU?$char_traits@_W@std@@V?$allocator@_W@2@@std@@V?$allocator@V?$basic_string@_WU?$char_traits@_W@std@@V?$allocator@_W@2@@std@@@2@@std@@AEAAXXZ
pdata	ENDS
;	COMDAT pdata
pdata	SEGMENT
$pdata$??0Session@@QEAA@XZ DD imagerel $LN37
	DD	imagerel $LN37+84
	DD	imagerel $unwind$??0Session@@QEAA@XZ
pdata	ENDS
;	COMDAT pdata
pdata	SEGMENT
$pdata$??1Session@@QEAA@XZ DD imagerel $LN13
	DD	imagerel $LN13+57
	DD	imagerel $unwind$??1Session@@QEAA@XZ
pdata	ENDS
;	COMDAT pdata
pdata	SEGMENT
$pdata$??4CmdLineParamsDTO@@QEAAAEAU0@AEBU0@@Z DD imagerel $LN15
	DD	imagerel $LN15+110
	DD	imagerel $unwind$??4CmdLineParamsDTO@@QEAAAEAU0@AEBU0@@Z
pdata	ENDS
;	COMDAT pdata
pdata	SEGMENT
$pdata$??1PluginDlgDockingInfo@@QEAA@XZ DD imagerel $LN8
	DD	imagerel $LN8+18
	DD	imagerel $unwind$??1PluginDlgDockingInfo@@QEAA@XZ
pdata	ENDS
;	COMDAT pdata
pdata	SEGMENT
$pdata$??0PluginDlgDockingInfo@@QEAA@AEBU0@@Z DD imagerel $LN6
	DD	imagerel $LN6+66
	DD	imagerel $unwind$??0PluginDlgDockingInfo@@QEAA@AEBU0@@Z
pdata	ENDS
;	COMDAT pdata
pdata	SEGMENT
$pdata$??_GPluginDlgDockingInfo@@QEAAPEAXI@Z DD imagerel $LN12
	DD	imagerel $LN12+57
	DD	imagerel $unwind$??_GPluginDlgDockingInfo@@QEAAPEAXI@Z
pdata	ENDS
;	COMDAT pdata
pdata	SEGMENT
$pdata$?deallocate@?$allocator@UFloatingWindowInfo@@@std@@QEAAXQEAUFloatingWindowInfo@@_K@Z DD imagerel $LN20
	DD	imagerel $LN20+66
	DD	imagerel $unwind$?deallocate@?$allocator@UFloatingWindowInfo@@@std@@QEAAXQEAUFloatingWindowInfo@@_K@Z
pdata	ENDS
;	COMDAT pdata
pdata	SEGMENT
$pdata$?allocate@?$allocator@UFloatingWindowInfo@@@std@@QEAAPEAUFloatingWindowInfo@@_K@Z DD imagerel $LN30
	DD	imagerel $LN30+115
	DD	imagerel $unwind$?allocate@?$allocator@UFloatingWindowInfo@@@std@@QEAAPEAUFloatingWindowInfo@@_K@Z
pdata	ENDS
;	COMDAT pdata
pdata	SEGMENT
$pdata$??0?$vector@UFloatingWindowInfo@@V?$allocator@UFloatingWindowInfo@@@std@@@std@@QEAA@AEBV01@@Z DD imagerel $LN65
	DD	imagerel $LN65+276
	DD	imagerel $unwind$??0?$vector@UFloatingWindowInfo@@V?$allocator@UFloatingWindowInfo@@@std@@@std@@QEAA@AEBV01@@Z
pdata	ENDS
;	COMDAT pdata
pdata	SEGMENT
$pdata$?_Buy_raw@?$vector@UFloatingWindowInfo@@V?$allocator@UFloatingWindowInfo@@@std@@@std@@AEAAX_K@Z DD imagerel $LN33
	DD	imagerel $LN33+139
	DD	imagerel $unwind$?_Buy_raw@?$vector@UFloatingWindowInfo@@V?$allocator@UFloatingWindowInfo@@@std@@@std@@AEAAX_K@Z
pdata	ENDS
;	COMDAT pdata
pdata	SEGMENT
$pdata$?_Tidy@?$vector@UFloatingWindowInfo@@V?$allocator@UFloatingWindowInfo@@@std@@@std@@AEAAXXZ DD imagerel $LN25
	DD	imagerel $LN25+122
	DD	imagerel $unwind$?_Tidy@?$vector@UFloatingWindowInfo@@V?$allocator@UFloatingWindowInfo@@@std@@@std@@AEAAXXZ
pdata	ENDS
;	COMDAT pdata
pdata	SEGMENT
$pdata$?deallocate@?$allocator@UPluginDlgDockingInfo@@@std@@QEAAXQEAUPluginDlgDockingInfo@@_K@Z DD imagerel $LN20
	DD	imagerel $LN20+66
	DD	imagerel $unwind$?deallocate@?$allocator@UPluginDlgDockingInfo@@@std@@QEAAXQEAUPluginDlgDockingInfo@@_K@Z
pdata	ENDS
;	COMDAT pdata
pdata	SEGMENT
$pdata$?allocate@?$allocator@UPluginDlgDockingInfo@@@std@@QEAAPEAUPluginDlgDockingInfo@@_K@Z DD imagerel $LN30
	DD	imagerel $LN30+111
	DD	imagerel $unwind$?allocate@?$allocator@UPluginDlgDockingInfo@@@std@@QEAAPEAUPluginDlgDockingInfo@@_K@Z
pdata	ENDS
;	COMDAT pdata
pdata	SEGMENT
$pdata$??0?$vector@UPluginDlgDockingInfo@@V?$allocator@UPluginDlgDockingInfo@@@std@@@std@@QEAA@AEBV01@@Z DD imagerel $LN121
	DD	imagerel $LN121+336
	DD	imagerel $unwind$??0?$vector@UPluginDlgDockingInfo@@V?$allocator@UPluginDlgDockingInfo@@@std@@@std@@QEAA@AEBV01@@Z
pdata	ENDS
;	COMDAT pdata
pdata	SEGMENT
$pdata$?_Destroy@?$vector@UPluginDlgDockingInfo@@V?$allocator@UPluginDlgDockingInfo@@@std@@@std@@AEAAXPEAUPluginDlgDockingInfo@@0@Z DD imagerel $LN25
	DD	imagerel $LN25+65
	DD	imagerel $unwind$?_Destroy@?$vector@UPluginDlgDockingInfo@@V?$allocator@UPluginDlgDockingInfo@@@std@@@std@@AEAAXPEAUPluginDlgDockingInfo@@0@Z
pdata	ENDS
;	COMDAT pdata
pdata	SEGMENT
$pdata$?_Buy_raw@?$vector@UPluginDlgDockingInfo@@V?$allocator@UPluginDlgDockingInfo@@@std@@@std@@AEAAX_K@Z DD imagerel $LN33
	DD	imagerel $LN33+135
	DD	imagerel $unwind$?_Buy_raw@?$vector@UPluginDlgDockingInfo@@V?$allocator@UPluginDlgDockingInfo@@@std@@@std@@AEAAX_K@Z
pdata	ENDS
;	COMDAT pdata
pdata	SEGMENT
$pdata$?_Tidy@?$vector@UPluginDlgDockingInfo@@V?$allocator@UPluginDlgDockingInfo@@@std@@@std@@AEAAXXZ DD imagerel $LN46
	DD	imagerel $LN46+191
	DD	imagerel $unwind$?_Tidy@?$vector@UPluginDlgDockingInfo@@V?$allocator@UPluginDlgDockingInfo@@@std@@@std@@AEAAXXZ
pdata	ENDS
;	COMDAT pdata
pdata	SEGMENT
$pdata$?deallocate@?$allocator@UContainerTabInfo@@@std@@QEAAXQEAUContainerTabInfo@@_K@Z DD imagerel $LN20
	DD	imagerel $LN20+66
	DD	imagerel $unwind$?deallocate@?$allocator@UContainerTabInfo@@@std@@QEAAXQEAUContainerTabInfo@@_K@Z
pdata	ENDS
;	COMDAT pdata
pdata	SEGMENT
$pdata$?allocate@?$allocator@UContainerTabInfo@@@std@@QEAAPEAUContainerTabInfo@@_K@Z DD imagerel $LN30
	DD	imagerel $LN30+111
	DD	imagerel $unwind$?allocate@?$allocator@UContainerTabInfo@@@std@@QEAAPEAUContainerTabInfo@@_K@Z
pdata	ENDS
;	COMDAT pdata
pdata	SEGMENT
$pdata$??0?$vector@UContainerTabInfo@@V?$allocator@UContainerTabInfo@@@std@@@std@@QEAA@AEBV01@@Z DD imagerel $LN63
	DD	imagerel $LN63+238
	DD	imagerel $unwind$??0?$vector@UContainerTabInfo@@V?$allocator@UContainerTabInfo@@@std@@@std@@QEAA@AEBV01@@Z
pdata	ENDS
;	COMDAT pdata
pdata	SEGMENT
$pdata$??1?$vector@UContainerTabInfo@@V?$allocator@UContainerTabInfo@@@std@@@std@@QEAA@XZ DD imagerel $LN28
	DD	imagerel $LN28+91
	DD	imagerel $unwind$??1?$vector@UContainerTabInfo@@V?$allocator@UContainerTabInfo@@@std@@@std@@QEAA@XZ
pdata	ENDS
;	COMDAT pdata
pdata	SEGMENT
$pdata$?_Buy_raw@?$vector@UContainerTabInfo@@V?$allocator@UContainerTabInfo@@@std@@@std@@AEAAX_K@Z DD imagerel $LN33
	DD	imagerel $LN33+135
	DD	imagerel $unwind$?_Buy_raw@?$vector@UContainerTabInfo@@V?$allocator@UContainerTabInfo@@@std@@@std@@AEAAX_K@Z
pdata	ENDS
;	COMDAT pdata
pdata	SEGMENT
$pdata$?_Tidy@?$vector@UContainerTabInfo@@V?$allocator@UContainerTabInfo@@@std@@@std@@AEAAXXZ DD imagerel $LN25
	DD	imagerel $LN25+91
	DD	imagerel $unwind$?_Tidy@?$vector@UContainerTabInfo@@V?$allocator@UContainerTabInfo@@@std@@@std@@AEAAXXZ
pdata	ENDS
;	COMDAT pdata
pdata	SEGMENT
$pdata$??1DockingManagerData@@QEAA@XZ DD imagerel $LN38
	DD	imagerel $LN38+123
	DD	imagerel $unwind$??1DockingManagerData@@QEAA@XZ
pdata	ENDS
;	COMDAT pdata
pdata	SEGMENT
$pdata$??0DockingManagerData@@QEAA@AEBU0@@Z DD imagerel $LN247
	DD	imagerel $LN247+853
	DD	imagerel $unwind$??0DockingManagerData@@QEAA@AEBU0@@Z
pdata	ENDS
;	COMDAT pdata
pdata	SEGMENT
$pdata$?getStylerIndexByName@StyleArray@@QEBAHPEB_W@Z DD imagerel $LN14
	DD	imagerel $LN14+108
	DD	imagerel $unwind$?getStylerIndexByName@StyleArray@@QEBAHPEB_W@Z
pdata	ENDS
;	COMDAT pdata
pdata	SEGMENT
$pdata$??1LangMenuItem@@QEAA@XZ DD imagerel $LN8
	DD	imagerel $LN8+22
	DD	imagerel $unwind$??1LangMenuItem@@QEAA@XZ
pdata	ENDS
;	COMDAT pdata
pdata	SEGMENT
$pdata$??0LangMenuItem@@QEAA@AEBU0@@Z DD imagerel $LN6
	DD	imagerel $LN6+46
	DD	imagerel $unwind$??0LangMenuItem@@QEAA@AEBU0@@Z
pdata	ENDS
;	COMDAT pdata
pdata	SEGMENT
$pdata$??_GLangMenuItem@@QEAAPEAXI@Z DD imagerel $LN12
	DD	imagerel $LN12+61
	DD	imagerel $unwind$??_GLangMenuItem@@QEAAPEAXI@Z
pdata	ENDS
;	COMDAT pdata
pdata	SEGMENT
$pdata$??1PrintSettings@@QEAA@XZ DD imagerel $LN29
	DD	imagerel $LN29+109
	DD	imagerel $unwind$??1PrintSettings@@QEAA@XZ
pdata	ENDS
;	COMDAT pdata
pdata	SEGMENT
$pdata$??0PrintSettings@@QEAA@AEBU0@@Z DD imagerel $LN13
	DD	imagerel $LN13+244
	DD	imagerel $unwind$??0PrintSettings@@QEAA@AEBU0@@Z
pdata	ENDS
;	COMDAT pdata
pdata	SEGMENT
$pdata$?deallocate@?$allocator@U?$pair@DD@std@@@std@@QEAAXQEAU?$pair@DD@2@_K@Z DD imagerel $LN20
	DD	imagerel $LN20+62
	DD	imagerel $unwind$?deallocate@?$allocator@U?$pair@DD@std@@@std@@QEAAXQEAU?$pair@DD@2@_K@Z
pdata	ENDS
;	COMDAT pdata
pdata	SEGMENT
$pdata$?allocate@?$allocator@U?$pair@DD@std@@@std@@QEAAPEAU?$pair@DD@2@_K@Z DD imagerel $LN30
	DD	imagerel $LN30+107
	DD	imagerel $unwind$?allocate@?$allocator@U?$pair@DD@std@@@std@@QEAAPEAU?$pair@DD@2@_K@Z
pdata	ENDS
;	COMDAT pdata
pdata	SEGMENT
$pdata$??0?$vector@U?$pair@DD@std@@V?$allocator@U?$pair@DD@std@@@2@@std@@QEAA@AEBV01@@Z DD imagerel $LN63
	DD	imagerel $LN63+238
	DD	imagerel $unwind$??0?$vector@U?$pair@DD@std@@V?$allocator@U?$pair@DD@std@@@2@@std@@QEAA@AEBV01@@Z
pdata	ENDS
;	COMDAT pdata
pdata	SEGMENT
$pdata$??1?$vector@U?$pair@DD@std@@V?$allocator@U?$pair@DD@std@@@2@@std@@QEAA@XZ DD imagerel $LN28
	DD	imagerel $LN28+93
	DD	imagerel $unwind$??1?$vector@U?$pair@DD@std@@V?$allocator@U?$pair@DD@std@@@2@@std@@QEAA@XZ
pdata	ENDS
;	COMDAT pdata
pdata	SEGMENT
$pdata$?_Buy_raw@?$vector@U?$pair@DD@std@@V?$allocator@U?$pair@DD@std@@@2@@std@@AEAAX_K@Z DD imagerel $LN33
	DD	imagerel $LN33+131
	DD	imagerel $unwind$?_Buy_raw@?$vector@U?$pair@DD@std@@V?$allocator@U?$pair@DD@std@@@2@@std@@AEAAX_K@Z
pdata	ENDS
;	COMDAT pdata
pdata	SEGMENT
$pdata$?_Tidy@?$vector@U?$pair@DD@std@@V?$allocator@U?$pair@DD@std@@@2@@std@@AEAAXXZ DD imagerel $LN25
	DD	imagerel $LN25+93
	DD	imagerel $unwind$?_Tidy@?$vector@U?$pair@DD@std@@V?$allocator@U?$pair@DD@std@@@2@@std@@AEAAXXZ
pdata	ENDS
;	COMDAT pdata
pdata	SEGMENT
$pdata$??1MatchedPairConf@@QEAA@XZ DD imagerel $LN57
	DD	imagerel $LN57+186
	DD	imagerel $unwind$??1MatchedPairConf@@QEAA@XZ
pdata	ENDS
;	COMDAT pdata
pdata	SEGMENT
$pdata$??0MatchedPairConf@@QEAA@AEBV0@@Z DD imagerel $LN7
	DD	imagerel $LN7+97
	DD	imagerel $unwind$??0MatchedPairConf@@QEAA@AEBV0@@Z
pdata	ENDS
;	COMDAT pdata
pdata	SEGMENT
$pdata$?deallocate@?$allocator@ULangMenuItem@@@std@@QEAAXQEAULangMenuItem@@_K@Z DD imagerel $LN20
	DD	imagerel $LN20+66
	DD	imagerel $unwind$?deallocate@?$allocator@ULangMenuItem@@@std@@QEAAXQEAULangMenuItem@@_K@Z
pdata	ENDS
;	COMDAT pdata
pdata	SEGMENT
$pdata$?allocate@?$allocator@ULangMenuItem@@@std@@QEAAPEAULangMenuItem@@_K@Z DD imagerel $LN30
	DD	imagerel $LN30+115
	DD	imagerel $unwind$?allocate@?$allocator@ULangMenuItem@@@std@@QEAAPEAULangMenuItem@@_K@Z
pdata	ENDS
;	COMDAT pdata
pdata	SEGMENT
$pdata$??0?$vector@ULangMenuItem@@V?$allocator@ULangMenuItem@@@std@@@std@@QEAA@AEBV01@@Z DD imagerel $LN121
	DD	imagerel $LN121+319
	DD	imagerel $unwind$??0?$vector@ULangMenuItem@@V?$allocator@ULangMenuItem@@@std@@@std@@QEAA@AEBV01@@Z
pdata	ENDS
;	COMDAT pdata
pdata	SEGMENT
$pdata$?_Destroy@?$vector@ULangMenuItem@@V?$allocator@ULangMenuItem@@@std@@@std@@AEAAXPEAULangMenuItem@@0@Z DD imagerel $LN25
	DD	imagerel $LN25+66
	DD	imagerel $unwind$?_Destroy@?$vector@ULangMenuItem@@V?$allocator@ULangMenuItem@@@std@@@std@@AEAAXPEAULangMenuItem@@0@Z
pdata	ENDS
;	COMDAT pdata
pdata	SEGMENT
$pdata$?_Buy_raw@?$vector@ULangMenuItem@@V?$allocator@ULangMenuItem@@@std@@@std@@AEAAX_K@Z DD imagerel $LN33
	DD	imagerel $LN33+139
	DD	imagerel $unwind$?_Buy_raw@?$vector@ULangMenuItem@@V?$allocator@ULangMenuItem@@@std@@@std@@AEAAX_K@Z
pdata	ENDS
;	COMDAT pdata
pdata	SEGMENT
$pdata$?_Tidy@?$vector@ULangMenuItem@@V?$allocator@ULangMenuItem@@@std@@@std@@AEAAXXZ DD imagerel $LN46
	DD	imagerel $LN46+192
	DD	imagerel $unwind$?_Tidy@?$vector@ULangMenuItem@@V?$allocator@ULangMenuItem@@@std@@@std@@AEAAXXZ
pdata	ENDS
;	COMDAT pdata
pdata	SEGMENT
$pdata$??1NppGUI@@QEAA@XZ DD imagerel $LN64
	DD	imagerel $LN64+265
	DD	imagerel $unwind$??1NppGUI@@QEAA@XZ
pdata	ENDS
;	COMDAT pdata
pdata	SEGMENT
$pdata$??0NppGUI@@QEAA@AEBU0@@Z DD imagerel $LN153
	DD	imagerel $LN153+1867
	DD	imagerel $unwind$??0NppGUI@@QEAA@AEBU0@@Z
pdata	ENDS
;	COMDAT pdata
pdata	SEGMENT
$pdata$?getInstancePointer@NppParameters@@CAPEAV1@XZ DD imagerel $LN13
	DD	imagerel $LN13+135
	DD	imagerel $unwind$?getInstancePointer@NppParameters@@CAPEAV1@XZ
pdata	ENDS
;	COMDAT pdata
pdata	SEGMENT
$pdata$?dtor$1@?0??getInstancePointer@NppParameters@@CAPEAV1@XZ@4HA DD imagerel ?dtor$1@?0??getInstancePointer@NppParameters@@CAPEAV1@XZ@4HA
	DD	imagerel ?dtor$1@?0??getInstancePointer@NppParameters@@CAPEAV1@XZ@4HA+29
	DD	imagerel $unwind$?dtor$1@?0??getInstancePointer@NppParameters@@CAPEAV1@XZ@4HA
pdata	ENDS
;	COMDAT pdata
pdata	SEGMENT
$pdata$?getInstance@NppParameters@@SAAEAV1@XZ DD imagerel $LN15
	DD	imagerel $LN15+135
	DD	imagerel $unwind$?getInstance@NppParameters@@SAAEAV1@XZ
pdata	ENDS
;	COMDAT pdata
pdata	SEGMENT
$pdata$?dtor$1@?0??getInstance@NppParameters@@SAAEAV1@XZ@4HA DD imagerel ?dtor$1@?0??getInstance@NppParameters@@SAAEAV1@XZ@4HA
	DD	imagerel ?dtor$1@?0??getInstance@NppParameters@@SAAEAV1@XZ@4HA+29
	DD	imagerel $unwind$?dtor$1@?0??getInstance@NppParameters@@SAAEAV1@XZ@4HA
pdata	ENDS
;	COMDAT pdata
pdata	SEGMENT
$pdata$?getWingupFullPath@NppParameters@@QEBA?AV?$basic_string@_WU?$char_traits@_W@std@@V?$allocator@_W@2@@std@@XZ DD imagerel $LN7
	DD	imagerel $LN7+55
	DD	imagerel $unwind$?getWingupFullPath@NppParameters@@QEBA?AV?$basic_string@_WU?$char_traits@_W@std@@V?$allocator@_W@2@@std@@XZ
pdata	ENDS
;	COMDAT pdata
pdata	SEGMENT
$pdata$?dtor$0@?0??getWingupFullPath@NppParameters@@QEBA?AV?$basic_string@_WU?$char_traits@_W@std@@V?$allocator@_W@2@@std@@XZ@4HA DD imagerel ?dtor$0@?0??getWingupFullPath@NppParameters@@QEBA?AV?$basic_string@_WU?$char_traits@_W@std@@V?$allocator@_W@2@@std@@XZ@4HA
	DD	imagerel ?dtor$0@?0??getWingupFullPath@NppParameters@@QEBA?AV?$basic_string@_WU?$char_traits@_W@std@@V?$allocator@_W@2@@std@@XZ@4HA+38
	DD	imagerel $unwind$?dtor$0@?0??getWingupFullPath@NppParameters@@QEBA?AV?$basic_string@_WU?$char_traits@_W@std@@V?$allocator@_W@2@@std@@XZ@4HA
pdata	ENDS
;	COMDAT pdata
pdata	SEGMENT
$pdata$?getWingupParams@NppParameters@@QEBA?AV?$basic_string@_WU?$char_traits@_W@std@@V?$allocator@_W@2@@std@@XZ DD imagerel $LN7
	DD	imagerel $LN7+55
	DD	imagerel $unwind$?getWingupParams@NppParameters@@QEBA?AV?$basic_string@_WU?$char_traits@_W@std@@V?$allocator@_W@2@@std@@XZ
pdata	ENDS
;	COMDAT pdata
pdata	SEGMENT
$pdata$?dtor$0@?0??getWingupParams@NppParameters@@QEBA?AV?$basic_string@_WU?$char_traits@_W@std@@V?$allocator@_W@2@@std@@XZ@4HA DD imagerel ?dtor$0@?0??getWingupParams@NppParameters@@QEBA?AV?$basic_string@_WU?$char_traits@_W@std@@V?$allocator@_W@2@@std@@XZ@4HA
	DD	imagerel ?dtor$0@?0??getWingupParams@NppParameters@@QEBA?AV?$basic_string@_WU?$char_traits@_W@std@@V?$allocator@_W@2@@std@@XZ@4HA+38
	DD	imagerel $unwind$?dtor$0@?0??getWingupParams@NppParameters@@QEBA?AV?$basic_string@_WU?$char_traits@_W@std@@V?$allocator@_W@2@@std@@XZ@4HA
pdata	ENDS
;	COMDAT pdata
pdata	SEGMENT
$pdata$?getWingupDir@NppParameters@@QEBA?AV?$basic_string@_WU?$char_traits@_W@std@@V?$allocator@_W@2@@std@@XZ DD imagerel $LN7
	DD	imagerel $LN7+55
	DD	imagerel $unwind$?getWingupDir@NppParameters@@QEBA?AV?$basic_string@_WU?$char_traits@_W@std@@V?$allocator@_W@2@@std@@XZ
pdata	ENDS
;	COMDAT pdata
pdata	SEGMENT
$pdata$?dtor$0@?0??getWingupDir@NppParameters@@QEBA?AV?$basic_string@_WU?$char_traits@_W@std@@V?$allocator@_W@2@@std@@XZ@4HA DD imagerel ?dtor$0@?0??getWingupDir@NppParameters@@QEBA?AV?$basic_string@_WU?$char_traits@_W@std@@V?$allocator@_W@2@@std@@XZ@4HA
	DD	imagerel ?dtor$0@?0??getWingupDir@NppParameters@@QEBA?AV?$basic_string@_WU?$char_traits@_W@std@@V?$allocator@_W@2@@std@@XZ@4HA+38
	DD	imagerel $unwind$?dtor$0@?0??getWingupDir@NppParameters@@QEBA?AV?$basic_string@_WU?$char_traits@_W@std@@V?$allocator@_W@2@@std@@XZ@4HA
pdata	ENDS
;	COMDAT pdata
pdata	SEGMENT
$pdata$?getInstance@FileManager@@SAAEAV1@XZ DD imagerel $LN19
	DD	imagerel $LN19+151
	DD	imagerel $unwind$?getInstance@FileManager@@SAAEAV1@XZ
pdata	ENDS
;	COMDAT pdata
pdata	SEGMENT
$pdata$??0FileManager@@AEAA@XZ DD imagerel $LN12
	DD	imagerel $LN12+38
	DD	imagerel $unwind$??0FileManager@@AEAA@XZ
pdata	ENDS
;	COMDAT pdata
pdata	SEGMENT
$pdata$?deallocate@?$allocator@PEAVBuffer@@@std@@QEAAXQEAPEAVBuffer@@_K@Z DD imagerel $LN20
	DD	imagerel $LN20+66
	DD	imagerel $unwind$?deallocate@?$allocator@PEAVBuffer@@@std@@QEAAXQEAPEAVBuffer@@_K@Z
pdata	ENDS
;	COMDAT pdata
pdata	SEGMENT
$pdata$?allocate@?$allocator@PEAVBuffer@@@std@@QEAAPEAPEAVBuffer@@_K@Z DD imagerel $LN30
	DD	imagerel $LN30+111
	DD	imagerel $unwind$?allocate@?$allocator@PEAVBuffer@@@std@@QEAAPEAPEAVBuffer@@_K@Z
pdata	ENDS
;	COMDAT pdata
pdata	SEGMENT
$pdata$??1?$vector@PEAVBuffer@@V?$allocator@PEAVBuffer@@@std@@@std@@QEAA@XZ DD imagerel $LN28
	DD	imagerel $LN28+91
	DD	imagerel $unwind$??1?$vector@PEAVBuffer@@V?$allocator@PEAVBuffer@@@std@@@std@@QEAA@XZ
pdata	ENDS
;	COMDAT pdata
pdata	SEGMENT
$pdata$?_Umove@?$vector@PEAVBuffer@@V?$allocator@PEAVBuffer@@@std@@@std@@AEAAPEAPEAVBuffer@@PEAPEAV3@00@Z DD imagerel $LN18
	DD	imagerel $LN18+49
	DD	imagerel $unwind$?_Umove@?$vector@PEAVBuffer@@V?$allocator@PEAVBuffer@@@std@@@std@@AEAAPEAPEAVBuffer@@PEAPEAV3@00@Z
pdata	ENDS
;	COMDAT pdata
pdata	SEGMENT
$pdata$?_Change_array@?$vector@PEAVBuffer@@V?$allocator@PEAVBuffer@@@std@@@std@@AEAAXQEAPEAVBuffer@@_K1@Z DD imagerel $LN24
	DD	imagerel $LN24+135
	DD	imagerel $unwind$?_Change_array@?$vector@PEAVBuffer@@V?$allocator@PEAVBuffer@@@std@@@std@@AEAAXQEAPEAVBuffer@@_K1@Z
pdata	ENDS
;	COMDAT pdata
pdata	SEGMENT
$pdata$?_Tidy@?$vector@PEAVBuffer@@V?$allocator@PEAVBuffer@@@std@@@std@@AEAAXXZ DD imagerel $LN25
	DD	imagerel $LN25+91
	DD	imagerel $unwind$?_Tidy@?$vector@PEAVBuffer@@V?$allocator@PEAVBuffer@@@std@@@std@@AEAAXXZ
pdata	ENDS
;	COMDAT pdata
pdata	SEGMENT
$pdata$?_Xlength@?$vector@PEAVBuffer@@V?$allocator@PEAVBuffer@@@std@@@std@@CAXXZ DD imagerel $LN4
	DD	imagerel $LN4+17
	DD	imagerel $unwind$?_Xlength@?$vector@PEAVBuffer@@V?$allocator@PEAVBuffer@@@std@@@std@@CAXXZ
pdata	ENDS
;	COMDAT pdata
pdata	SEGMENT
$pdata$?execute@ScintillaEditView@@QEBA_JI_K_J@Z DD imagerel $LN12
	DD	imagerel $LN12+43
	DD	imagerel $unwind$?execute@ScintillaEditView@@QEBA_JI_K_J@Z
pdata	ENDS
;	COMDAT pdata
pdata	SEGMENT
$pdata$?catch$0@?0??execute@ScintillaEditView@@QEBA_JI_K_J@Z@4HA DD imagerel ?catch$0@?0??execute@ScintillaEditView@@QEBA_JI_K_J@Z@4HA
	DD	imagerel ?catch$0@?0??execute@ScintillaEditView@@QEBA_JI_K_J@Z@4HA+30
	DD	imagerel $unwind$?catch$0@?0??execute@ScintillaEditView@@QEBA_JI_K_J@Z@4HA
pdata	ENDS
;	COMDAT pdata
pdata	SEGMENT
$pdata$?getSelectedTextCount@ScintillaEditView@@QEAAHXZ DD imagerel $LN6
	DD	imagerel $LN6+64
	DD	imagerel $unwind$?getSelectedTextCount@ScintillaEditView@@QEAAHXZ
pdata	ENDS
;	COMDAT pdata
pdata	SEGMENT
$pdata$?getSelection@ScintillaEditView@@QEBA?AUSci_CharacterRange@@XZ DD imagerel $LN4
	DD	imagerel $LN4+70
	DD	imagerel $unwind$?getSelection@ScintillaEditView@@QEBA?AUSci_CharacterRange@@XZ
pdata	ENDS
;	COMDAT pdata
pdata	SEGMENT
$pdata$?getCurrentLineNumber@ScintillaEditView@@QEBA_KXZ DD imagerel $LN4
	DD	imagerel $LN4+49
	DD	imagerel $unwind$?getCurrentLineNumber@ScintillaEditView@@QEBA_KXZ
pdata	ENDS
;	COMDAT pdata
pdata	SEGMENT
$pdata$?getCurrentColumnNumber@ScintillaEditView@@QEBAJXZ DD imagerel $LN4
	DD	imagerel $LN4+49
	DD	imagerel $unwind$?getCurrentColumnNumber@ScintillaEditView@@QEBAJXZ
pdata	ENDS
;	COMDAT pdata
pdata	SEGMENT
$pdata$?clearIndicator@ScintillaEditView@@QEAAXH@Z DD imagerel $LN6
	DD	imagerel $LN6+93
	DD	imagerel $unwind$?clearIndicator@ScintillaEditView@@QEAAXH@Z
pdata	ENDS
;	COMDAT pdata
pdata	SEGMENT
$pdata$?updateFinderScintilla@FindReplaceDlg@@QEAAXXZ DD imagerel $LN5
	DD	imagerel $LN5+71
	DD	imagerel $unwind$?updateFinderScintilla@FindReplaceDlg@@QEAAXXZ
pdata	ENDS
;	COMDAT pdata
pdata	SEGMENT
$pdata$?restoreGlobalOverrideValues@WordStyleDlg@@QEAAXXZ DD imagerel $LN4
	DD	imagerel $LN4+59
	DD	imagerel $unwind$?restoreGlobalOverrideValues@WordStyleDlg@@QEAAXXZ
pdata	ENDS
;	COMDAT pdata
pdata	SEGMENT
$pdata$?getDataOfAllTb@DockingCont@@QEAA?AV?$vector@PEAUtTbData@@V?$allocator@PEAUtTbData@@@std@@@std@@XZ DD imagerel $LN66
	DD	imagerel $LN66+259
	DD	imagerel $unwind$?getDataOfAllTb@DockingCont@@QEAA?AV?$vector@PEAUtTbData@@V?$allocator@PEAUtTbData@@@std@@@std@@XZ
pdata	ENDS
;	COMDAT pdata
pdata	SEGMENT
$pdata$?dtor$0@?0??getDataOfAllTb@DockingCont@@QEAA?AV?$vector@PEAUtTbData@@V?$allocator@PEAUtTbData@@@std@@@std@@XZ@4HA DD imagerel ?dtor$0@?0??getDataOfAllTb@DockingCont@@QEAA?AV?$vector@PEAUtTbData@@V?$allocator@PEAUtTbData@@@std@@@std@@XZ@4HA
	DD	imagerel ?dtor$0@?0??getDataOfAllTb@DockingCont@@QEAA?AV?$vector@PEAUtTbData@@V?$allocator@PEAUtTbData@@@std@@@std@@XZ@4HA+38
	DD	imagerel $unwind$?dtor$0@?0??getDataOfAllTb@DockingCont@@QEAA?AV?$vector@PEAUtTbData@@V?$allocator@PEAUtTbData@@@std@@@std@@XZ@4HA
pdata	ENDS
;	COMDAT pdata
pdata	SEGMENT
$pdata$?deallocate@?$allocator@PEAUtTbData@@@std@@QEAAXQEAPEAUtTbData@@_K@Z DD imagerel $LN20
	DD	imagerel $LN20+66
	DD	imagerel $unwind$?deallocate@?$allocator@PEAUtTbData@@@std@@QEAAXQEAPEAUtTbData@@_K@Z
pdata	ENDS
;	COMDAT pdata
pdata	SEGMENT
$pdata$?allocate@?$allocator@PEAUtTbData@@@std@@QEAAPEAPEAUtTbData@@_K@Z DD imagerel $LN30
	DD	imagerel $LN30+111
	DD	imagerel $unwind$?allocate@?$allocator@PEAUtTbData@@@std@@QEAAPEAPEAUtTbData@@_K@Z
pdata	ENDS
;	COMDAT pdata
pdata	SEGMENT
$pdata$??0?$vector@PEAUtTbData@@V?$allocator@PEAUtTbData@@@std@@@std@@QEAA@AEBV01@@Z DD imagerel $LN61
	DD	imagerel $LN61+250
	DD	imagerel $unwind$??0?$vector@PEAUtTbData@@V?$allocator@PEAUtTbData@@@std@@@std@@QEAA@AEBV01@@Z
pdata	ENDS
;	COMDAT pdata
pdata	SEGMENT
$pdata$??1?$vector@PEAUtTbData@@V?$allocator@PEAUtTbData@@@std@@@std@@QEAA@XZ DD imagerel $LN28
	DD	imagerel $LN28+91
	DD	imagerel $unwind$??1?$vector@PEAUtTbData@@V?$allocator@PEAUtTbData@@@std@@@std@@QEAA@XZ
pdata	ENDS
;	COMDAT pdata
pdata	SEGMENT
$pdata$?_Buy_raw@?$vector@PEAUtTbData@@V?$allocator@PEAUtTbData@@@std@@@std@@AEAAX_K@Z DD imagerel $LN33
	DD	imagerel $LN33+135
	DD	imagerel $unwind$?_Buy_raw@?$vector@PEAUtTbData@@V?$allocator@PEAUtTbData@@@std@@@std@@AEAAX_K@Z
pdata	ENDS
;	COMDAT pdata
pdata	SEGMENT
$pdata$?_Tidy@?$vector@PEAUtTbData@@V?$allocator@PEAUtTbData@@@std@@@std@@AEAAXXZ DD imagerel $LN25
	DD	imagerel $LN25+91
	DD	imagerel $unwind$?_Tidy@?$vector@PEAUtTbData@@V?$allocator@PEAUtTbData@@@std@@@std@@AEAAXXZ
pdata	ENDS
;	COMDAT pdata
pdata	SEGMENT
$pdata$?deallocate@?$allocator@PEAVDockingCont@@@std@@QEAAXQEAPEAVDockingCont@@_K@Z DD imagerel $LN20
	DD	imagerel $LN20+66
	DD	imagerel $unwind$?deallocate@?$allocator@PEAVDockingCont@@@std@@QEAAXQEAPEAVDockingCont@@_K@Z
pdata	ENDS
;	COMDAT pdata
pdata	SEGMENT
$pdata$?allocate@?$allocator@PEAVDockingCont@@@std@@QEAAPEAPEAVDockingCont@@_K@Z DD imagerel $LN30
	DD	imagerel $LN30+111
	DD	imagerel $unwind$?allocate@?$allocator@PEAVDockingCont@@@std@@QEAAPEAPEAVDockingCont@@_K@Z
pdata	ENDS
;	COMDAT pdata
pdata	SEGMENT
$pdata$??0?$vector@PEAVDockingCont@@V?$allocator@PEAVDockingCont@@@std@@@std@@QEAA@AEBV01@@Z DD imagerel $LN61
	DD	imagerel $LN61+250
	DD	imagerel $unwind$??0?$vector@PEAVDockingCont@@V?$allocator@PEAVDockingCont@@@std@@@std@@QEAA@AEBV01@@Z
pdata	ENDS
;	COMDAT pdata
pdata	SEGMENT
$pdata$??1?$vector@PEAVDockingCont@@V?$allocator@PEAVDockingCont@@@std@@@std@@QEAA@XZ DD imagerel $LN28
	DD	imagerel $LN28+91
	DD	imagerel $unwind$??1?$vector@PEAVDockingCont@@V?$allocator@PEAVDockingCont@@@std@@@std@@QEAA@XZ
pdata	ENDS
;	COMDAT pdata
pdata	SEGMENT
$pdata$?_Buy_raw@?$vector@PEAVDockingCont@@V?$allocator@PEAVDockingCont@@@std@@@std@@AEAAX_K@Z DD imagerel $LN33
	DD	imagerel $LN33+135
	DD	imagerel $unwind$?_Buy_raw@?$vector@PEAVDockingCont@@V?$allocator@PEAVDockingCont@@@std@@@std@@AEAAX_K@Z
pdata	ENDS
;	COMDAT pdata
pdata	SEGMENT
$pdata$?_Tidy@?$vector@PEAVDockingCont@@V?$allocator@PEAVDockingCont@@@std@@@std@@AEAAXXZ DD imagerel $LN25
	DD	imagerel $LN25+91
	DD	imagerel $unwind$?_Tidy@?$vector@PEAVDockingCont@@V?$allocator@PEAVDockingCont@@@std@@@std@@AEAAXXZ
pdata	ENDS
;	COMDAT pdata
pdata	SEGMENT
$pdata$??0Process@@QEAA@PEB_W00@Z DD imagerel $LN53
	DD	imagerel $LN53+204
	DD	imagerel $unwind$??0Process@@QEAA@PEB_W00@Z
pdata	ENDS
;	COMDAT pdata
pdata	SEGMENT
$pdata$??1Process@@QEAA@XZ DD imagerel $LN14
	DD	imagerel $LN14+46
	DD	imagerel $unwind$??1Process@@QEAA@XZ
pdata	ENDS
;	COMDAT pdata
pdata	SEGMENT
$pdata$?process@Notepad_plus@@QEAA_JPEAUHWND__@@I_K_J@Z DD imagerel $LN2727
	DD	imagerel $LN2727+21156
	DD	imagerel $unwind$?process@Notepad_plus@@QEAA_JPEAUHWND__@@I_K_J@Z
pdata	ENDS
;	COMDAT pdata
pdata	SEGMENT
$pdata$?dtor$18@?0??process@Notepad_plus@@QEAA_JPEAUHWND__@@I_K_J@Z@4HA DD imagerel ?dtor$18@?0??process@Notepad_plus@@QEAA_JPEAUHWND__@@I_K_J@Z@4HA
	DD	imagerel ?dtor$18@?0??process@Notepad_plus@@QEAA_JPEAUHWND__@@I_K_J@Z@4HA+32
	DD	imagerel $unwind$?dtor$18@?0??process@Notepad_plus@@QEAA_JPEAUHWND__@@I_K_J@Z@4HA
pdata	ENDS
;	COMDAT pdata
pdata	SEGMENT
$pdata$?dtor$79@?0??process@Notepad_plus@@QEAA_JPEAUHWND__@@I_K_J@Z@4HA DD imagerel ?dtor$79@?0??process@Notepad_plus@@QEAA_JPEAUHWND__@@I_K_J@Z@4HA
	DD	imagerel ?dtor$79@?0??process@Notepad_plus@@QEAA_JPEAUHWND__@@I_K_J@Z@4HA+41
	DD	imagerel $unwind$?dtor$79@?0??process@Notepad_plus@@QEAA_JPEAUHWND__@@I_K_J@Z@4HA
pdata	ENDS
;	COMDAT pdata
pdata	SEGMENT
$pdata$?dtor$80@?0??process@Notepad_plus@@QEAA_JPEAUHWND__@@I_K_J@Z@4HA DD imagerel ?dtor$80@?0??process@Notepad_plus@@QEAA_JPEAUHWND__@@I_K_J@Z@4HA
	DD	imagerel ?dtor$80@?0??process@Notepad_plus@@QEAA_JPEAUHWND__@@I_K_J@Z@4HA+41
	DD	imagerel $unwind$?dtor$80@?0??process@Notepad_plus@@QEAA_JPEAUHWND__@@I_K_J@Z@4HA
pdata	ENDS
;	COMDAT pdata
pdata	SEGMENT
$pdata$?dtor$25@?0??process@Notepad_plus@@QEAA_JPEAUHWND__@@I_K_J@Z@4HA DD imagerel ?dtor$25@?0??process@Notepad_plus@@QEAA_JPEAUHWND__@@I_K_J@Z@4HA
	DD	imagerel ?dtor$25@?0??process@Notepad_plus@@QEAA_JPEAUHWND__@@I_K_J@Z@4HA+32
	DD	imagerel $unwind$?dtor$25@?0??process@Notepad_plus@@QEAA_JPEAUHWND__@@I_K_J@Z@4HA
pdata	ENDS
;	COMDAT pdata
pdata	SEGMENT
$pdata$?Notepad_plus_Proc@Notepad_plus_Window@@CA_JPEAUHWND__@@I_K_J@Z DD imagerel $LN10
	DD	imagerel $LN10+157
	DD	imagerel $unwind$?Notepad_plus_Proc@Notepad_plus_Window@@CA_JPEAUHWND__@@I_K_J@Z
pdata	ENDS
;	COMDAT pdata
pdata	SEGMENT
$pdata$?runProc@Notepad_plus_Window@@AEAA_JPEAUHWND__@@I_K_J@Z DD imagerel $LN16
	DD	imagerel $LN16+210
	DD	imagerel $unwind$?runProc@Notepad_plus_Window@@AEAA_JPEAUHWND__@@I_K_J@Z
pdata	ENDS
;	COMDAT pdata
pdata	SEGMENT
$pdata$?catch$0@?0??runProc@Notepad_plus_Window@@AEAA_JPEAUHWND__@@I_K_J@Z@4HA DD imagerel ?catch$0@?0??runProc@Notepad_plus_Window@@AEAA_JPEAUHWND__@@I_K_J@Z@4HA
	DD	imagerel ?catch$0@?0??runProc@Notepad_plus_Window@@AEAA_JPEAUHWND__@@I_K_J@Z@4HA+57
	DD	imagerel $unwind$?catch$0@?0??runProc@Notepad_plus_Window@@AEAA_JPEAUHWND__@@I_K_J@Z@4HA
pdata	ENDS
;	COMDAT pdata
pdata	SEGMENT
$pdata$??1TaskLstFnStatus@@QEAA@XZ DD imagerel $LN8
	DD	imagerel $LN8+22
	DD	imagerel $unwind$??1TaskLstFnStatus@@QEAA@XZ
pdata	ENDS
;	COMDAT pdata
pdata	SEGMENT
$pdata$??0TaskLstFnStatus@@QEAA@$$QEAU0@@Z DD imagerel $LN28
	DD	imagerel $LN28+79
	DD	imagerel $unwind$??0TaskLstFnStatus@@QEAA@$$QEAU0@@Z
pdata	ENDS
;	COMDAT pdata
pdata	SEGMENT
$pdata$??4TaskLstFnStatus@@QEAAAEAU0@$$QEAU0@@Z DD imagerel $LN23
	DD	imagerel $LN23+127
	DD	imagerel $unwind$??4TaskLstFnStatus@@QEAAAEAU0@$$QEAU0@@Z
pdata	ENDS
;	COMDAT pdata
pdata	SEGMENT
$pdata$??_GBabyGridWrapper@@UEAAPEAXI@Z DD imagerel $LN6
	DD	imagerel $LN6+33
	DD	imagerel $unwind$??_GBabyGridWrapper@@UEAAPEAXI@Z
pdata	ENDS
;	COMDAT pdata
pdata	SEGMENT
$pdata$??0ShortcutMapper@@QEAA@XZ DD imagerel $LN92
	DD	imagerel $LN92+375
	DD	imagerel $unwind$??0ShortcutMapper@@QEAA@XZ
pdata	ENDS
;	COMDAT pdata
pdata	SEGMENT
$pdata$?dtor$2@?0???0ShortcutMapper@@QEAA@XZ@4HA DD imagerel ?dtor$2@?0???0ShortcutMapper@@QEAA@XZ@4HA
	DD	imagerel ?dtor$2@?0???0ShortcutMapper@@QEAA@XZ@4HA+49
	DD	imagerel $unwind$?dtor$2@?0???0ShortcutMapper@@QEAA@XZ@4HA
pdata	ENDS
;	COMDAT pdata
pdata	SEGMENT
$pdata$??1ShortcutMapper@@UEAA@XZ DD imagerel $LN119
	DD	imagerel $LN119+524
	DD	imagerel $unwind$??1ShortcutMapper@@UEAA@XZ
pdata	ENDS
;	COMDAT pdata
pdata	SEGMENT
$pdata$?dtor$2@?0???1ShortcutMapper@@UEAA@XZ@4HA DD imagerel ?dtor$2@?0???1ShortcutMapper@@UEAA@XZ@4HA
	DD	imagerel ?dtor$2@?0???1ShortcutMapper@@UEAA@XZ@4HA+49
	DD	imagerel $unwind$?dtor$2@?0???1ShortcutMapper@@UEAA@XZ@4HA
pdata	ENDS
;	COMDAT pdata
pdata	SEGMENT
$pdata$?deallocate@?$allocator@PEAUHFONT__@@@std@@QEAAXQEAPEAUHFONT__@@_K@Z DD imagerel $LN20
	DD	imagerel $LN20+66
	DD	imagerel $unwind$?deallocate@?$allocator@PEAUHFONT__@@@std@@QEAAXQEAPEAUHFONT__@@_K@Z
pdata	ENDS
;	COMDAT pdata
pdata	SEGMENT
$pdata$??1?$vector@PEAUHFONT__@@V?$allocator@PEAUHFONT__@@@std@@@std@@QEAA@XZ DD imagerel $LN28
	DD	imagerel $LN28+91
	DD	imagerel $unwind$??1?$vector@PEAUHFONT__@@V?$allocator@PEAUHFONT__@@@std@@@std@@QEAA@XZ
pdata	ENDS
;	COMDAT pdata
pdata	SEGMENT
$pdata$?_Tidy@?$vector@PEAUHFONT__@@V?$allocator@PEAUHFONT__@@@std@@@std@@AEAAXXZ DD imagerel $LN25
	DD	imagerel $LN25+91
	DD	imagerel $unwind$?_Tidy@?$vector@PEAUHFONT__@@V?$allocator@PEAUHFONT__@@@std@@@std@@AEAAXXZ
pdata	ENDS
;	COMDAT pdata
pdata	SEGMENT
$pdata$??_GShortcutMapper@@UEAAPEAXI@Z DD imagerel $LN6
	DD	imagerel $LN6+52
	DD	imagerel $unwind$??_GShortcutMapper@@UEAAPEAXI@Z
pdata	ENDS
;	COMDAT pdata
pdata	SEGMENT
$pdata$?reload@VerticalFileSwitcher@@QEAAXXZ DD imagerel $LN4
	DD	imagerel $LN4+34
	DD	imagerel $unwind$?reload@VerticalFileSwitcher@@QEAAXXZ
pdata	ENDS
;	COMDAT pdata
pdata	SEGMENT
$pdata$??RSortTaskListPred@@QEBA_NAEBUTaskLstFnStatus@@0@Z DD imagerel $LN4
	DD	imagerel $LN4+103
	DD	imagerel $unwind$??RSortTaskListPred@@QEBA_NAEBUTaskLstFnStatus@@0@Z
pdata	ENDS
;	COMDAT pdata
pdata	SEGMENT
$pdata$??$sort@V?$_Vector_iterator@V?$_Vector_val@U?$_Simple_types@UTaskLstFnStatus@@@std@@@std@@@std@@USortTaskListPred@@@std@@YAXV?$_Vector_iterator@V?$_Vector_val@U?$_Simple_types@UTaskLstFnStatus@@@std@@@std@@@0@0USortTaskListPred@@@Z DD imagerel $LN6
	DD	imagerel $LN6+56
	DD	imagerel $unwind$??$sort@V?$_Vector_iterator@V?$_Vector_val@U?$_Simple_types@UTaskLstFnStatus@@@std@@@std@@@std@@USortTaskListPred@@@std@@YAXV?$_Vector_iterator@V?$_Vector_val@U?$_Simple_types@UTaskLstFnStatus@@@std@@@std@@@0@0USortTaskListPred@@@Z
pdata	ENDS
;	COMDAT pdata
pdata	SEGMENT
$pdata$??$_Ucopy@PEAPEAVDockingCont@@@?$vector@PEAVDockingCont@@V?$allocator@PEAVDockingCont@@@std@@@std@@AEAAPEAPEAVDockingCont@@PEAPEAV2@00@Z DD imagerel $LN18
	DD	imagerel $LN18+49
	DD	imagerel $unwind$??$_Ucopy@PEAPEAVDockingCont@@@?$vector@PEAVDockingCont@@V?$allocator@PEAVDockingCont@@@std@@@std@@AEAAPEAPEAVDockingCont@@PEAPEAV2@00@Z
pdata	ENDS
;	COMDAT pdata
pdata	SEGMENT
$pdata$??$_Ucopy@PEAPEAUtTbData@@@?$vector@PEAUtTbData@@V?$allocator@PEAUtTbData@@@std@@@std@@AEAAPEAPEAUtTbData@@PEAPEAU2@00@Z DD imagerel $LN18
	DD	imagerel $LN18+49
	DD	imagerel $unwind$??$_Ucopy@PEAPEAUtTbData@@@?$vector@PEAUtTbData@@V?$allocator@PEAUtTbData@@@std@@@std@@AEAAPEAPEAUtTbData@@PEAPEAU2@00@Z
pdata	ENDS
;	COMDAT pdata
pdata	SEGMENT
$pdata$??$_Emplace_reallocate@PEAVBuffer@@@?$vector@PEAVBuffer@@V?$allocator@PEAVBuffer@@@std@@@std@@QEAAPEAPEAVBuffer@@QEAPEAV2@$$QEAPEAV2@@Z DD imagerel $LN120
	DD	imagerel $LN120+415
	DD	imagerel $unwind$??$_Emplace_reallocate@PEAVBuffer@@@?$vector@PEAVBuffer@@V?$allocator@PEAVBuffer@@@std@@@std@@QEAAPEAPEAVBuffer@@QEAPEAV2@$$QEAPEAV2@@Z
pdata	ENDS
;	COMDAT pdata
pdata	SEGMENT
$pdata$?catch$0@?0???$_Emplace_reallocate@PEAVBuffer@@@?$vector@PEAVBuffer@@V?$allocator@PEAVBuffer@@@std@@@std@@QEAAPEAPEAVBuffer@@QEAPEAV2@$$QEAPEAV2@@Z@4HA DD imagerel ?catch$0@?0???$_Emplace_reallocate@PEAVBuffer@@@?$vector@PEAVBuffer@@V?$allocator@PEAVBuffer@@@std@@@std@@QEAAPEAPEAVBuffer@@QEAPEAV2@$$QEAPEAV2@@Z@4HA
	DD	imagerel ?catch$0@?0???$_Emplace_reallocate@PEAVBuffer@@@?$vector@PEAVBuffer@@V?$allocator@PEAVBuffer@@@std@@@std@@QEAAPEAPEAVBuffer@@QEAPEAV2@$$QEAPEAV2@@Z@4HA+40
	DD	imagerel $unwind$?catch$0@?0???$_Emplace_reallocate@PEAVBuffer@@@?$vector@PEAVBuffer@@V?$allocator@PEAVBuffer@@@std@@@std@@QEAAPEAPEAVBuffer@@QEAPEAV2@$$QEAPEAV2@@Z@4HA
pdata	ENDS
;	COMDAT pdata
pdata	SEGMENT
$pdata$??$_Ucopy@PEAULangMenuItem@@@?$vector@ULangMenuItem@@V?$allocator@ULangMenuItem@@@std@@@std@@AEAAPEAULangMenuItem@@PEAU2@00@Z DD imagerel $LN47
	DD	imagerel $LN47+119
	DD	imagerel $unwind$??$_Ucopy@PEAULangMenuItem@@@?$vector@ULangMenuItem@@V?$allocator@ULangMenuItem@@@std@@@std@@AEAAPEAULangMenuItem@@PEAU2@00@Z
pdata	ENDS
;	COMDAT pdata
pdata	SEGMENT
$pdata$??$_Ucopy@PEAUPluginDlgDockingInfo@@@?$vector@UPluginDlgDockingInfo@@V?$allocator@UPluginDlgDockingInfo@@@std@@@std@@AEAAPEAUPluginDlgDockingInfo@@PEAU2@00@Z DD imagerel $LN47
	DD	imagerel $LN47+136
	DD	imagerel $unwind$??$_Ucopy@PEAUPluginDlgDockingInfo@@@?$vector@UPluginDlgDockingInfo@@V?$allocator@UPluginDlgDockingInfo@@@std@@@std@@AEAAPEAUPluginDlgDockingInfo@@PEAU2@00@Z
pdata	ENDS
;	COMDAT pdata
pdata	SEGMENT
$pdata$??$_Move_unchecked@PEAPEAUHWND__@@PEAPEAU1@@std@@YAPEAPEAUHWND__@@PEAPEAU1@00@Z DD imagerel $LN9
	DD	imagerel $LN9+48
	DD	imagerel $unwind$??$_Move_unchecked@PEAPEAUHWND__@@PEAPEAU1@@std@@YAPEAPEAUHWND__@@PEAPEAU1@00@Z
pdata	ENDS
;	COMDAT pdata
pdata	SEGMENT
$pdata$??$_Emplace_reallocate@PEAUHWND__@@@?$vector@PEAUHWND__@@V?$allocator@PEAUHWND__@@@std@@@std@@QEAAPEAPEAUHWND__@@QEAPEAU2@$$QEAPEAU2@@Z DD imagerel $LN120
	DD	imagerel $LN120+415
	DD	imagerel $unwind$??$_Emplace_reallocate@PEAUHWND__@@@?$vector@PEAUHWND__@@V?$allocator@PEAUHWND__@@@std@@@std@@QEAAPEAPEAUHWND__@@QEAPEAU2@$$QEAPEAU2@@Z
pdata	ENDS
;	COMDAT pdata
pdata	SEGMENT
$pdata$?catch$0@?0???$_Emplace_reallocate@PEAUHWND__@@@?$vector@PEAUHWND__@@V?$allocator@PEAUHWND__@@@std@@@std@@QEAAPEAPEAUHWND__@@QEAPEAU2@$$QEAPEAU2@@Z@4HA DD imagerel ?catch$0@?0???$_Emplace_reallocate@PEAUHWND__@@@?$vector@PEAUHWND__@@V?$allocator@PEAUHWND__@@@std@@@std@@QEAAPEAPEAUHWND__@@QEAPEAU2@$$QEAPEAU2@@Z@4HA
	DD	imagerel ?catch$0@?0???$_Emplace_reallocate@PEAUHWND__@@@?$vector@PEAUHWND__@@V?$allocator@PEAUHWND__@@@std@@@std@@QEAAPEAPEAUHWND__@@QEAPEAU2@$$QEAPEAU2@@Z@4HA+40
	DD	imagerel $unwind$?catch$0@?0???$_Emplace_reallocate@PEAUHWND__@@@?$vector@PEAUHWND__@@V?$allocator@PEAUHWND__@@@std@@@std@@QEAAPEAPEAUHWND__@@QEAPEAU2@$$QEAPEAU2@@Z@4HA
pdata	ENDS
;	COMDAT pdata
pdata	SEGMENT
$pdata$??$emplace_back@UrecordedMacroStep@@@?$vector@UrecordedMacroStep@@V?$allocator@UrecordedMacroStep@@@std@@@std@@QEAA?A_T$$QEAUrecordedMacroStep@@@Z DD imagerel $LN35
	DD	imagerel $LN35+106
	DD	imagerel $unwind$??$emplace_back@UrecordedMacroStep@@@?$vector@UrecordedMacroStep@@V?$allocator@UrecordedMacroStep@@@std@@@std@@QEAA?A_T$$QEAUrecordedMacroStep@@@Z
pdata	ENDS
;	COMDAT pdata
pdata	SEGMENT
$pdata$??$_Emplace_back_with_unused_capacity@UrecordedMacroStep@@@?$vector@UrecordedMacroStep@@V?$allocator@UrecordedMacroStep@@@std@@@std@@AEAA?A_T$$QEAUrecordedMacroStep@@@Z DD imagerel $LN32
	DD	imagerel $LN32+91
	DD	imagerel $unwind$??$_Emplace_back_with_unused_capacity@UrecordedMacroStep@@@?$vector@UrecordedMacroStep@@V?$allocator@UrecordedMacroStep@@@std@@@std@@AEAA?A_T$$QEAUrecordedMacroStep@@@Z
pdata	ENDS
;	COMDAT pdata
pdata	SEGMENT
$pdata$??$construct@UrecordedMacroStep@@U1@@?$_Default_allocator_traits@V?$allocator@UrecordedMacroStep@@@std@@@std@@SAXAEAV?$allocator@UrecordedMacroStep@@@1@QEAUrecordedMacroStep@@$$QEAU3@@Z DD imagerel $LN30
	DD	imagerel $LN30+83
	DD	imagerel $unwind$??$construct@UrecordedMacroStep@@U1@@?$_Default_allocator_traits@V?$allocator@UrecordedMacroStep@@@std@@@std@@SAXAEAV?$allocator@UrecordedMacroStep@@@1@QEAUrecordedMacroStep@@$$QEAU3@@Z
pdata	ENDS
;	COMDAT pdata
pdata	SEGMENT
$pdata$??$_Emplace_reallocate@UrecordedMacroStep@@@?$vector@UrecordedMacroStep@@V?$allocator@UrecordedMacroStep@@@std@@@std@@QEAAPEAUrecordedMacroStep@@QEAU2@$$QEAU2@@Z DD imagerel $LN99
	DD	imagerel $LN99+477
	DD	imagerel $unwind$??$_Emplace_reallocate@UrecordedMacroStep@@@?$vector@UrecordedMacroStep@@V?$allocator@UrecordedMacroStep@@@std@@@std@@QEAAPEAUrecordedMacroStep@@QEAU2@$$QEAU2@@Z
pdata	ENDS
;	COMDAT pdata
pdata	SEGMENT
$pdata$?catch$2@?0???$_Emplace_reallocate@UrecordedMacroStep@@@?$vector@UrecordedMacroStep@@V?$allocator@UrecordedMacroStep@@@std@@@std@@QEAAPEAUrecordedMacroStep@@QEAU2@$$QEAU2@@Z@4HA DD imagerel ?catch$2@?0???$_Emplace_reallocate@UrecordedMacroStep@@@?$vector@UrecordedMacroStep@@V?$allocator@UrecordedMacroStep@@@std@@@std@@QEAAPEAUrecordedMacroStep@@QEAU2@$$QEAU2@@Z@4HA
	DD	imagerel ?catch$2@?0???$_Emplace_reallocate@UrecordedMacroStep@@@?$vector@UrecordedMacroStep@@V?$allocator@UrecordedMacroStep@@@std@@@std@@QEAAPEAUrecordedMacroStep@@QEAU2@$$QEAU2@@Z@4HA+67
	DD	imagerel $unwind$?catch$2@?0???$_Emplace_reallocate@UrecordedMacroStep@@@?$vector@UrecordedMacroStep@@V?$allocator@UrecordedMacroStep@@@std@@@std@@QEAAPEAUrecordedMacroStep@@QEAU2@$$QEAU2@@Z@4HA
pdata	ENDS
;	COMDAT pdata
pdata	SEGMENT
$pdata$??$_Ucopy@PEAUrecordedMacroStep@@@?$vector@UrecordedMacroStep@@V?$allocator@UrecordedMacroStep@@@std@@@std@@AEAAPEAUrecordedMacroStep@@PEAU2@00@Z DD imagerel $LN47
	DD	imagerel $LN47+139
	DD	imagerel $unwind$??$_Ucopy@PEAUrecordedMacroStep@@@?$vector@UrecordedMacroStep@@V?$allocator@UrecordedMacroStep@@@std@@@std@@AEAAPEAUrecordedMacroStep@@PEAU2@00@Z
pdata	ENDS
;	COMDAT pdata
pdata	SEGMENT
$pdata$??R<lambda_3fa8b2c8193a0f3144fc4b1b8f243931>@@QEBA@QEA_W_KQEB_W@Z DD imagerel $LN6
	DD	imagerel $LN6+48
	DD	imagerel $unwind$??R<lambda_3fa8b2c8193a0f3144fc4b1b8f243931>@@QEBA@QEA_W_KQEB_W@Z
pdata	ENDS
;	COMDAT pdata
pdata	SEGMENT
$pdata$??$_Reallocate_for@V<lambda_3fa8b2c8193a0f3144fc4b1b8f243931>@@PEB_W@?$basic_string@_WU?$char_traits@_W@std@@V?$allocator@_W@2@@std@@AEAAAEAV01@_KV<lambda_3fa8b2c8193a0f3144fc4b1b8f243931>@@PEB_W@Z DD imagerel $LN41
	DD	imagerel $LN41+42
	DD	imagerel $unwind$??$_Reallocate_for@V<lambda_3fa8b2c8193a0f3144fc4b1b8f243931>@@PEB_W@?$basic_string@_WU?$char_traits@_W@std@@V?$allocator@_W@2@@std@@AEAAAEAV01@_KV<lambda_3fa8b2c8193a0f3144fc4b1b8f243931>@@PEB_W@Z
pdata	ENDS
;	COMDAT pdata
pdata	SEGMENT
$pdata$1$??$_Reallocate_for@V<lambda_3fa8b2c8193a0f3144fc4b1b8f243931>@@PEB_W@?$basic_string@_WU?$char_traits@_W@std@@V?$allocator@_W@2@@std@@AEAAAEAV01@_KV<lambda_3fa8b2c8193a0f3144fc4b1b8f243931>@@PEB_W@Z DD imagerel $LN41+42
	DD	imagerel $LN41+232
	DD	imagerel $chain$1$??$_Reallocate_for@V<lambda_3fa8b2c8193a0f3144fc4b1b8f243931>@@PEB_W@?$basic_string@_WU?$char_traits@_W@std@@V?$allocator@_W@2@@std@@AEAAAEAV01@_KV<lambda_3fa8b2c8193a0f3144fc4b1b8f243931>@@PEB_W@Z
pdata	ENDS
;	COMDAT pdata
pdata	SEGMENT
$pdata$3$??$_Reallocate_for@V<lambda_3fa8b2c8193a0f3144fc4b1b8f243931>@@PEB_W@?$basic_string@_WU?$char_traits@_W@std@@V?$allocator@_W@2@@std@@AEAAAEAV01@_KV<lambda_3fa8b2c8193a0f3144fc4b1b8f243931>@@PEB_W@Z DD imagerel $LN41+232
	DD	imagerel $LN41+238
	DD	imagerel $chain$3$??$_Reallocate_for@V<lambda_3fa8b2c8193a0f3144fc4b1b8f243931>@@PEB_W@?$basic_string@_WU?$char_traits@_W@std@@V?$allocator@_W@2@@std@@AEAAAEAV01@_KV<lambda_3fa8b2c8193a0f3144fc4b1b8f243931>@@PEB_W@Z
pdata	ENDS
;	COMDAT pdata
pdata	SEGMENT
$pdata$4$??$_Reallocate_for@V<lambda_3fa8b2c8193a0f3144fc4b1b8f243931>@@PEB_W@?$basic_string@_WU?$char_traits@_W@std@@V?$allocator@_W@2@@std@@AEAAAEAV01@_KV<lambda_3fa8b2c8193a0f3144fc4b1b8f243931>@@PEB_W@Z DD imagerel $LN41+238
	DD	imagerel $LN41+244
	DD	imagerel $chain$4$??$_Reallocate_for@V<lambda_3fa8b2c8193a0f3144fc4b1b8f243931>@@PEB_W@?$basic_string@_WU?$char_traits@_W@std@@V?$allocator@_W@2@@std@@AEAAAEAV01@_KV<lambda_3fa8b2c8193a0f3144fc4b1b8f243931>@@PEB_W@Z
pdata	ENDS
;	COMDAT pdata
pdata	SEGMENT
$pdata$??$_Deallocate@$0BA@$0A@@std@@YAXPEAX_K@Z DD imagerel $LN18
	DD	imagerel $LN18+52
	DD	imagerel $unwind$??$_Deallocate@$0BA@$0A@@std@@YAXPEAX_K@Z
pdata	ENDS
;	COMDAT pdata
pdata	SEGMENT
$pdata$??$_Get_size_of_n@$0CI@@std@@YA_K_K@Z DD imagerel $LN7
	DD	imagerel $LN7+38
	DD	imagerel $unwind$??$_Get_size_of_n@$0CI@@std@@YA_K_K@Z
pdata	ENDS
;	COMDAT pdata
pdata	SEGMENT
$pdata$??$_Allocate@$0BA@U_Default_allocate_traits@std@@$0A@@std@@YAPEAX_K@Z DD imagerel $LN24
	DD	imagerel $LN24+88
	DD	imagerel $unwind$??$_Allocate@$0BA@U_Default_allocate_traits@std@@$0A@@std@@YAPEAX_K@Z
pdata	ENDS
;	COMDAT pdata
pdata	SEGMENT
$pdata$??$_Get_size_of_n@$07@std@@YA_K_K@Z DD imagerel $LN7
	DD	imagerel $LN7+38
	DD	imagerel $unwind$??$_Get_size_of_n@$07@std@@YA_K_K@Z
pdata	ENDS
;	COMDAT pdata
pdata	SEGMENT
$pdata$??$_Destroy_range@V?$allocator@ULangMenuItem@@@std@@@std@@YAXPEAULangMenuItem@@QEAU1@AEAV?$allocator@ULangMenuItem@@@0@@Z DD imagerel $LN23
	DD	imagerel $LN23+66
	DD	imagerel $unwind$??$_Destroy_range@V?$allocator@ULangMenuItem@@@std@@@std@@YAXPEAULangMenuItem@@QEAU1@AEAV?$allocator@ULangMenuItem@@@0@@Z
pdata	ENDS
;	COMDAT pdata
pdata	SEGMENT
$pdata$??$_Get_size_of_n@$01@std@@YA_K_K@Z DD imagerel $LN7
	DD	imagerel $LN7+34
	DD	imagerel $unwind$??$_Get_size_of_n@$01@std@@YA_K_K@Z
pdata	ENDS
;	COMDAT pdata
pdata	SEGMENT
$pdata$??$_Destroy_range@V?$allocator@UPluginDlgDockingInfo@@@std@@@std@@YAXPEAUPluginDlgDockingInfo@@QEAU1@AEAV?$allocator@UPluginDlgDockingInfo@@@0@@Z DD imagerel $LN23
	DD	imagerel $LN23+65
	DD	imagerel $unwind$??$_Destroy_range@V?$allocator@UPluginDlgDockingInfo@@@std@@@std@@YAXPEAUPluginDlgDockingInfo@@QEAU1@AEAV?$allocator@UPluginDlgDockingInfo@@@0@@Z
pdata	ENDS
;	COMDAT pdata
pdata	SEGMENT
$pdata$??$_Get_size_of_n@$0DA@@std@@YA_K_K@Z DD imagerel $LN7
	DD	imagerel $LN7+38
	DD	imagerel $unwind$??$_Get_size_of_n@$0DA@@std@@YA_K_K@Z
pdata	ENDS
;	COMDAT pdata
pdata	SEGMENT
$pdata$??$_Get_size_of_n@$0BE@@std@@YA_K_K@Z DD imagerel $LN7
	DD	imagerel $LN7+38
	DD	imagerel $unwind$??$_Get_size_of_n@$0BE@@std@@YA_K_K@Z
pdata	ENDS
;	COMDAT pdata
pdata	SEGMENT
$pdata$??$_Destroy_range@V?$allocator@V?$basic_string@_WU?$char_traits@_W@std@@V?$allocator@_W@2@@std@@@std@@@std@@YAXPEAV?$basic_string@_WU?$char_traits@_W@std@@V?$allocator@_W@2@@0@QEAV10@AEAV?$allocator@V?$basic_string@_WU?$char_traits@_W@std@@V?$allocator@_W@2@@std@@@0@@Z DD imagerel $LN20
	DD	imagerel $LN20+49
	DD	imagerel $unwind$??$_Destroy_range@V?$allocator@V?$basic_string@_WU?$char_traits@_W@std@@V?$allocator@_W@2@@std@@@std@@@std@@YAXPEAV?$basic_string@_WU?$char_traits@_W@std@@V?$allocator@_W@2@@0@QEAV10@AEAV?$allocator@V?$basic_string@_WU?$char_traits@_W@std@@V?$allocator@_W@2@@std@@@0@@Z
pdata	ENDS
;	COMDAT pdata
pdata	SEGMENT
$pdata$??$_Destroy_range@V?$allocator@UsessionFileInfo@@@std@@@std@@YAXPEAUsessionFileInfo@@QEAU1@AEAV?$allocator@UsessionFileInfo@@@0@@Z DD imagerel $LN14
	DD	imagerel $LN14+54
	DD	imagerel $unwind$??$_Destroy_range@V?$allocator@UsessionFileInfo@@@std@@@std@@YAXPEAUsessionFileInfo@@QEAU1@AEAV?$allocator@UsessionFileInfo@@@0@@Z
pdata	ENDS
;	COMDAT pdata
pdata	SEGMENT
$pdata$??$_Destroy_range@V?$allocator@UrecordedMacroStep@@@std@@@std@@YAXPEAUrecordedMacroStep@@QEAU1@AEAV?$allocator@UrecordedMacroStep@@@0@@Z DD imagerel $LN23
	DD	imagerel $LN23+66
	DD	imagerel $unwind$??$_Destroy_range@V?$allocator@UrecordedMacroStep@@@std@@@std@@YAXPEAUrecordedMacroStep@@QEAU1@AEAV?$allocator@UrecordedMacroStep@@@0@@Z
pdata	ENDS
;	COMDAT pdata
pdata	SEGMENT
$pdata$??$_Get_size_of_n@$0EA@@std@@YA_K_K@Z DD imagerel $LN7
	DD	imagerel $LN7+37
	DD	imagerel $unwind$??$_Get_size_of_n@$0EA@@std@@YA_K_K@Z
pdata	ENDS
;	COMDAT pdata
pdata	SEGMENT
$pdata$??$_Sort_unchecked@PEAUTaskLstFnStatus@@U?$_Ref_fn@USortTaskListPred@@@std@@@std@@YAXPEAUTaskLstFnStatus@@0_JU?$_Ref_fn@USortTaskListPred@@@0@@Z DD imagerel $LN94
	DD	imagerel $LN94+630
	DD	imagerel $unwind$??$_Sort_unchecked@PEAUTaskLstFnStatus@@U?$_Ref_fn@USortTaskListPred@@@std@@@std@@YAXPEAUTaskLstFnStatus@@0_JU?$_Ref_fn@USortTaskListPred@@@0@@Z
pdata	ENDS
;	COMDAT pdata
pdata	SEGMENT
$pdata$??$_Uninitialized_copy@PEAPEAVDockingCont@@V?$allocator@PEAVDockingCont@@@std@@@std@@YAPEAPEAVDockingCont@@QEAPEAV1@0PEAPEAV1@AEAV?$allocator@PEAVDockingCont@@@0@@Z DD imagerel $LN16
	DD	imagerel $LN16+52
	DD	imagerel $unwind$??$_Uninitialized_copy@PEAPEAVDockingCont@@V?$allocator@PEAVDockingCont@@@std@@@std@@YAPEAPEAVDockingCont@@QEAPEAV1@0PEAPEAV1@AEAV?$allocator@PEAVDockingCont@@@0@@Z
pdata	ENDS
;	COMDAT pdata
pdata	SEGMENT
$pdata$??$_Uninitialized_copy@PEAPEAUtTbData@@V?$allocator@PEAUtTbData@@@std@@@std@@YAPEAPEAUtTbData@@QEAPEAU1@0PEAPEAU1@AEAV?$allocator@PEAUtTbData@@@0@@Z DD imagerel $LN16
	DD	imagerel $LN16+52
	DD	imagerel $unwind$??$_Uninitialized_copy@PEAPEAUtTbData@@V?$allocator@PEAUtTbData@@@std@@@std@@YAPEAPEAUtTbData@@QEAPEAU1@0PEAPEAU1@AEAV?$allocator@PEAUtTbData@@@0@@Z
pdata	ENDS
;	COMDAT pdata
pdata	SEGMENT
$pdata$??$_Uninitialized_copy@PEAULangMenuItem@@V?$allocator@ULangMenuItem@@@std@@@std@@YAPEAULangMenuItem@@QEAU1@0PEAU1@AEAV?$allocator@ULangMenuItem@@@0@@Z DD imagerel $LN45
	DD	imagerel $LN45+119
	DD	imagerel $unwind$??$_Uninitialized_copy@PEAULangMenuItem@@V?$allocator@ULangMenuItem@@@std@@@std@@YAPEAULangMenuItem@@QEAU1@0PEAU1@AEAV?$allocator@ULangMenuItem@@@0@@Z
pdata	ENDS
;	COMDAT pdata
pdata	SEGMENT
$pdata$??$_Uninitialized_copy@PEAUPluginDlgDockingInfo@@V?$allocator@UPluginDlgDockingInfo@@@std@@@std@@YAPEAUPluginDlgDockingInfo@@QEAU1@0PEAU1@AEAV?$allocator@UPluginDlgDockingInfo@@@0@@Z DD imagerel $LN45
	DD	imagerel $LN45+136
	DD	imagerel $unwind$??$_Uninitialized_copy@PEAUPluginDlgDockingInfo@@V?$allocator@UPluginDlgDockingInfo@@@std@@@std@@YAPEAUPluginDlgDockingInfo@@QEAU1@0PEAU1@AEAV?$allocator@UPluginDlgDockingInfo@@@0@@Z
pdata	ENDS
;	COMDAT pdata
pdata	SEGMENT
$pdata$??$_Copy_memmove@PEAPEAUHWND__@@PEAPEAU1@@std@@YAPEAPEAUHWND__@@PEAPEAU1@00@Z DD imagerel $LN4
	DD	imagerel $LN4+48
	DD	imagerel $unwind$??$_Copy_memmove@PEAPEAUHWND__@@PEAPEAU1@@std@@YAPEAPEAUHWND__@@PEAPEAU1@00@Z
pdata	ENDS
;	COMDAT pdata
pdata	SEGMENT
$pdata$??$_Uninitialized_copy@PEAUrecordedMacroStep@@V?$allocator@UrecordedMacroStep@@@std@@@std@@YAPEAUrecordedMacroStep@@QEAU1@0PEAU1@AEAV?$allocator@UrecordedMacroStep@@@0@@Z DD imagerel $LN45
	DD	imagerel $LN45+139
	DD	imagerel $unwind$??$_Uninitialized_copy@PEAUrecordedMacroStep@@V?$allocator@UrecordedMacroStep@@@std@@@std@@YAPEAUrecordedMacroStep@@QEAU1@0PEAU1@AEAV?$allocator@UrecordedMacroStep@@@0@@Z
pdata	ENDS
;	COMDAT pdata
pdata	SEGMENT
$pdata$??$_Assign_range@PEAUrecordedMacroStep@@@?$vector@UrecordedMacroStep@@V?$allocator@UrecordedMacroStep@@@std@@@std@@AEAAXPEAUrecordedMacroStep@@0Uforward_iterator_tag@1@@Z DD imagerel $LN89
	DD	imagerel $LN89+436
	DD	imagerel $unwind$??$_Assign_range@PEAUrecordedMacroStep@@@?$vector@UrecordedMacroStep@@V?$allocator@UrecordedMacroStep@@@std@@@std@@AEAAXPEAUrecordedMacroStep@@0Uforward_iterator_tag@1@@Z
pdata	ENDS
;	COMDAT pdata
pdata	SEGMENT
$pdata$??$_Allocate_manually_vector_aligned@U_Default_allocate_traits@std@@@std@@YAPEAX_K@Z DD imagerel $LN17
	DD	imagerel $LN17+58
	DD	imagerel $unwind$??$_Allocate_manually_vector_aligned@U_Default_allocate_traits@std@@@std@@YAPEAX_K@Z
pdata	ENDS
;	COMDAT pdata
pdata	SEGMENT
$pdata$??$destroy@ULangMenuItem@@@?$_Default_allocator_traits@V?$allocator@ULangMenuItem@@@std@@@std@@SAXAEAV?$allocator@ULangMenuItem@@@1@QEAULangMenuItem@@@Z DD imagerel $LN13
	DD	imagerel $LN13+22
	DD	imagerel $unwind$??$destroy@ULangMenuItem@@@?$_Default_allocator_traits@V?$allocator@ULangMenuItem@@@std@@@std@@SAXAEAV?$allocator@ULangMenuItem@@@1@QEAULangMenuItem@@@Z
pdata	ENDS
;	COMDAT pdata
pdata	SEGMENT
$pdata$??$destroy@UPluginDlgDockingInfo@@@?$_Default_allocator_traits@V?$allocator@UPluginDlgDockingInfo@@@std@@@std@@SAXAEAV?$allocator@UPluginDlgDockingInfo@@@1@QEAUPluginDlgDockingInfo@@@Z DD imagerel $LN13
	DD	imagerel $LN13+21
	DD	imagerel $unwind$??$destroy@UPluginDlgDockingInfo@@@?$_Default_allocator_traits@V?$allocator@UPluginDlgDockingInfo@@@std@@@std@@SAXAEAV?$allocator@UPluginDlgDockingInfo@@@1@QEAUPluginDlgDockingInfo@@@Z
pdata	ENDS
;	COMDAT pdata
pdata	SEGMENT
$pdata$??$destroy@UrecordedMacroStep@@@?$_Default_allocator_traits@V?$allocator@UrecordedMacroStep@@@std@@@std@@SAXAEAV?$allocator@UrecordedMacroStep@@@1@QEAUrecordedMacroStep@@@Z DD imagerel $LN13
	DD	imagerel $LN13+22
	DD	imagerel $unwind$??$destroy@UrecordedMacroStep@@@?$_Default_allocator_traits@V?$allocator@UrecordedMacroStep@@@std@@@std@@SAXAEAV?$allocator@UrecordedMacroStep@@@1@QEAUrecordedMacroStep@@@Z
pdata	ENDS
;	COMDAT pdata
pdata	SEGMENT
$pdata$??$_Uninitialized_move@PEAPEAVBuffer@@V?$allocator@PEAVBuffer@@@std@@@std@@YAPEAPEAVBuffer@@QEAPEAV1@0PEAPEAV1@AEAV?$allocator@PEAVBuffer@@@0@@Z DD imagerel $LN16
	DD	imagerel $LN16+52
	DD	imagerel $unwind$??$_Uninitialized_move@PEAPEAVBuffer@@V?$allocator@PEAVBuffer@@@std@@@std@@YAPEAPEAVBuffer@@QEAPEAV1@0PEAPEAV1@AEAV?$allocator@PEAVBuffer@@@0@@Z
pdata	ENDS
;	COMDAT pdata
pdata	SEGMENT
$pdata$??$_Uninitialized_move@PEAPEAUHWND__@@V?$allocator@PEAUHWND__@@@std@@@std@@YAPEAPEAUHWND__@@QEAPEAU1@0PEAPEAU1@AEAV?$allocator@PEAUHWND__@@@0@@Z DD imagerel $LN16
	DD	imagerel $LN16+52
	DD	imagerel $unwind$??$_Uninitialized_move@PEAPEAUHWND__@@V?$allocator@PEAUHWND__@@@std@@@std@@YAPEAPEAUHWND__@@QEAPEAU1@0PEAPEAU1@AEAV?$allocator@PEAUHWND__@@@0@@Z
pdata	ENDS
;	COMDAT pdata
pdata	SEGMENT
$pdata$??$_Uninitialized_move@PEAUrecordedMacroStep@@V?$allocator@UrecordedMacroStep@@@std@@@std@@YAPEAUrecordedMacroStep@@QEAU1@0PEAU1@AEAV?$allocator@UrecordedMacroStep@@@0@@Z DD imagerel $LN67
	DD	imagerel $LN67+147
	DD	imagerel $unwind$??$_Uninitialized_move@PEAUrecordedMacroStep@@V?$allocator@UrecordedMacroStep@@@std@@@std@@YAPEAUrecordedMacroStep@@QEAU1@0PEAU1@AEAV?$allocator@UrecordedMacroStep@@@0@@Z
pdata	ENDS
;	COMDAT pdata
pdata	SEGMENT
$pdata$??$_Insertion_sort_unchecked@PEAUTaskLstFnStatus@@U?$_Ref_fn@USortTaskListPred@@@std@@@std@@YAPEAUTaskLstFnStatus@@QEAU1@0U?$_Ref_fn@USortTaskListPred@@@0@@Z DD imagerel $LN210
	DD	imagerel $LN210+1075
	DD	imagerel $unwind$??$_Insertion_sort_unchecked@PEAUTaskLstFnStatus@@U?$_Ref_fn@USortTaskListPred@@@std@@@std@@YAPEAUTaskLstFnStatus@@QEAU1@0U?$_Ref_fn@USortTaskListPred@@@0@@Z
pdata	ENDS
;	COMDAT pdata
pdata	SEGMENT
$pdata$??$_Make_heap_unchecked@PEAUTaskLstFnStatus@@U?$_Ref_fn@USortTaskListPred@@@std@@@std@@YAXPEAUTaskLstFnStatus@@0U?$_Ref_fn@USortTaskListPred@@@0@@Z DD imagerel $LN165
	DD	imagerel $LN165+1080
	DD	imagerel $unwind$??$_Make_heap_unchecked@PEAUTaskLstFnStatus@@U?$_Ref_fn@USortTaskListPred@@@std@@@std@@YAXPEAUTaskLstFnStatus@@0U?$_Ref_fn@USortTaskListPred@@@0@@Z
pdata	ENDS
;	COMDAT pdata
pdata	SEGMENT
$pdata$??$_Sort_heap_unchecked@PEAUTaskLstFnStatus@@U?$_Ref_fn@USortTaskListPred@@@std@@@std@@YAXPEAUTaskLstFnStatus@@0U?$_Ref_fn@USortTaskListPred@@@0@@Z DD imagerel $LN78
	DD	imagerel $LN78+409
	DD	imagerel $unwind$??$_Sort_heap_unchecked@PEAUTaskLstFnStatus@@U?$_Ref_fn@USortTaskListPred@@@std@@@std@@YAXPEAUTaskLstFnStatus@@0U?$_Ref_fn@USortTaskListPred@@@0@@Z
pdata	ENDS
;	COMDAT pdata
pdata	SEGMENT
$pdata$??$_Partition_by_median_guess_unchecked@PEAUTaskLstFnStatus@@U?$_Ref_fn@USortTaskListPred@@@std@@@std@@YA?AU?$pair@PEAUTaskLstFnStatus@@PEAU1@@0@PEAUTaskLstFnStatus@@0U?$_Ref_fn@USortTaskListPred@@@0@@Z DD imagerel $LN707
	DD	imagerel $LN707+3166
	DD	imagerel $unwind$??$_Partition_by_median_guess_unchecked@PEAUTaskLstFnStatus@@U?$_Ref_fn@USortTaskListPred@@@std@@@std@@YA?AU?$pair@PEAUTaskLstFnStatus@@PEAU1@@0@PEAUTaskLstFnStatus@@0U?$_Ref_fn@USortTaskListPred@@@0@@Z
pdata	ENDS
;	COMDAT pdata
pdata	SEGMENT
$pdata$??$_Copy_memmove@PEAPEAVDockingCont@@PEAPEAV1@@std@@YAPEAPEAVDockingCont@@PEAPEAV1@00@Z DD imagerel $LN4
	DD	imagerel $LN4+48
	DD	imagerel $unwind$??$_Copy_memmove@PEAPEAVDockingCont@@PEAPEAV1@@std@@YAPEAPEAVDockingCont@@PEAPEAV1@00@Z
pdata	ENDS
;	COMDAT pdata
pdata	SEGMENT
$pdata$??$_Copy_memmove@PEAPEAUtTbData@@PEAPEAU1@@std@@YAPEAPEAUtTbData@@PEAPEAU1@00@Z DD imagerel $LN4
	DD	imagerel $LN4+48
	DD	imagerel $unwind$??$_Copy_memmove@PEAPEAUtTbData@@PEAPEAU1@@std@@YAPEAPEAUtTbData@@PEAPEAU1@00@Z
pdata	ENDS
;	COMDAT pdata
pdata	SEGMENT
$pdata$??1?$_Uninitialized_backout_al@V?$allocator@ULangMenuItem@@@std@@@std@@QEAA@XZ DD imagerel $LN24
	DD	imagerel $LN24+66
	DD	imagerel $unwind$??1?$_Uninitialized_backout_al@V?$allocator@ULangMenuItem@@@std@@@std@@QEAA@XZ
pdata	ENDS
;	COMDAT pdata
pdata	SEGMENT
$pdata$??$_Emplace_back@AEAULangMenuItem@@@?$_Uninitialized_backout_al@V?$allocator@ULangMenuItem@@@std@@@std@@QEAAXAEAULangMenuItem@@@Z DD imagerel $LN10
	DD	imagerel $LN10+53
	DD	imagerel $unwind$??$_Emplace_back@AEAULangMenuItem@@@?$_Uninitialized_backout_al@V?$allocator@ULangMenuItem@@@std@@@std@@QEAAXAEAULangMenuItem@@@Z
pdata	ENDS
;	COMDAT pdata
pdata	SEGMENT
$pdata$??1?$_Uninitialized_backout_al@V?$allocator@UPluginDlgDockingInfo@@@std@@@std@@QEAA@XZ DD imagerel $LN24
	DD	imagerel $LN24+65
	DD	imagerel $unwind$??1?$_Uninitialized_backout_al@V?$allocator@UPluginDlgDockingInfo@@@std@@@std@@QEAA@XZ
pdata	ENDS
;	COMDAT pdata
pdata	SEGMENT
$pdata$??$_Emplace_back@AEAUPluginDlgDockingInfo@@@?$_Uninitialized_backout_al@V?$allocator@UPluginDlgDockingInfo@@@std@@@std@@QEAAXAEAUPluginDlgDockingInfo@@@Z DD imagerel $LN10
	DD	imagerel $LN10+85
	DD	imagerel $unwind$??$_Emplace_back@AEAUPluginDlgDockingInfo@@@?$_Uninitialized_backout_al@V?$allocator@UPluginDlgDockingInfo@@@std@@@std@@QEAAXAEAUPluginDlgDockingInfo@@@Z
pdata	ENDS
;	COMDAT pdata
pdata	SEGMENT
$pdata$??1?$_Uninitialized_backout_al@V?$allocator@UrecordedMacroStep@@@std@@@std@@QEAA@XZ DD imagerel $LN24
	DD	imagerel $LN24+66
	DD	imagerel $unwind$??1?$_Uninitialized_backout_al@V?$allocator@UrecordedMacroStep@@@std@@@std@@QEAA@XZ
pdata	ENDS
;	COMDAT pdata
pdata	SEGMENT
$pdata$??$_Emplace_back@AEAUrecordedMacroStep@@@?$_Uninitialized_backout_al@V?$allocator@UrecordedMacroStep@@@std@@@std@@QEAAXAEAUrecordedMacroStep@@@Z DD imagerel $LN10
	DD	imagerel $LN10+91
	DD	imagerel $unwind$??$_Emplace_back@AEAUrecordedMacroStep@@@?$_Uninitialized_backout_al@V?$allocator@UrecordedMacroStep@@@std@@@std@@QEAAXAEAUrecordedMacroStep@@@Z
pdata	ENDS
;	COMDAT pdata
pdata	SEGMENT
$pdata$??$_Copy_unchecked@PEAUrecordedMacroStep@@PEAU1@@std@@YAPEAUrecordedMacroStep@@PEAU1@00@Z DD imagerel $LN24
	DD	imagerel $LN24+21
	DD	imagerel $unwind$??$_Copy_unchecked@PEAUrecordedMacroStep@@PEAU1@@std@@YAPEAUrecordedMacroStep@@PEAU1@00@Z
pdata	ENDS
;	COMDAT pdata
pdata	SEGMENT
$pdata$1$??$_Copy_unchecked@PEAUrecordedMacroStep@@PEAU1@@std@@YAPEAUrecordedMacroStep@@PEAU1@00@Z DD imagerel $LN24+21
	DD	imagerel $LN24+136
	DD	imagerel $chain$1$??$_Copy_unchecked@PEAUrecordedMacroStep@@PEAU1@@std@@YAPEAUrecordedMacroStep@@PEAU1@00@Z
pdata	ENDS
;	COMDAT pdata
pdata	SEGMENT
$pdata$2$??$_Copy_unchecked@PEAUrecordedMacroStep@@PEAU1@@std@@YAPEAUrecordedMacroStep@@PEAU1@00@Z DD imagerel $LN24+136
	DD	imagerel $LN24+150
	DD	imagerel $chain$2$??$_Copy_unchecked@PEAUrecordedMacroStep@@PEAU1@@std@@YAPEAUrecordedMacroStep@@PEAU1@00@Z
pdata	ENDS
;	COMDAT pdata
pdata	SEGMENT
$pdata$??$_Copy_memmove@PEAPEAVBuffer@@PEAPEAV1@@std@@YAPEAPEAVBuffer@@PEAPEAV1@00@Z DD imagerel $LN4
	DD	imagerel $LN4+48
	DD	imagerel $unwind$??$_Copy_memmove@PEAPEAVBuffer@@PEAPEAV1@@std@@YAPEAPEAVBuffer@@PEAPEAV1@00@Z
pdata	ENDS
;	COMDAT pdata
pdata	SEGMENT
$pdata$??$_Emplace_back@UrecordedMacroStep@@@?$_Uninitialized_backout_al@V?$allocator@UrecordedMacroStep@@@std@@@std@@QEAAX$$QEAUrecordedMacroStep@@@Z DD imagerel $LN32
	DD	imagerel $LN32+91
	DD	imagerel $unwind$??$_Emplace_back@UrecordedMacroStep@@@?$_Uninitialized_backout_al@V?$allocator@UrecordedMacroStep@@@std@@@std@@QEAAX$$QEAUrecordedMacroStep@@@Z
pdata	ENDS
;	COMDAT pdata
pdata	SEGMENT
$pdata$??$?RAEAUTaskLstFnStatus@@AEAU0@@?$_Ref_fn@USortTaskListPred@@@std@@QEAA?A_TAEAUTaskLstFnStatus@@0@Z DD imagerel $LN6
	DD	imagerel $LN6+103
	DD	imagerel $unwind$??$?RAEAUTaskLstFnStatus@@AEAU0@@?$_Ref_fn@USortTaskListPred@@@std@@QEAA?A_TAEAUTaskLstFnStatus@@0@Z
pdata	ENDS
;	COMDAT pdata
pdata	SEGMENT
$pdata$??$_Move_backward_unchecked@PEAUTaskLstFnStatus@@PEAU1@@std@@YAPEAUTaskLstFnStatus@@PEAU1@00@Z DD imagerel $LN33
	DD	imagerel $LN33+22
	DD	imagerel $unwind$??$_Move_backward_unchecked@PEAUTaskLstFnStatus@@PEAU1@@std@@YAPEAUTaskLstFnStatus@@PEAU1@00@Z
pdata	ENDS
;	COMDAT pdata
pdata	SEGMENT
$pdata$3$??$_Move_backward_unchecked@PEAUTaskLstFnStatus@@PEAU1@@std@@YAPEAUTaskLstFnStatus@@PEAU1@00@Z DD imagerel $LN33+22
	DD	imagerel $LN33+173
	DD	imagerel $chain$3$??$_Move_backward_unchecked@PEAUTaskLstFnStatus@@PEAU1@@std@@YAPEAUTaskLstFnStatus@@PEAU1@00@Z
pdata	ENDS
;	COMDAT pdata
pdata	SEGMENT
$pdata$4$??$_Move_backward_unchecked@PEAUTaskLstFnStatus@@PEAU1@@std@@YAPEAUTaskLstFnStatus@@PEAU1@00@Z DD imagerel $LN33+173
	DD	imagerel $LN33+183
	DD	imagerel $chain$4$??$_Move_backward_unchecked@PEAUTaskLstFnStatus@@PEAU1@@std@@YAPEAUTaskLstFnStatus@@PEAU1@00@Z
pdata	ENDS
;	COMDAT pdata
pdata	SEGMENT
$pdata$??$_Pop_heap_hole_by_index@PEAUTaskLstFnStatus@@U1@U?$_Ref_fn@USortTaskListPred@@@std@@@std@@YAXPEAUTaskLstFnStatus@@_J1$$QEAU1@U?$_Ref_fn@USortTaskListPred@@@0@@Z DD imagerel $LN72
	DD	imagerel $LN72+587
	DD	imagerel $unwind$??$_Pop_heap_hole_by_index@PEAUTaskLstFnStatus@@U1@U?$_Ref_fn@USortTaskListPred@@@std@@@std@@YAXPEAUTaskLstFnStatus@@_J1$$QEAU1@U?$_Ref_fn@USortTaskListPred@@@0@@Z
pdata	ENDS
;	COMDAT pdata
pdata	SEGMENT
$pdata$??$_Pop_heap_unchecked@PEAUTaskLstFnStatus@@U?$_Ref_fn@USortTaskListPred@@@std@@@std@@YAXPEAUTaskLstFnStatus@@0U?$_Ref_fn@USortTaskListPred@@@0@@Z DD imagerel $LN67
	DD	imagerel $LN67+347
	DD	imagerel $unwind$??$_Pop_heap_unchecked@PEAUTaskLstFnStatus@@U?$_Ref_fn@USortTaskListPred@@@std@@@std@@YAXPEAUTaskLstFnStatus@@0U?$_Ref_fn@USortTaskListPred@@@0@@Z
pdata	ENDS
;	COMDAT pdata
pdata	SEGMENT
$pdata$??$_Guess_median_unchecked@PEAUTaskLstFnStatus@@U?$_Ref_fn@USortTaskListPred@@@std@@@std@@YAXPEAUTaskLstFnStatus@@00U?$_Ref_fn@USortTaskListPred@@@0@@Z DD imagerel $LN6
	DD	imagerel $LN6+65
	DD	imagerel $unwind$??$_Guess_median_unchecked@PEAUTaskLstFnStatus@@U?$_Ref_fn@USortTaskListPred@@@std@@@std@@YAXPEAUTaskLstFnStatus@@00U?$_Ref_fn@USortTaskListPred@@@0@@Z
pdata	ENDS
;	COMDAT pdata
pdata	SEGMENT
$pdata$3$??$_Guess_median_unchecked@PEAUTaskLstFnStatus@@U?$_Ref_fn@USortTaskListPred@@@std@@@std@@YAXPEAUTaskLstFnStatus@@00U?$_Ref_fn@USortTaskListPred@@@0@@Z DD imagerel $LN6+65
	DD	imagerel $LN6+210
	DD	imagerel $chain$3$??$_Guess_median_unchecked@PEAUTaskLstFnStatus@@U?$_Ref_fn@USortTaskListPred@@@std@@@std@@YAXPEAUTaskLstFnStatus@@00U?$_Ref_fn@USortTaskListPred@@@0@@Z
pdata	ENDS
;	COMDAT pdata
pdata	SEGMENT
$pdata$4$??$_Guess_median_unchecked@PEAUTaskLstFnStatus@@U?$_Ref_fn@USortTaskListPred@@@std@@@std@@YAXPEAUTaskLstFnStatus@@00U?$_Ref_fn@USortTaskListPred@@@0@@Z DD imagerel $LN6+210
	DD	imagerel $LN6+227
	DD	imagerel $chain$4$??$_Guess_median_unchecked@PEAUTaskLstFnStatus@@U?$_Ref_fn@USortTaskListPred@@@std@@@std@@YAXPEAUTaskLstFnStatus@@00U?$_Ref_fn@USortTaskListPred@@@0@@Z
pdata	ENDS
;	COMDAT pdata
pdata	SEGMENT
$pdata$??$iter_swap@PEAUTaskLstFnStatus@@PEAU1@@std@@YAXPEAUTaskLstFnStatus@@0@Z DD imagerel $LN88
	DD	imagerel $LN88+329
	DD	imagerel $unwind$??$iter_swap@PEAUTaskLstFnStatus@@PEAU1@@std@@YAXPEAUTaskLstFnStatus@@0@Z
pdata	ENDS
;	COMDAT pdata
pdata	SEGMENT
$pdata$??$construct@ULangMenuItem@@AEAU1@@?$_Default_allocator_traits@V?$allocator@ULangMenuItem@@@std@@@std@@SAXAEAV?$allocator@ULangMenuItem@@@1@QEAULangMenuItem@@AEAU3@@Z DD imagerel $LN8
	DD	imagerel $LN8+43
	DD	imagerel $unwind$??$construct@ULangMenuItem@@AEAU1@@?$_Default_allocator_traits@V?$allocator@ULangMenuItem@@@std@@@std@@SAXAEAV?$allocator@ULangMenuItem@@@1@QEAULangMenuItem@@AEAU3@@Z
pdata	ENDS
;	COMDAT pdata
pdata	SEGMENT
$pdata$??$construct@UPluginDlgDockingInfo@@AEAU1@@?$_Default_allocator_traits@V?$allocator@UPluginDlgDockingInfo@@@std@@@std@@SAXAEAV?$allocator@UPluginDlgDockingInfo@@@1@QEAUPluginDlgDockingInfo@@AEAU3@@Z DD imagerel $LN8
	DD	imagerel $LN8+69
	DD	imagerel $unwind$??$construct@UPluginDlgDockingInfo@@AEAU1@@?$_Default_allocator_traits@V?$allocator@UPluginDlgDockingInfo@@@std@@@std@@SAXAEAV?$allocator@UPluginDlgDockingInfo@@@1@QEAUPluginDlgDockingInfo@@AEAU3@@Z
pdata	ENDS
;	COMDAT pdata
pdata	SEGMENT
$pdata$??$construct@UrecordedMacroStep@@AEAU1@@?$_Default_allocator_traits@V?$allocator@UrecordedMacroStep@@@std@@@std@@SAXAEAV?$allocator@UrecordedMacroStep@@@1@QEAUrecordedMacroStep@@AEAU3@@Z DD imagerel $LN8
	DD	imagerel $LN8+73
	DD	imagerel $unwind$??$construct@UrecordedMacroStep@@AEAU1@@?$_Default_allocator_traits@V?$allocator@UrecordedMacroStep@@@std@@@std@@SAXAEAV?$allocator@UrecordedMacroStep@@@1@QEAUrecordedMacroStep@@AEAU3@@Z
pdata	ENDS
;	COMDAT pdata
pdata	SEGMENT
$pdata$??$_Push_heap_by_index@PEAUTaskLstFnStatus@@U1@U?$_Ref_fn@USortTaskListPred@@@std@@@std@@YAXPEAUTaskLstFnStatus@@_J1$$QEAU1@U?$_Ref_fn@USortTaskListPred@@@0@@Z DD imagerel $LN37
	DD	imagerel $LN37+45
	DD	imagerel $unwind$??$_Push_heap_by_index@PEAUTaskLstFnStatus@@U1@U?$_Ref_fn@USortTaskListPred@@@std@@@std@@YAXPEAUTaskLstFnStatus@@_J1$$QEAU1@U?$_Ref_fn@USortTaskListPred@@@0@@Z
pdata	ENDS
;	COMDAT pdata
pdata	SEGMENT
$pdata$2$??$_Push_heap_by_index@PEAUTaskLstFnStatus@@U1@U?$_Ref_fn@USortTaskListPred@@@std@@@std@@YAXPEAUTaskLstFnStatus@@_J1$$QEAU1@U?$_Ref_fn@USortTaskListPred@@@0@@Z DD imagerel $LN37+45
	DD	imagerel $LN37+265
	DD	imagerel $chain$2$??$_Push_heap_by_index@PEAUTaskLstFnStatus@@U1@U?$_Ref_fn@USortTaskListPred@@@std@@@std@@YAXPEAUTaskLstFnStatus@@_J1$$QEAU1@U?$_Ref_fn@USortTaskListPred@@@0@@Z
pdata	ENDS
;	COMDAT pdata
pdata	SEGMENT
$pdata$3$??$_Push_heap_by_index@PEAUTaskLstFnStatus@@U1@U?$_Ref_fn@USortTaskListPred@@@std@@@std@@YAXPEAUTaskLstFnStatus@@_J1$$QEAU1@U?$_Ref_fn@USortTaskListPred@@@0@@Z DD imagerel $LN37+265
	DD	imagerel $LN37+292
	DD	imagerel $chain$3$??$_Push_heap_by_index@PEAUTaskLstFnStatus@@U1@U?$_Ref_fn@USortTaskListPred@@@std@@@std@@YAXPEAUTaskLstFnStatus@@_J1$$QEAU1@U?$_Ref_fn@USortTaskListPred@@@0@@Z
pdata	ENDS
;	COMDAT pdata
pdata	SEGMENT
$pdata$??$_Pop_heap_hole_unchecked@PEAUTaskLstFnStatus@@U1@U?$_Ref_fn@USortTaskListPred@@@std@@@std@@YAXPEAUTaskLstFnStatus@@00$$QEAU1@U?$_Ref_fn@USortTaskListPred@@@0@@Z DD imagerel $LN4
	DD	imagerel $LN4+93
	DD	imagerel $unwind$??$_Pop_heap_hole_unchecked@PEAUTaskLstFnStatus@@U1@U?$_Ref_fn@USortTaskListPred@@@std@@@std@@YAXPEAUTaskLstFnStatus@@00$$QEAU1@U?$_Ref_fn@USortTaskListPred@@@0@@Z
pdata	ENDS
;	COMDAT pdata
pdata	SEGMENT
$pdata$??$_Med3_unchecked@PEAUTaskLstFnStatus@@U?$_Ref_fn@USortTaskListPred@@@std@@@std@@YAXPEAUTaskLstFnStatus@@00U?$_Ref_fn@USortTaskListPred@@@0@@Z DD imagerel $LN19
	DD	imagerel $LN19+283
	DD	imagerel $unwind$??$_Med3_unchecked@PEAUTaskLstFnStatus@@U?$_Ref_fn@USortTaskListPred@@@std@@@std@@YAXPEAUTaskLstFnStatus@@00U?$_Ref_fn@USortTaskListPred@@@0@@Z
pdata	ENDS
;	COMDAT pdata
pdata	SEGMENT
$pdata$??$swap@UTaskLstFnStatus@@$0A@@std@@YAXAEAUTaskLstFnStatus@@0@Z DD imagerel $LN85
	DD	imagerel $LN85+329
	DD	imagerel $unwind$??$swap@UTaskLstFnStatus@@$0A@@std@@YAXAEAUTaskLstFnStatus@@0@Z
pdata	ENDS
;	COMDAT __xmm@00000000000000070000000000000000
CONST	SEGMENT
__xmm@00000000000000070000000000000000 DB 00H, 00H, 00H, 00H, 00H, 00H, 00H
	DB	00H, 07H, 00H, 00H, 00H, 00H, 00H, 00H, 00H
CONST	ENDS
;	COMDAT ??_R1A@?0A@EA@BabyGridWrapper@@8
rdata$r	SEGMENT
??_R1A@?0A@EA@BabyGridWrapper@@8 DD imagerel ??_R0?AVBabyGridWrapper@@@8 ; BabyGridWrapper::`RTTI Base Class Descriptor at (0,-1,0,64)'
	DD	01H
	DD	00H
	DD	0ffffffffH
	DD	00H
	DD	040H
	DD	imagerel ??_R3BabyGridWrapper@@8
rdata$r	ENDS
;	COMDAT ??_R2BabyGridWrapper@@8
rdata$r	SEGMENT
??_R2BabyGridWrapper@@8 DD imagerel ??_R1A@?0A@EA@BabyGridWrapper@@8 ; BabyGridWrapper::`RTTI Base Class Array'
	DD	imagerel ??_R1A@?0A@EA@Window@@8
	ORG $+3
rdata$r	ENDS
;	COMDAT ??_R3BabyGridWrapper@@8
rdata$r	SEGMENT
??_R3BabyGridWrapper@@8 DD 00H				; BabyGridWrapper::`RTTI Class Hierarchy Descriptor'
	DD	00H
	DD	02H
	DD	imagerel ??_R2BabyGridWrapper@@8
rdata$r	ENDS
;	COMDAT ??_R0?AVBabyGridWrapper@@@8
data$rs	SEGMENT
??_R0?AVBabyGridWrapper@@@8 DQ FLAT:??_7type_info@@6B@	; BabyGridWrapper `RTTI Type Descriptor'
	DQ	0000000000000000H
	DB	'.?AVBabyGridWrapper@@', 00H
data$rs	ENDS
;	COMDAT ??_R4BabyGridWrapper@@6B@
rdata$r	SEGMENT
??_R4BabyGridWrapper@@6B@ DD 01H			; BabyGridWrapper::`RTTI Complete Object Locator'
	DD	00H
	DD	00H
	DD	imagerel ??_R0?AVBabyGridWrapper@@@8
	DD	imagerel ??_R3BabyGridWrapper@@8
	DD	imagerel ??_R4BabyGridWrapper@@6B@
rdata$r	ENDS
;	COMDAT ??_R1A@?0A@EA@ShortcutMapper@@8
rdata$r	SEGMENT
??_R1A@?0A@EA@ShortcutMapper@@8 DD imagerel ??_R0?AVShortcutMapper@@@8 ; ShortcutMapper::`RTTI Base Class Descriptor at (0,-1,0,64)'
	DD	02H
	DD	00H
	DD	0ffffffffH
	DD	00H
	DD	040H
	DD	imagerel ??_R3ShortcutMapper@@8
rdata$r	ENDS
;	COMDAT ??_R2ShortcutMapper@@8
rdata$r	SEGMENT
??_R2ShortcutMapper@@8 DD imagerel ??_R1A@?0A@EA@ShortcutMapper@@8 ; ShortcutMapper::`RTTI Base Class Array'
	DD	imagerel ??_R1A@?0A@EA@StaticDialog@@8
	DD	imagerel ??_R1A@?0A@EA@Window@@8
	ORG $+3
rdata$r	ENDS
;	COMDAT ??_R3ShortcutMapper@@8
rdata$r	SEGMENT
??_R3ShortcutMapper@@8 DD 00H				; ShortcutMapper::`RTTI Class Hierarchy Descriptor'
	DD	00H
	DD	03H
	DD	imagerel ??_R2ShortcutMapper@@8
rdata$r	ENDS
;	COMDAT ??_R0?AVShortcutMapper@@@8
data$rs	SEGMENT
??_R0?AVShortcutMapper@@@8 DQ FLAT:??_7type_info@@6B@	; ShortcutMapper `RTTI Type Descriptor'
	DQ	0000000000000000H
	DB	'.?AVShortcutMapper@@', 00H
data$rs	ENDS
;	COMDAT ??_R4ShortcutMapper@@6B@
rdata$r	SEGMENT
??_R4ShortcutMapper@@6B@ DD 01H				; ShortcutMapper::`RTTI Complete Object Locator'
	DD	00H
	DD	00H
	DD	imagerel ??_R0?AVShortcutMapper@@@8
	DD	imagerel ??_R3ShortcutMapper@@8
	DD	imagerel ??_R4ShortcutMapper@@6B@
rdata$r	ENDS
;	COMDAT ??_R1A@?0A@EA@StaticDialog@@8
rdata$r	SEGMENT
??_R1A@?0A@EA@StaticDialog@@8 DD imagerel ??_R0?AVStaticDialog@@@8 ; StaticDialog::`RTTI Base Class Descriptor at (0,-1,0,64)'
	DD	01H
	DD	00H
	DD	0ffffffffH
	DD	00H
	DD	040H
	DD	imagerel ??_R3StaticDialog@@8
rdata$r	ENDS
;	COMDAT ??_R2StaticDialog@@8
rdata$r	SEGMENT
??_R2StaticDialog@@8 DD imagerel ??_R1A@?0A@EA@StaticDialog@@8 ; StaticDialog::`RTTI Base Class Array'
	DD	imagerel ??_R1A@?0A@EA@Window@@8
	ORG $+3
rdata$r	ENDS
;	COMDAT ??_R3StaticDialog@@8
rdata$r	SEGMENT
??_R3StaticDialog@@8 DD 00H				; StaticDialog::`RTTI Class Hierarchy Descriptor'
	DD	00H
	DD	02H
	DD	imagerel ??_R2StaticDialog@@8
rdata$r	ENDS
;	COMDAT ??_R0?AVStaticDialog@@@8
data$rs	SEGMENT
??_R0?AVStaticDialog@@@8 DQ FLAT:??_7type_info@@6B@	; StaticDialog `RTTI Type Descriptor'
	DQ	0000000000000000H
	DB	'.?AVStaticDialog@@', 00H
data$rs	ENDS
;	COMDAT ??_R4StaticDialog@@6B@
rdata$r	SEGMENT
??_R4StaticDialog@@6B@ DD 01H				; StaticDialog::`RTTI Complete Object Locator'
	DD	00H
	DD	00H
	DD	imagerel ??_R0?AVStaticDialog@@@8
	DD	imagerel ??_R3StaticDialog@@8
	DD	imagerel ??_R4StaticDialog@@6B@
rdata$r	ENDS
;	COMDAT ??_R1A@?0A@EA@Window@@8
rdata$r	SEGMENT
??_R1A@?0A@EA@Window@@8 DD imagerel ??_R0?AVWindow@@@8	; Window::`RTTI Base Class Descriptor at (0,-1,0,64)'
	DD	00H
	DD	00H
	DD	0ffffffffH
	DD	00H
	DD	040H
	DD	imagerel ??_R3Window@@8
rdata$r	ENDS
;	COMDAT ??_R2Window@@8
rdata$r	SEGMENT
??_R2Window@@8 DD imagerel ??_R1A@?0A@EA@Window@@8	; Window::`RTTI Base Class Array'
	ORG $+3
rdata$r	ENDS
;	COMDAT ??_R3Window@@8
rdata$r	SEGMENT
??_R3Window@@8 DD 00H					; Window::`RTTI Class Hierarchy Descriptor'
	DD	00H
	DD	01H
	DD	imagerel ??_R2Window@@8
rdata$r	ENDS
;	COMDAT ??_R0?AVWindow@@@8
data$rs	SEGMENT
??_R0?AVWindow@@@8 DQ FLAT:??_7type_info@@6B@		; Window `RTTI Type Descriptor'
	DQ	0000000000000000H
	DB	'.?AVWindow@@', 00H
data$rs	ENDS
;	COMDAT ??_R4Window@@6B@
rdata$r	SEGMENT
??_R4Window@@6B@ DD 01H					; Window::`RTTI Complete Object Locator'
	DD	00H
	DD	00H
	DD	imagerel ??_R0?AVWindow@@@8
	DD	imagerel ??_R3Window@@8
	DD	imagerel ??_R4Window@@6B@
rdata$r	ENDS
;	COMDAT ??_R1A@?0A@EA@bad_array_new_length@std@@8
rdata$r	SEGMENT
??_R1A@?0A@EA@bad_array_new_length@std@@8 DD imagerel ??_R0?AVbad_array_new_length@std@@@8 ; std::bad_array_new_length::`RTTI Base Class Descriptor at (0,-1,0,64)'
	DD	02H
	DD	00H
	DD	0ffffffffH
	DD	00H
	DD	040H
	DD	imagerel ??_R3bad_array_new_length@std@@8
rdata$r	ENDS
;	COMDAT ??_R2bad_array_new_length@std@@8
rdata$r	SEGMENT
??_R2bad_array_new_length@std@@8 DD imagerel ??_R1A@?0A@EA@bad_array_new_length@std@@8 ; std::bad_array_new_length::`RTTI Base Class Array'
	DD	imagerel ??_R1A@?0A@EA@bad_alloc@std@@8
	DD	imagerel ??_R1A@?0A@EA@exception@std@@8
	ORG $+3
rdata$r	ENDS
;	COMDAT ??_R3bad_array_new_length@std@@8
rdata$r	SEGMENT
??_R3bad_array_new_length@std@@8 DD 00H			; std::bad_array_new_length::`RTTI Class Hierarchy Descriptor'
	DD	00H
	DD	03H
	DD	imagerel ??_R2bad_array_new_length@std@@8
rdata$r	ENDS
;	COMDAT ??_R4bad_array_new_length@std@@6B@
rdata$r	SEGMENT
??_R4bad_array_new_length@std@@6B@ DD 01H		; std::bad_array_new_length::`RTTI Complete Object Locator'
	DD	00H
	DD	00H
	DD	imagerel ??_R0?AVbad_array_new_length@std@@@8
	DD	imagerel ??_R3bad_array_new_length@std@@8
	DD	imagerel ??_R4bad_array_new_length@std@@6B@
rdata$r	ENDS
;	COMDAT ??_R1A@?0A@EA@bad_alloc@std@@8
rdata$r	SEGMENT
??_R1A@?0A@EA@bad_alloc@std@@8 DD imagerel ??_R0?AVbad_alloc@std@@@8 ; std::bad_alloc::`RTTI Base Class Descriptor at (0,-1,0,64)'
	DD	01H
	DD	00H
	DD	0ffffffffH
	DD	00H
	DD	040H
	DD	imagerel ??_R3bad_alloc@std@@8
rdata$r	ENDS
;	COMDAT ??_R2bad_alloc@std@@8
rdata$r	SEGMENT
??_R2bad_alloc@std@@8 DD imagerel ??_R1A@?0A@EA@bad_alloc@std@@8 ; std::bad_alloc::`RTTI Base Class Array'
	DD	imagerel ??_R1A@?0A@EA@exception@std@@8
	ORG $+3
rdata$r	ENDS
;	COMDAT ??_R3bad_alloc@std@@8
rdata$r	SEGMENT
??_R3bad_alloc@std@@8 DD 00H				; std::bad_alloc::`RTTI Class Hierarchy Descriptor'
	DD	00H
	DD	02H
	DD	imagerel ??_R2bad_alloc@std@@8
rdata$r	ENDS
;	COMDAT ??_R4bad_alloc@std@@6B@
rdata$r	SEGMENT
??_R4bad_alloc@std@@6B@ DD 01H				; std::bad_alloc::`RTTI Complete Object Locator'
	DD	00H
	DD	00H
	DD	imagerel ??_R0?AVbad_alloc@std@@@8
	DD	imagerel ??_R3bad_alloc@std@@8
	DD	imagerel ??_R4bad_alloc@std@@6B@
rdata$r	ENDS
;	COMDAT ??_R1A@?0A@EA@exception@std@@8
rdata$r	SEGMENT
??_R1A@?0A@EA@exception@std@@8 DD imagerel ??_R0?AVexception@std@@@8 ; std::exception::`RTTI Base Class Descriptor at (0,-1,0,64)'
	DD	00H
	DD	00H
	DD	0ffffffffH
	DD	00H
	DD	040H
	DD	imagerel ??_R3exception@std@@8
rdata$r	ENDS
;	COMDAT ??_R2exception@std@@8
rdata$r	SEGMENT
??_R2exception@std@@8 DD imagerel ??_R1A@?0A@EA@exception@std@@8 ; std::exception::`RTTI Base Class Array'
	ORG $+3
rdata$r	ENDS
;	COMDAT ??_R3exception@std@@8
rdata$r	SEGMENT
??_R3exception@std@@8 DD 00H				; std::exception::`RTTI Class Hierarchy Descriptor'
	DD	00H
	DD	01H
	DD	imagerel ??_R2exception@std@@8
rdata$r	ENDS
;	COMDAT ??_R4exception@std@@6B@
rdata$r	SEGMENT
??_R4exception@std@@6B@ DD 01H				; std::exception::`RTTI Complete Object Locator'
	DD	00H
	DD	00H
	DD	imagerel ??_R0?AVexception@std@@@8
	DD	imagerel ??_R3exception@std@@8
	DD	imagerel ??_R4exception@std@@6B@
rdata$r	ENDS
;	COMDAT ??_C@_0BA@FOIKENOD@vector?5too?5long@
CONST	SEGMENT
??_C@_0BA@FOIKENOD@vector?5too?5long@ DB 'vector too long', 00H ; `string'
CONST	ENDS
;	COMDAT ??_C@_1BI@KEEMGJFF@?$AAE?$AAd?$AAg?$AAe?$AA?5?$AAc?$AAo?$AAl?$AAo?$AAu?$AAr@
CONST	SEGMENT
??_C@_1BI@KEEMGJFF@?$AAE?$AAd?$AAg?$AAe?$AA?5?$AAc?$AAo?$AAl?$AAo?$AAu?$AAr@ DB 'E'
	DB	00H, 'd', 00H, 'g', 00H, 'e', 00H, ' ', 00H, 'c', 00H, 'o', 00H
	DB	'l', 00H, 'o', 00H, 'u', 00H, 'r', 00H, 00H, 00H ; `string'
CONST	ENDS
;	COMDAT ??_C@_0BF@ONOGFCGL@SettingsOnCloudError@
CONST	SEGMENT
??_C@_0BF@ONOGFCGL@SettingsOnCloudError@ DB 'SettingsOnCloudError', 00H ; `string'
CONST	ENDS
;	COMDAT ??_C@_1BLK@LDFJFIML@?$AAI?$AAt?$AA?5?$AAs?$AAe?$AAe?$AAm?$AAs?$AA?5?$AAt?$AAh?$AAe?$AA?5?$AAp?$AAa@
CONST	SEGMENT
??_C@_1BLK@LDFJFIML@?$AAI?$AAt?$AA?5?$AAs?$AAe?$AAe?$AAm?$AAs?$AA?5?$AAt?$AAh?$AAe?$AA?5?$AAp?$AAa@ DB 'I'
	DB	00H, 't', 00H, ' ', 00H, 's', 00H, 'e', 00H, 'e', 00H, 'm', 00H
	DB	's', 00H, ' ', 00H, 't', 00H, 'h', 00H, 'e', 00H, ' ', 00H, 'p'
	DB	00H, 'a', 00H, 't', 00H, 'h', 00H, ' ', 00H, 'o', 00H, 'f', 00H
	DB	' ', 00H, 's', 00H, 'e', 00H, 't', 00H, 't', 00H, 'i', 00H, 'n'
	DB	00H, 'g', 00H, 's', 00H, ' ', 00H, 'o', 00H, 'n', 00H, ' ', 00H
	DB	'c', 00H, 'l', 00H, 'o', 00H, 'u', 00H, 'd', 00H, ' ', 00H, 'i'
	DB	00H, 's', 00H, ' ', 00H, 's', 00H, 'e', 00H, 't', 00H, ' ', 00H
	DB	'o', 00H, 'n', 00H, ' ', 00H, 'a', 00H, ' ', 00H, 'r', 00H, 'e'
	DB	00H, 'a', 00H, 'd', 00H, ' ', 00H, 'o', 00H, 'n', 00H, 'l', 00H
	DB	'y', 00H, ' ', 00H, 'd', 00H, 'r', 00H, 'i', 00H, 'v', 00H, 'e'
	DB	00H, ',', 00H, 0dH, 00H, 'o', 00H, 'r', 00H, ' ', 00H, 'o', 00H
	DB	'n', 00H, ' ', 00H, 'a', 00H, ' ', 00H, 'f', 00H, 'o', 00H, 'l'
	DB	00H, 'd', 00H, 'e', 00H, 'r', 00H, ' ', 00H, 'n', 00H, 'e', 00H
	DB	'e', 00H, 'd', 00H, 'e', 00H, 'd', 00H, ' ', 00H, 'p', 00H, 'r'
	DB	00H, 'i', 00H, 'v', 00H, 'i', 00H, 'l', 00H, 'e', 00H, 'g', 00H
	DB	'e', 00H, ' ', 00H, 'r', 00H, 'i', 00H, 'g', 00H, 'h', 00H, 't'
	DB	00H, ' ', 00H, 'f', 00H, 'o', 00H, 'r', 00H, ' ', 00H, 'w', 00H
	DB	'r', 00H, 'i', 00H, 't', 00H, 't', 00H, 'i', 00H, 'n', 00H, 'g'
	DB	00H, ' ', 00H, 'a', 00H, 'c', 00H, 'c', 00H, 'e', 00H, 's', 00H
	DB	's', 00H, '.', 00H, 0dH, 00H, 'Y', 00H, 'o', 00H, 'u', 00H, 'r'
	DB	00H, ' ', 00H, 's', 00H, 'e', 00H, 't', 00H, 't', 00H, 'i', 00H
	DB	'n', 00H, 'g', 00H, 's', 00H, ' ', 00H, 'o', 00H, 'n', 00H, ' '
	DB	00H, 'c', 00H, 'l', 00H, 'o', 00H, 'u', 00H, 'd', 00H, ' ', 00H
	DB	'w', 00H, 'i', 00H, 'l', 00H, 'l', 00H, ' ', 00H, 'b', 00H, 'e'
	DB	00H, ' ', 00H, 'c', 00H, 'a', 00H, 'n', 00H, 'c', 00H, 'e', 00H
	DB	'l', 00H, 'e', 00H, 'd', 00H, '.', 00H, ' ', 00H, 'P', 00H, 'l'
	DB	00H, 'e', 00H, 'a', 00H, 's', 00H, 'e', 00H, ' ', 00H, 'r', 00H
	DB	'e', 00H, 's', 00H, 'e', 00H, 't', 00H, ' ', 00H, 'a', 00H, ' '
	DB	00H, 'c', 00H, 'o', 00H, 'h', 00H, 'e', 00H, 'r', 00H, 'e', 00H
	DB	'n', 00H, 't', 00H, ' ', 00H, 'v', 00H, 'a', 00H, 'l', 00H, 'u'
	DB	00H, 'e', 00H, ' ', 00H, 'v', 00H, 'i', 00H, 'a', 00H, ' ', 00H
	DB	'P', 00H, 'r', 00H, 'e', 00H, 'f', 00H, 'e', 00H, 'r', 00H, 'e'
	DB	00H, 'n', 00H, 'c', 00H, 'e', 00H, ' ', 00H, 'd', 00H, 'i', 00H
	DB	'a', 00H, 'l', 00H, 'o', 00H, 'g', 00H, '.', 00H, 00H, 00H ; `string'
CONST	ENDS
;	COMDAT ??_C@_1CE@OLIFPOLL@?$AAS?$AAe?$AAt?$AAt?$AAi?$AAn?$AAg?$AAs?$AA?5?$AAo?$AAn?$AA?5?$AAC?$AAl?$AAo@
CONST	SEGMENT
??_C@_1CE@OLIFPOLL@?$AAS?$AAe?$AAt?$AAt?$AAi?$AAn?$AAg?$AAs?$AA?5?$AAo?$AAn?$AA?5?$AAC?$AAl?$AAo@ DB 'S'
	DB	00H, 'e', 00H, 't', 00H, 't', 00H, 'i', 00H, 'n', 00H, 'g', 00H
	DB	's', 00H, ' ', 00H, 'o', 00H, 'n', 00H, ' ', 00H, 'C', 00H, 'l'
	DB	00H, 'o', 00H, 'u', 00H, 'd', 00H, 00H, 00H	; `string'
CONST	ENDS
;	COMDAT ??_C@_1M@EBNKMNOC@?$AA8?$AA?4?$AA1?$AA1?$AA?$AA@
CONST	SEGMENT
??_C@_1M@EBNKMNOC@?$AA8?$AA?4?$AA1?$AA1?$AA?$AA@ DB '8', 00H, '.', 00H, '1'
	DB	00H, '1', 00H, 00H, 00H, 00H, 00H		; `string'
CONST	ENDS
;	COMDAT ??_C@_1BK@BFONLOAD@?$AA?5?$AA?7?$AA?3?$AA?$CI?$AA?$CJ?$AA?$FL?$AA?$FN?$AA?$DM?$AA?$DO?$AA?$CC?$AA?$AN?$AA?6@
CONST	SEGMENT
??_C@_1BK@BFONLOAD@?$AA?5?$AA?7?$AA?3?$AA?$CI?$AA?$CJ?$AA?$FL?$AA?$FN?$AA?$DM?$AA?$DO?$AA?$CC?$AA?$AN?$AA?6@ DB ' '
	DB	00H, 09H, 00H, ':', 00H, '(', 00H, ')', 00H, '[', 00H, ']', 00H
	DB	'<', 00H, '>', 00H, '"', 00H, 0dH, 00H, 0aH, 00H, 00H, 00H ; `string'
CONST	ENDS
;	COMDAT ??_C@_1BA@GDFBKANO@?$AA?5?$AA?7?$AA?$FL?$AA?$CI?$AA?$CC?$AA?$DM?$AA?$DO@
CONST	SEGMENT
??_C@_1BA@GDFBKANO@?$AA?5?$AA?7?$AA?$FL?$AA?$CI?$AA?$CC?$AA?$DM?$AA?$DO@ DB ' '
	DB	00H, 09H, 00H, '[', 00H, '(', 00H, '"', 00H, '<', 00H, '>', 00H
	DB	00H, 00H					; `string'
CONST	ENDS
;	COMDAT ??_C@_15MNCACJLI@?$AA?2?$AA?1@
CONST	SEGMENT
??_C@_15MNCACJLI@?$AA?2?$AA?1@ DB '\', 00H, '/', 00H, 00H, 00H ; `string'
CONST	ENDS
;	COMDAT ??_C@_04OLJIFFAL@Find@
CONST	SEGMENT
??_C@_04OLJIFFAL@Find@ DB 'Find', 00H			; `string'
CONST	ENDS
;	COMDAT ??_C@_0BH@GEANJPBI@Exception?5On?5WM_CREATE@
CONST	SEGMENT
??_C@_0BH@GEANJPBI@Exception?5On?5WM_CREATE@ DB 'Exception On WM_CREATE', 00H ; `string'
CONST	ENDS
;	COMDAT ??_7ShortcutMapper@@6B@
CONST	SEGMENT
??_7ShortcutMapper@@6B@ DQ FLAT:??_R4ShortcutMapper@@6B@ ; ShortcutMapper::`vftable'
	DQ	FLAT:??_EShortcutMapper@@UEAAPEAXI@Z
	DQ	FLAT:?init@Window@@UEAAXPEAUHINSTANCE__@@PEAUHWND__@@@Z
	DQ	FLAT:?destroy@ShortcutMapper@@UEAAXXZ
	DQ	FLAT:?display@Window@@UEBAX_N@Z
	DQ	FLAT:?reSizeTo@Window@@UEAAXAEAUtagRECT@@@Z
	DQ	FLAT:?reSizeToWH@Window@@UEAAXAEAUtagRECT@@@Z
	DQ	FLAT:?redraw@Window@@UEBAX_N@Z
	DQ	FLAT:?getClientRect@ShortcutMapper@@UEBAXAEAUtagRECT@@@Z
	DQ	FLAT:?getWindowRect@Window@@UEBAXAEAUtagRECT@@@Z
	DQ	FLAT:?getWidth@Window@@UEBAHXZ
	DQ	FLAT:?getHeight@Window@@UEBAHXZ
	DQ	FLAT:?isVisible@Window@@UEBA_NXZ
	DQ	FLAT:?create@StaticDialog@@UEAAXH_N0@Z
	DQ	FLAT:?isCreated@StaticDialog@@UEBA_NXZ
	DQ	FLAT:?run_dlgProc@ShortcutMapper@@MEAA_JI_K_J@Z
CONST	ENDS
;	COMDAT ??_7BabyGridWrapper@@6B@
CONST	SEGMENT
??_7BabyGridWrapper@@6B@ DQ FLAT:??_R4BabyGridWrapper@@6B@ ; BabyGridWrapper::`vftable'
	DQ	FLAT:??_EBabyGridWrapper@@UEAAPEAXI@Z
	DQ	FLAT:?init@Window@@UEAAXPEAUHINSTANCE__@@PEAUHWND__@@@Z
	DQ	FLAT:?destroy@BabyGridWrapper@@UEAAXXZ
	DQ	FLAT:?display@Window@@UEBAX_N@Z
	DQ	FLAT:?reSizeTo@Window@@UEAAXAEAUtagRECT@@@Z
	DQ	FLAT:?reSizeToWH@Window@@UEAAXAEAUtagRECT@@@Z
	DQ	FLAT:?redraw@Window@@UEBAX_N@Z
	DQ	FLAT:?getClientRect@Window@@UEBAXAEAUtagRECT@@@Z
	DQ	FLAT:?getWindowRect@Window@@UEBAXAEAUtagRECT@@@Z
	DQ	FLAT:?getWidth@Window@@UEBAHXZ
	DQ	FLAT:?getHeight@Window@@UEBAHXZ
	DQ	FLAT:?isVisible@Window@@UEBA_NXZ
	DQ	FLAT:?init@BabyGridWrapper@@UEAAXPEAUHINSTANCE__@@PEAUHWND__@@F@Z
CONST	ENDS
;	COMDAT ??_7StaticDialog@@6B@
CONST	SEGMENT
??_7StaticDialog@@6B@ DQ FLAT:??_R4StaticDialog@@6B@	; StaticDialog::`vftable'
	DQ	FLAT:??_EStaticDialog@@UEAAPEAXI@Z
	DQ	FLAT:?init@Window@@UEAAXPEAUHINSTANCE__@@PEAUHWND__@@@Z
	DQ	FLAT:?destroy@StaticDialog@@UEAAXXZ
	DQ	FLAT:?display@Window@@UEBAX_N@Z
	DQ	FLAT:?reSizeTo@Window@@UEAAXAEAUtagRECT@@@Z
	DQ	FLAT:?reSizeToWH@Window@@UEAAXAEAUtagRECT@@@Z
	DQ	FLAT:?redraw@Window@@UEBAX_N@Z
	DQ	FLAT:?getClientRect@Window@@UEBAXAEAUtagRECT@@@Z
	DQ	FLAT:?getWindowRect@Window@@UEBAXAEAUtagRECT@@@Z
	DQ	FLAT:?getWidth@Window@@UEBAHXZ
	DQ	FLAT:?getHeight@Window@@UEBAHXZ
	DQ	FLAT:?isVisible@Window@@UEBA_NXZ
	DQ	FLAT:?create@StaticDialog@@UEAAXH_N0@Z
	DQ	FLAT:?isCreated@StaticDialog@@UEBA_NXZ
	DQ	FLAT:_purecall
CONST	ENDS
;	COMDAT ??_7Window@@6B@
CONST	SEGMENT
??_7Window@@6B@ DQ FLAT:??_R4Window@@6B@		; Window::`vftable'
	DQ	FLAT:??_EWindow@@UEAAPEAXI@Z
	DQ	FLAT:?init@Window@@UEAAXPEAUHINSTANCE__@@PEAUHWND__@@@Z
	DQ	FLAT:_purecall
	DQ	FLAT:?display@Window@@UEBAX_N@Z
	DQ	FLAT:?reSizeTo@Window@@UEAAXAEAUtagRECT@@@Z
	DQ	FLAT:?reSizeToWH@Window@@UEAAXAEAUtagRECT@@@Z
	DQ	FLAT:?redraw@Window@@UEBAX_N@Z
	DQ	FLAT:?getClientRect@Window@@UEBAXAEAUtagRECT@@@Z
	DQ	FLAT:?getWindowRect@Window@@UEBAXAEAUtagRECT@@@Z
	DQ	FLAT:?getWidth@Window@@UEBAHXZ
	DQ	FLAT:?getHeight@Window@@UEBAHXZ
	DQ	FLAT:?isVisible@Window@@UEBA_NXZ
CONST	ENDS
;	COMDAT ??_C@_11LOCGONAA@@
CONST	SEGMENT
??_C@_11LOCGONAA@@ DB 00H, 00H				; `string'
CONST	ENDS
;	COMDAT ??_C@_0BA@JFNIOLAK@string?5too?5long@
CONST	SEGMENT
??_C@_0BA@JFNIOLAK@string?5too?5long@ DB 'string too long', 00H ; `string'
CONST	ENDS
;	COMDAT _CT??_R0?AVexception@std@@@8??0exception@std@@QEAA@AEBV01@@Z24
xdata$x	SEGMENT
_CT??_R0?AVexception@std@@@8??0exception@std@@QEAA@AEBV01@@Z24 DD 00H
	DD	imagerel ??_R0?AVexception@std@@@8
	DD	00H
	DD	0ffffffffH
	ORG $+4
	DD	018H
	DD	imagerel ??0exception@std@@QEAA@AEBV01@@Z
xdata$x	ENDS
;	COMDAT ??_R0?AVexception@std@@@8
data$r	SEGMENT
??_R0?AVexception@std@@@8 DQ FLAT:??_7type_info@@6B@	; std::exception `RTTI Type Descriptor'
	DQ	0000000000000000H
	DB	'.?AVexception@std@@', 00H
data$r	ENDS
;	COMDAT _CT??_R0?AVbad_alloc@std@@@8??0bad_alloc@std@@QEAA@AEBV01@@Z24
xdata$x	SEGMENT
_CT??_R0?AVbad_alloc@std@@@8??0bad_alloc@std@@QEAA@AEBV01@@Z24 DD 010H
	DD	imagerel ??_R0?AVbad_alloc@std@@@8
	DD	00H
	DD	0ffffffffH
	ORG $+4
	DD	018H
	DD	imagerel ??0bad_alloc@std@@QEAA@AEBV01@@Z
xdata$x	ENDS
;	COMDAT ??_R0?AVbad_alloc@std@@@8
data$r	SEGMENT
??_R0?AVbad_alloc@std@@@8 DQ FLAT:??_7type_info@@6B@	; std::bad_alloc `RTTI Type Descriptor'
	DQ	0000000000000000H
	DB	'.?AVbad_alloc@std@@', 00H
data$r	ENDS
;	COMDAT _CT??_R0?AVbad_array_new_length@std@@@8??0bad_array_new_length@std@@QEAA@AEBV01@@Z24
xdata$x	SEGMENT
_CT??_R0?AVbad_array_new_length@std@@@8??0bad_array_new_length@std@@QEAA@AEBV01@@Z24 DD 00H
	DD	imagerel ??_R0?AVbad_array_new_length@std@@@8
	DD	00H
	DD	0ffffffffH
	ORG $+4
	DD	018H
	DD	imagerel ??0bad_array_new_length@std@@QEAA@AEBV01@@Z
xdata$x	ENDS
;	COMDAT ??_R0?AVbad_array_new_length@std@@@8
data$r	SEGMENT
??_R0?AVbad_array_new_length@std@@@8 DQ FLAT:??_7type_info@@6B@ ; std::bad_array_new_length `RTTI Type Descriptor'
	DQ	0000000000000000H
	DB	'.?AVbad_array_new_length@std@@', 00H
data$r	ENDS
;	COMDAT _CTA3?AVbad_array_new_length@std@@
xdata$x	SEGMENT
_CTA3?AVbad_array_new_length@std@@ DD 03H
	DD	imagerel _CT??_R0?AVbad_array_new_length@std@@@8??0bad_array_new_length@std@@QEAA@AEBV01@@Z24
	DD	imagerel _CT??_R0?AVbad_alloc@std@@@8??0bad_alloc@std@@QEAA@AEBV01@@Z24
	DD	imagerel _CT??_R0?AVexception@std@@@8??0exception@std@@QEAA@AEBV01@@Z24
xdata$x	ENDS
;	COMDAT _TI3?AVbad_array_new_length@std@@
xdata$x	SEGMENT
_TI3?AVbad_array_new_length@std@@ DD 00H
	DD	imagerel ??1bad_array_new_length@std@@UEAA@XZ
	DD	00H
	DD	imagerel _CTA3?AVbad_array_new_length@std@@
xdata$x	ENDS
;	COMDAT ??_C@_0BF@KINCDENJ@bad?5array?5new?5length@
CONST	SEGMENT
??_C@_0BF@KINCDENJ@bad?5array?5new?5length@ DB 'bad array new length', 00H ; `string'
CONST	ENDS
;	COMDAT ??_7bad_array_new_length@std@@6B@
CONST	SEGMENT
??_7bad_array_new_length@std@@6B@ DQ FLAT:??_R4bad_array_new_length@std@@6B@ ; std::bad_array_new_length::`vftable'
	DQ	FLAT:??_Ebad_array_new_length@std@@UEAAPEAXI@Z
	DQ	FLAT:?what@exception@std@@UEBAPEBDXZ
CONST	ENDS
;	COMDAT ??_7bad_alloc@std@@6B@
CONST	SEGMENT
??_7bad_alloc@std@@6B@ DQ FLAT:??_R4bad_alloc@std@@6B@	; std::bad_alloc::`vftable'
	DQ	FLAT:??_Ebad_alloc@std@@UEAAPEAXI@Z
	DQ	FLAT:?what@exception@std@@UEBAPEBDXZ
CONST	ENDS
;	COMDAT ??_C@_0BC@EOODALEL@Unknown?5exception@
CONST	SEGMENT
??_C@_0BC@EOODALEL@Unknown?5exception@ DB 'Unknown exception', 00H ; `string'
CONST	ENDS
;	COMDAT ??_7exception@std@@6B@
CONST	SEGMENT
??_7exception@std@@6B@ DQ FLAT:??_R4exception@std@@6B@	; std::exception::`vftable'
	DQ	FLAT:??_Eexception@std@@UEAAPEAXI@Z
	DQ	FLAT:?what@exception@std@@UEBAPEBDXZ
CONST	ENDS
;	COMDAT xdata
xdata	SEGMENT
$ip2state$??$swap@UTaskLstFnStatus@@$0A@@std@@YAXAEAUTaskLstFnStatus@@0@Z DB 08H
	DB	00H
	DB	00H
	DB	0e2H
	DB	02H
	DB	' '
	DB	04H
	DB	084H
	DB	00H
xdata	ENDS
;	COMDAT xdata
xdata	SEGMENT
$stateUnwindMap$??$swap@UTaskLstFnStatus@@$0A@@std@@YAXAEAUTaskLstFnStatus@@0@Z DB 06H
	DB	0eH
	DD	imagerel ?dtor$1@?0???$swap@UTaskLstFnStatus@@$0A@@std@@YAXAEAUTaskLstFnStatus@@0@Z@4HA
	DB	032H
	DD	imagerel ??1TaskLstFnStatus@@QEAA@XZ
	DB	040H
	DB	066H
	DD	imagerel ?dtor$2@?0???$swap@UTaskLstFnStatus@@$0A@@std@@YAXAEAUTaskLstFnStatus@@0@Z@4HA
xdata	ENDS
;	COMDAT xdata
xdata	SEGMENT
$cppxdata$??$swap@UTaskLstFnStatus@@$0A@@std@@YAXAEAUTaskLstFnStatus@@0@Z DB 048H
	DD	imagerel $stateUnwindMap$??$swap@UTaskLstFnStatus@@$0A@@std@@YAXAEAUTaskLstFnStatus@@0@Z
	DD	imagerel $ip2state$??$swap@UTaskLstFnStatus@@$0A@@std@@YAXAEAUTaskLstFnStatus@@0@Z
xdata	ENDS
;	COMDAT xdata
xdata	SEGMENT
$unwind$??$swap@UTaskLstFnStatus@@$0A@@std@@YAXAEAUTaskLstFnStatus@@0@Z DD 0c2c19H
	DD	06781dH
	DD	076818H
	DD	0183413H
	DD	0f00cf213H
	DD	07008e00aH
	DD	050066007H
	DD	imagerel __GSHandlerCheck_EH4
	DD	imagerel $cppxdata$??$swap@UTaskLstFnStatus@@$0A@@std@@YAXAEAUTaskLstFnStatus@@0@Z
	DD	05bH
xdata	ENDS
;	COMDAT xdata
xdata	SEGMENT
$unwind$??$_Med3_unchecked@PEAUTaskLstFnStatus@@U?$_Ref_fn@USortTaskListPred@@@std@@@std@@YAXPEAUTaskLstFnStatus@@00U?$_Ref_fn@USortTaskListPred@@@0@@Z DD 0a1801H
	DD	0a6418H
	DD	095418H
	DD	083418H
	DD	0f0143218H
	DD	07010e012H
xdata	ENDS
;	COMDAT xdata
xdata	SEGMENT
$unwind$??$_Pop_heap_hole_unchecked@PEAUTaskLstFnStatus@@U1@U?$_Ref_fn@USortTaskListPred@@@std@@@std@@YAXPEAUTaskLstFnStatus@@00$$QEAU1@U?$_Ref_fn@USortTaskListPred@@@0@@Z DD 060f01H
	DD	09640fH
	DD	08340fH
	DD	0700b520fH
xdata	ENDS
;	COMDAT xdata
xdata	SEGMENT
$chain$3$??$_Push_heap_by_index@PEAUTaskLstFnStatus@@U1@U?$_Ref_fn@USortTaskListPred@@@std@@@std@@YAXPEAUTaskLstFnStatus@@_J1$$QEAU1@U?$_Ref_fn@USortTaskListPred@@@0@@Z DD 021H
	DD	imagerel $LN37
	DD	imagerel $LN37+45
	DD	imagerel $unwind$??$_Push_heap_by_index@PEAUTaskLstFnStatus@@U1@U?$_Ref_fn@USortTaskListPred@@@std@@@std@@YAXPEAUTaskLstFnStatus@@_J1$$QEAU1@U?$_Ref_fn@USortTaskListPred@@@0@@Z
xdata	ENDS
;	COMDAT xdata
xdata	SEGMENT
$chain$2$??$_Push_heap_by_index@PEAUTaskLstFnStatus@@U1@U?$_Ref_fn@USortTaskListPred@@@std@@@std@@YAXPEAUTaskLstFnStatus@@_J1$$QEAU1@U?$_Ref_fn@USortTaskListPred@@@0@@Z DD 061421H
	DD	0ce414H
	DD	0b640fH
	DD	0a3405H
	DD	imagerel $LN37
	DD	imagerel $LN37+45
	DD	imagerel $unwind$??$_Push_heap_by_index@PEAUTaskLstFnStatus@@U1@U?$_Ref_fn@USortTaskListPred@@@std@@@std@@YAXPEAUTaskLstFnStatus@@_J1$$QEAU1@U?$_Ref_fn@USortTaskListPred@@@0@@Z
xdata	ENDS
;	COMDAT xdata
xdata	SEGMENT
$unwind$??$_Push_heap_by_index@PEAUTaskLstFnStatus@@U1@U?$_Ref_fn@USortTaskListPred@@@std@@@std@@YAXPEAUTaskLstFnStatus@@_J1$$QEAU1@U?$_Ref_fn@USortTaskListPred@@@0@@Z DD 061101H
	DD	0f00d3211H
	DD	0c009d00bH
	DD	050067007H
xdata	ENDS
;	COMDAT xdata
xdata	SEGMENT
$ip2state$??$construct@UrecordedMacroStep@@AEAU1@@?$_Default_allocator_traits@V?$allocator@UrecordedMacroStep@@@std@@@std@@SAXAEAV?$allocator@UrecordedMacroStep@@@1@QEAUrecordedMacroStep@@AEAU3@@Z DB 06H
	DB	00H
	DB	00H
	DB	'p'
	DB	02H
	DB	0cH
	DB	00H
xdata	ENDS
;	COMDAT xdata
xdata	SEGMENT
$stateUnwindMap$??$construct@UrecordedMacroStep@@AEAU1@@?$_Default_allocator_traits@V?$allocator@UrecordedMacroStep@@@std@@@std@@SAXAEAV?$allocator@UrecordedMacroStep@@@1@QEAUrecordedMacroStep@@AEAU3@@Z DB 02H
	DB	0eH
	DD	imagerel ?dtor$0@?0???$construct@UrecordedMacroStep@@AEAU1@@?$_Default_allocator_traits@V?$allocator@UrecordedMacroStep@@@std@@@std@@SAXAEAV?$allocator@UrecordedMacroStep@@@1@QEAUrecordedMacroStep@@AEAU3@@Z@4HA
xdata	ENDS
;	COMDAT xdata
xdata	SEGMENT
$cppxdata$??$construct@UrecordedMacroStep@@AEAU1@@?$_Default_allocator_traits@V?$allocator@UrecordedMacroStep@@@std@@@std@@SAXAEAV?$allocator@UrecordedMacroStep@@@1@QEAUrecordedMacroStep@@AEAU3@@Z DB 08H
	DD	imagerel $stateUnwindMap$??$construct@UrecordedMacroStep@@AEAU1@@?$_Default_allocator_traits@V?$allocator@UrecordedMacroStep@@@std@@@std@@SAXAEAV?$allocator@UrecordedMacroStep@@@1@QEAUrecordedMacroStep@@AEAU3@@Z
	DD	imagerel $ip2state$??$construct@UrecordedMacroStep@@AEAU1@@?$_Default_allocator_traits@V?$allocator@UrecordedMacroStep@@@std@@@std@@SAXAEAV?$allocator@UrecordedMacroStep@@@1@QEAUrecordedMacroStep@@AEAU3@@Z
xdata	ENDS
;	COMDAT xdata
xdata	SEGMENT
$unwind$??$construct@UrecordedMacroStep@@AEAU1@@?$_Default_allocator_traits@V?$allocator@UrecordedMacroStep@@@std@@@std@@SAXAEAV?$allocator@UrecordedMacroStep@@@1@QEAUrecordedMacroStep@@AEAU3@@Z DD 040a11H
	DD	06340aH
	DD	07006320aH
	DD	imagerel __CxxFrameHandler4
	DD	imagerel $cppxdata$??$construct@UrecordedMacroStep@@AEAU1@@?$_Default_allocator_traits@V?$allocator@UrecordedMacroStep@@@std@@@std@@SAXAEAV?$allocator@UrecordedMacroStep@@@1@QEAUrecordedMacroStep@@AEAU3@@Z
xdata	ENDS
;	COMDAT xdata
xdata	SEGMENT
$ip2state$??$construct@UPluginDlgDockingInfo@@AEAU1@@?$_Default_allocator_traits@V?$allocator@UPluginDlgDockingInfo@@@std@@@std@@SAXAEAV?$allocator@UPluginDlgDockingInfo@@@1@QEAUPluginDlgDockingInfo@@AEAU3@@Z DB 06H
	DB	00H
	DB	00H
	DB	'B'
	DB	02H
	DB	'2'
	DB	00H
xdata	ENDS
;	COMDAT xdata
xdata	SEGMENT
$stateUnwindMap$??$construct@UPluginDlgDockingInfo@@AEAU1@@?$_Default_allocator_traits@V?$allocator@UPluginDlgDockingInfo@@@std@@@std@@SAXAEAV?$allocator@UPluginDlgDockingInfo@@@1@QEAUPluginDlgDockingInfo@@AEAU3@@Z DB 02H
	DB	0cH
	DD	imagerel ??1?$basic_string@_WU?$char_traits@_W@std@@V?$allocator@_W@2@@std@@QEAA@XZ
	DB	070H
xdata	ENDS
;	COMDAT xdata
xdata	SEGMENT
$cppxdata$??$construct@UPluginDlgDockingInfo@@AEAU1@@?$_Default_allocator_traits@V?$allocator@UPluginDlgDockingInfo@@@std@@@std@@SAXAEAV?$allocator@UPluginDlgDockingInfo@@@1@QEAUPluginDlgDockingInfo@@AEAU3@@Z DB 08H
	DD	imagerel $stateUnwindMap$??$construct@UPluginDlgDockingInfo@@AEAU1@@?$_Default_allocator_traits@V?$allocator@UPluginDlgDockingInfo@@@std@@@std@@SAXAEAV?$allocator@UPluginDlgDockingInfo@@@1@QEAUPluginDlgDockingInfo@@AEAU3@@Z
	DD	imagerel $ip2state$??$construct@UPluginDlgDockingInfo@@AEAU1@@?$_Default_allocator_traits@V?$allocator@UPluginDlgDockingInfo@@@std@@@std@@SAXAEAV?$allocator@UPluginDlgDockingInfo@@@1@QEAUPluginDlgDockingInfo@@AEAU3@@Z
xdata	ENDS
;	COMDAT xdata
xdata	SEGMENT
$unwind$??$construct@UPluginDlgDockingInfo@@AEAU1@@?$_Default_allocator_traits@V?$allocator@UPluginDlgDockingInfo@@@std@@@std@@SAXAEAV?$allocator@UPluginDlgDockingInfo@@@1@QEAUPluginDlgDockingInfo@@AEAU3@@Z DD 040a11H
	DD	06340aH
	DD	07006320aH
	DD	imagerel __CxxFrameHandler4
	DD	imagerel $cppxdata$??$construct@UPluginDlgDockingInfo@@AEAU1@@?$_Default_allocator_traits@V?$allocator@UPluginDlgDockingInfo@@@std@@@std@@SAXAEAV?$allocator@UPluginDlgDockingInfo@@@1@QEAUPluginDlgDockingInfo@@AEAU3@@Z
xdata	ENDS
;	COMDAT xdata
xdata	SEGMENT
$ip2state$??$construct@ULangMenuItem@@AEAU1@@?$_Default_allocator_traits@V?$allocator@ULangMenuItem@@@std@@@std@@SAXAEAV?$allocator@ULangMenuItem@@@1@QEAULangMenuItem@@AEAU3@@Z DB 02H
	DB	00H
	DB	00H
xdata	ENDS
;	COMDAT xdata
xdata	SEGMENT
$stateUnwindMap$??$construct@ULangMenuItem@@AEAU1@@?$_Default_allocator_traits@V?$allocator@ULangMenuItem@@@std@@@std@@SAXAEAV?$allocator@ULangMenuItem@@@1@QEAULangMenuItem@@AEAU3@@Z DB 02H
	DB	0eH
	DD	imagerel ?dtor$0@?0???$construct@ULangMenuItem@@AEAU1@@?$_Default_allocator_traits@V?$allocator@ULangMenuItem@@@std@@@std@@SAXAEAV?$allocator@ULangMenuItem@@@1@QEAULangMenuItem@@AEAU3@@Z@4HA
xdata	ENDS
;	COMDAT xdata
xdata	SEGMENT
$cppxdata$??$construct@ULangMenuItem@@AEAU1@@?$_Default_allocator_traits@V?$allocator@ULangMenuItem@@@std@@@std@@SAXAEAV?$allocator@ULangMenuItem@@@1@QEAULangMenuItem@@AEAU3@@Z DB 08H
	DD	imagerel $stateUnwindMap$??$construct@ULangMenuItem@@AEAU1@@?$_Default_allocator_traits@V?$allocator@ULangMenuItem@@@std@@@std@@SAXAEAV?$allocator@ULangMenuItem@@@1@QEAULangMenuItem@@AEAU3@@Z
	DD	imagerel $ip2state$??$construct@ULangMenuItem@@AEAU1@@?$_Default_allocator_traits@V?$allocator@ULangMenuItem@@@std@@@std@@SAXAEAV?$allocator@ULangMenuItem@@@1@QEAULangMenuItem@@AEAU3@@Z
xdata	ENDS
;	COMDAT xdata
xdata	SEGMENT
$unwind$??$construct@ULangMenuItem@@AEAU1@@?$_Default_allocator_traits@V?$allocator@ULangMenuItem@@@std@@@std@@SAXAEAV?$allocator@ULangMenuItem@@@1@QEAULangMenuItem@@AEAU3@@Z DD 010411H
	DD	04204H
	DD	imagerel __CxxFrameHandler4
	DD	imagerel $cppxdata$??$construct@ULangMenuItem@@AEAU1@@?$_Default_allocator_traits@V?$allocator@ULangMenuItem@@@std@@@std@@SAXAEAV?$allocator@ULangMenuItem@@@1@QEAULangMenuItem@@AEAU3@@Z
xdata	ENDS
;	COMDAT xdata
xdata	SEGMENT
$ip2state$??$iter_swap@PEAUTaskLstFnStatus@@PEAU1@@std@@YAXPEAUTaskLstFnStatus@@0@Z DB 08H
	DB	00H
	DB	00H
	DB	0e2H
	DB	02H
	DB	' '
	DB	04H
	DB	084H
	DB	00H
xdata	ENDS
;	COMDAT xdata
xdata	SEGMENT
$stateUnwindMap$??$iter_swap@PEAUTaskLstFnStatus@@PEAU1@@std@@YAXPEAUTaskLstFnStatus@@0@Z DB 06H
	DB	0eH
	DD	imagerel ?dtor$1@?0???$iter_swap@PEAUTaskLstFnStatus@@PEAU1@@std@@YAXPEAUTaskLstFnStatus@@0@Z@4HA
	DB	032H
	DD	imagerel ??1TaskLstFnStatus@@QEAA@XZ
	DB	040H
	DB	066H
	DD	imagerel ?dtor$2@?0???$iter_swap@PEAUTaskLstFnStatus@@PEAU1@@std@@YAXPEAUTaskLstFnStatus@@0@Z@4HA
xdata	ENDS
;	COMDAT xdata
xdata	SEGMENT
$cppxdata$??$iter_swap@PEAUTaskLstFnStatus@@PEAU1@@std@@YAXPEAUTaskLstFnStatus@@0@Z DB 08H
	DD	imagerel $stateUnwindMap$??$iter_swap@PEAUTaskLstFnStatus@@PEAU1@@std@@YAXPEAUTaskLstFnStatus@@0@Z
	DD	imagerel $ip2state$??$iter_swap@PEAUTaskLstFnStatus@@PEAU1@@std@@YAXPEAUTaskLstFnStatus@@0@Z
xdata	ENDS
;	COMDAT xdata
xdata	SEGMENT
$unwind$??$iter_swap@PEAUTaskLstFnStatus@@PEAU1@@std@@YAXPEAUTaskLstFnStatus@@0@Z DD 0c2c19H
	DD	06781dH
	DD	076818H
	DD	0183413H
	DD	0f00cf213H
	DD	07008e00aH
	DD	050066007H
	DD	imagerel __GSHandlerCheck_EH4
	DD	imagerel $cppxdata$??$iter_swap@PEAUTaskLstFnStatus@@PEAU1@@std@@YAXPEAUTaskLstFnStatus@@0@Z
	DD	05aH
xdata	ENDS
;	COMDAT xdata
xdata	SEGMENT
$chain$4$??$_Guess_median_unchecked@PEAUTaskLstFnStatus@@U?$_Ref_fn@USortTaskListPred@@@std@@@std@@YAXPEAUTaskLstFnStatus@@00U?$_Ref_fn@USortTaskListPred@@@0@@Z DD 021H
	DD	imagerel $LN6
	DD	imagerel $LN6+65
	DD	imagerel $unwind$??$_Guess_median_unchecked@PEAUTaskLstFnStatus@@U?$_Ref_fn@USortTaskListPred@@@std@@@std@@YAXPEAUTaskLstFnStatus@@00U?$_Ref_fn@USortTaskListPred@@@0@@Z
xdata	ENDS
;	COMDAT xdata
xdata	SEGMENT
$chain$3$??$_Guess_median_unchecked@PEAUTaskLstFnStatus@@U?$_Ref_fn@USortTaskListPred@@@std@@@std@@YAXPEAUTaskLstFnStatus@@00U?$_Ref_fn@USortTaskListPred@@@0@@Z DD 082021H
	DD	0be420H
	DD	0a741bH
	DD	096412H
	DD	085405H
	DD	imagerel $LN6
	DD	imagerel $LN6+65
	DD	imagerel $unwind$??$_Guess_median_unchecked@PEAUTaskLstFnStatus@@U?$_Ref_fn@USortTaskListPred@@@std@@@std@@YAXPEAUTaskLstFnStatus@@00U?$_Ref_fn@USortTaskListPred@@@0@@Z
xdata	ENDS
;	COMDAT xdata
xdata	SEGMENT
$unwind$??$_Guess_median_unchecked@PEAUTaskLstFnStatus@@U?$_Ref_fn@USortTaskListPred@@@std@@@std@@YAXPEAUTaskLstFnStatus@@00U?$_Ref_fn@USortTaskListPred@@@0@@Z DD 040a01H
	DD	0f006320aH
	DD	03002c004H
xdata	ENDS
;	COMDAT xdata
xdata	SEGMENT
$ip2state$??$_Pop_heap_unchecked@PEAUTaskLstFnStatus@@U?$_Ref_fn@USortTaskListPred@@@std@@@std@@YAXPEAUTaskLstFnStatus@@0U?$_Ref_fn@USortTaskListPred@@@0@@Z DB 08H
	DB	00H
	DB	00H
	DB	'm', 02H
	DB	02H
	DB	' '
	DB	04H
	DB	'n'
	DB	00H
xdata	ENDS
;	COMDAT xdata
xdata	SEGMENT
$stateUnwindMap$??$_Pop_heap_unchecked@PEAUTaskLstFnStatus@@U?$_Ref_fn@USortTaskListPred@@@std@@@std@@YAXPEAUTaskLstFnStatus@@0U?$_Ref_fn@USortTaskListPred@@@0@@Z DB 06H
	DB	0eH
	DD	imagerel ?dtor$1@?0???$_Pop_heap_unchecked@PEAUTaskLstFnStatus@@U?$_Ref_fn@USortTaskListPred@@@std@@@std@@YAXPEAUTaskLstFnStatus@@0U?$_Ref_fn@USortTaskListPred@@@0@@Z@4HA
	DB	032H
	DD	imagerel ??1TaskLstFnStatus@@QEAA@XZ
	DB	060H
	DB	066H
	DD	imagerel ?dtor$2@?0???$_Pop_heap_unchecked@PEAUTaskLstFnStatus@@U?$_Ref_fn@USortTaskListPred@@@std@@@std@@YAXPEAUTaskLstFnStatus@@0U?$_Ref_fn@USortTaskListPred@@@0@@Z@4HA
xdata	ENDS
;	COMDAT xdata
xdata	SEGMENT
$cppxdata$??$_Pop_heap_unchecked@PEAUTaskLstFnStatus@@U?$_Ref_fn@USortTaskListPred@@@std@@@std@@YAXPEAUTaskLstFnStatus@@0U?$_Ref_fn@USortTaskListPred@@@0@@Z DB 08H
	DD	imagerel $stateUnwindMap$??$_Pop_heap_unchecked@PEAUTaskLstFnStatus@@U?$_Ref_fn@USortTaskListPred@@@std@@@std@@YAXPEAUTaskLstFnStatus@@0U?$_Ref_fn@USortTaskListPred@@@0@@Z
	DD	imagerel $ip2state$??$_Pop_heap_unchecked@PEAUTaskLstFnStatus@@U?$_Ref_fn@USortTaskListPred@@@std@@@std@@YAXPEAUTaskLstFnStatus@@0U?$_Ref_fn@USortTaskListPred@@@0@@Z
xdata	ENDS
;	COMDAT xdata
xdata	SEGMENT
$unwind$??$_Pop_heap_unchecked@PEAUTaskLstFnStatus@@U?$_Ref_fn@USortTaskListPred@@@std@@@std@@YAXPEAUTaskLstFnStatus@@0U?$_Ref_fn@USortTaskListPred@@@0@@Z DD 082119H
	DD	0155412H
	DD	0143412H
	DD	0e00ed212H
	DD	0600b700cH
	DD	imagerel __GSHandlerCheck_EH4
	DD	imagerel $cppxdata$??$_Pop_heap_unchecked@PEAUTaskLstFnStatus@@U?$_Ref_fn@USortTaskListPred@@@std@@@std@@YAXPEAUTaskLstFnStatus@@0U?$_Ref_fn@USortTaskListPred@@@0@@Z
	DD	06aH
xdata	ENDS
;	COMDAT xdata
xdata	SEGMENT
$unwind$??$_Pop_heap_hole_by_index@PEAUTaskLstFnStatus@@U1@U?$_Ref_fn@USortTaskListPred@@@std@@@std@@YAXPEAUTaskLstFnStatus@@_J1$$QEAU1@U?$_Ref_fn@USortTaskListPred@@@0@@Z DD 091a01H
	DD	0f016421aH
	DD	0d012e014H
	DD	0700ec010H
	DD	0500c600dH
	DD	0300bH
xdata	ENDS
;	COMDAT xdata
xdata	SEGMENT
$chain$4$??$_Move_backward_unchecked@PEAUTaskLstFnStatus@@PEAU1@@std@@YAPEAUTaskLstFnStatus@@PEAU1@00@Z DD 021H
	DD	imagerel $LN33
	DD	imagerel $LN33+22
	DD	imagerel $unwind$??$_Move_backward_unchecked@PEAUTaskLstFnStatus@@PEAU1@@std@@YAPEAUTaskLstFnStatus@@PEAU1@00@Z
xdata	ENDS
;	COMDAT xdata
xdata	SEGMENT
$chain$3$??$_Move_backward_unchecked@PEAUTaskLstFnStatus@@PEAU1@@std@@YAPEAUTaskLstFnStatus@@PEAU1@00@Z DD 081c21H
	DD	04f41cH
	DD	0ae417H
	DD	09740eH
	DD	083405H
	DD	imagerel $LN33
	DD	imagerel $LN33+22
	DD	imagerel $unwind$??$_Move_backward_unchecked@PEAUTaskLstFnStatus@@PEAU1@@std@@YAPEAUTaskLstFnStatus@@PEAU1@00@Z
xdata	ENDS
;	COMDAT xdata
xdata	SEGMENT
$unwind$??$_Move_backward_unchecked@PEAUTaskLstFnStatus@@PEAU1@@std@@YAPEAUTaskLstFnStatus@@PEAU1@00@Z DD 030701H
	DD	060034207H
	DD	05002H
xdata	ENDS
;	COMDAT xdata
xdata	SEGMENT
$unwind$??$?RAEAUTaskLstFnStatus@@AEAU0@@?$_Ref_fn@USortTaskListPred@@@std@@QEAA?A_TAEAUTaskLstFnStatus@@0@Z DD 060f01H
	DD	07640fH
	DD	06340fH
	DD	0700b320fH
xdata	ENDS
;	COMDAT xdata
xdata	SEGMENT
$ip2state$??$_Emplace_back@UrecordedMacroStep@@@?$_Uninitialized_backout_al@V?$allocator@UrecordedMacroStep@@@std@@@std@@QEAAX$$QEAUrecordedMacroStep@@@Z DB 06H
	DB	00H
	DB	00H
	DB	09cH
	DB	02H
	DB	0eH
	DB	00H
xdata	ENDS
;	COMDAT xdata
xdata	SEGMENT
$stateUnwindMap$??$_Emplace_back@UrecordedMacroStep@@@?$_Uninitialized_backout_al@V?$allocator@UrecordedMacroStep@@@std@@@std@@QEAAX$$QEAUrecordedMacroStep@@@Z DB 02H
	DB	0eH
	DD	imagerel ?dtor$0@?0???$_Emplace_back@UrecordedMacroStep@@@?$_Uninitialized_backout_al@V?$allocator@UrecordedMacroStep@@@std@@@std@@QEAAX$$QEAUrecordedMacroStep@@@Z@4HA
xdata	ENDS
;	COMDAT xdata
xdata	SEGMENT
$cppxdata$??$_Emplace_back@UrecordedMacroStep@@@?$_Uninitialized_backout_al@V?$allocator@UrecordedMacroStep@@@std@@@std@@QEAAX$$QEAUrecordedMacroStep@@@Z DB 08H
	DD	imagerel $stateUnwindMap$??$_Emplace_back@UrecordedMacroStep@@@?$_Uninitialized_backout_al@V?$allocator@UrecordedMacroStep@@@std@@@std@@QEAAX$$QEAUrecordedMacroStep@@@Z
	DD	imagerel $ip2state$??$_Emplace_back@UrecordedMacroStep@@@?$_Uninitialized_backout_al@V?$allocator@UrecordedMacroStep@@@std@@@std@@QEAAX$$QEAUrecordedMacroStep@@@Z
xdata	ENDS
;	COMDAT xdata
xdata	SEGMENT
$unwind$??$_Emplace_back@UrecordedMacroStep@@@?$_Uninitialized_backout_al@V?$allocator@UrecordedMacroStep@@@std@@@std@@QEAAX$$QEAUrecordedMacroStep@@@Z DD 011H
	DD	imagerel __CxxFrameHandler4
	DD	imagerel $cppxdata$??$_Emplace_back@UrecordedMacroStep@@@?$_Uninitialized_backout_al@V?$allocator@UrecordedMacroStep@@@std@@@std@@QEAAX$$QEAUrecordedMacroStep@@@Z
xdata	ENDS
;	COMDAT xdata
xdata	SEGMENT
$unwind$??$_Copy_memmove@PEAPEAVBuffer@@PEAPEAV1@@std@@YAPEAPEAVBuffer@@PEAPEAV1@00@Z DD 040a01H
	DD	06340aH
	DD	07006320aH
xdata	ENDS
;	COMDAT xdata
xdata	SEGMENT
$chain$2$??$_Copy_unchecked@PEAUrecordedMacroStep@@PEAU1@@std@@YAPEAUrecordedMacroStep@@PEAU1@00@Z DD 021H
	DD	imagerel $LN24
	DD	imagerel $LN24+21
	DD	imagerel $unwind$??$_Copy_unchecked@PEAUrecordedMacroStep@@PEAU1@@std@@YAPEAUrecordedMacroStep@@PEAU1@00@Z
xdata	ENDS
;	COMDAT xdata
xdata	SEGMENT
$chain$1$??$_Copy_unchecked@PEAUrecordedMacroStep@@PEAU1@@std@@YAPEAUrecordedMacroStep@@PEAU1@00@Z DD 040e21H
	DD	07740eH
	DD	063405H
	DD	imagerel $LN24
	DD	imagerel $LN24+21
	DD	imagerel $unwind$??$_Copy_unchecked@PEAUrecordedMacroStep@@PEAU1@@std@@YAPEAUrecordedMacroStep@@PEAU1@00@Z
xdata	ENDS
;	COMDAT xdata
xdata	SEGMENT
$unwind$??$_Copy_unchecked@PEAUrecordedMacroStep@@PEAU1@@std@@YAPEAUrecordedMacroStep@@PEAU1@00@Z DD 040a01H
	DD	08540aH
	DD	06006320aH
xdata	ENDS
;	COMDAT xdata
xdata	SEGMENT
$ip2state$??$_Emplace_back@AEAUrecordedMacroStep@@@?$_Uninitialized_backout_al@V?$allocator@UrecordedMacroStep@@@std@@@std@@QEAAXAEAUrecordedMacroStep@@@Z DB 06H
	DB	00H
	DB	00H
	DB	080H
	DB	02H
	DB	0cH
	DB	00H
xdata	ENDS
;	COMDAT xdata
xdata	SEGMENT
$stateUnwindMap$??$_Emplace_back@AEAUrecordedMacroStep@@@?$_Uninitialized_backout_al@V?$allocator@UrecordedMacroStep@@@std@@@std@@QEAAXAEAUrecordedMacroStep@@@Z DB 02H
	DB	0eH
	DD	imagerel ?dtor$0@?0???$_Emplace_back@AEAUrecordedMacroStep@@@?$_Uninitialized_backout_al@V?$allocator@UrecordedMacroStep@@@std@@@std@@QEAAXAEAUrecordedMacroStep@@@Z@4HA
xdata	ENDS
;	COMDAT xdata
xdata	SEGMENT
$cppxdata$??$_Emplace_back@AEAUrecordedMacroStep@@@?$_Uninitialized_backout_al@V?$allocator@UrecordedMacroStep@@@std@@@std@@QEAAXAEAUrecordedMacroStep@@@Z DB 08H
	DD	imagerel $stateUnwindMap$??$_Emplace_back@AEAUrecordedMacroStep@@@?$_Uninitialized_backout_al@V?$allocator@UrecordedMacroStep@@@std@@@std@@QEAAXAEAUrecordedMacroStep@@@Z
	DD	imagerel $ip2state$??$_Emplace_back@AEAUrecordedMacroStep@@@?$_Uninitialized_backout_al@V?$allocator@UrecordedMacroStep@@@std@@@std@@QEAAXAEAUrecordedMacroStep@@@Z
xdata	ENDS
;	COMDAT xdata
xdata	SEGMENT
$unwind$??$_Emplace_back@AEAUrecordedMacroStep@@@?$_Uninitialized_backout_al@V?$allocator@UrecordedMacroStep@@@std@@@std@@QEAAXAEAUrecordedMacroStep@@@Z DD 060f11H
	DD	08640fH
	DD	07340fH
	DD	0700b320fH
	DD	imagerel __CxxFrameHandler4
	DD	imagerel $cppxdata$??$_Emplace_back@AEAUrecordedMacroStep@@@?$_Uninitialized_backout_al@V?$allocator@UrecordedMacroStep@@@std@@@std@@QEAAXAEAUrecordedMacroStep@@@Z
xdata	ENDS
;	COMDAT xdata
xdata	SEGMENT
$ip2state$??1?$_Uninitialized_backout_al@V?$allocator@UrecordedMacroStep@@@std@@@std@@QEAA@XZ DB 02H
	DB	00H
	DB	00H
xdata	ENDS
;	COMDAT xdata
xdata	SEGMENT
$stateUnwindMap$??1?$_Uninitialized_backout_al@V?$allocator@UrecordedMacroStep@@@std@@@std@@QEAA@XZ DB 02H
	DB	0eH
	DD	imagerel ?dtor$0@?0???1?$_Uninitialized_backout_al@V?$allocator@UrecordedMacroStep@@@std@@@std@@QEAA@XZ@4HA
xdata	ENDS
;	COMDAT xdata
xdata	SEGMENT
$cppxdata$??1?$_Uninitialized_backout_al@V?$allocator@UrecordedMacroStep@@@std@@@std@@QEAA@XZ DB 048H
	DD	imagerel $stateUnwindMap$??1?$_Uninitialized_backout_al@V?$allocator@UrecordedMacroStep@@@std@@@std@@QEAA@XZ
	DD	imagerel $ip2state$??1?$_Uninitialized_backout_al@V?$allocator@UrecordedMacroStep@@@std@@@std@@QEAA@XZ
xdata	ENDS
;	COMDAT xdata
xdata	SEGMENT
$unwind$??1?$_Uninitialized_backout_al@V?$allocator@UrecordedMacroStep@@@std@@@std@@QEAA@XZ DD 040a11H
	DD	07340aH
	DD	07006320aH
	DD	imagerel __CxxFrameHandler4
	DD	imagerel $cppxdata$??1?$_Uninitialized_backout_al@V?$allocator@UrecordedMacroStep@@@std@@@std@@QEAA@XZ
xdata	ENDS
;	COMDAT xdata
xdata	SEGMENT
$ip2state$??$_Emplace_back@AEAUPluginDlgDockingInfo@@@?$_Uninitialized_backout_al@V?$allocator@UPluginDlgDockingInfo@@@std@@@std@@QEAAXAEAUPluginDlgDockingInfo@@@Z DB 06H
	DB	00H
	DB	00H
	DB	'N'
	DB	02H
	DB	'2'
	DB	00H
xdata	ENDS
;	COMDAT xdata
xdata	SEGMENT
$stateUnwindMap$??$_Emplace_back@AEAUPluginDlgDockingInfo@@@?$_Uninitialized_backout_al@V?$allocator@UPluginDlgDockingInfo@@@std@@@std@@QEAAXAEAUPluginDlgDockingInfo@@@Z DB 02H
	DB	0cH
	DD	imagerel ??1?$basic_string@_WU?$char_traits@_W@std@@V?$allocator@_W@2@@std@@QEAA@XZ
	DB	060H
xdata	ENDS
;	COMDAT xdata
xdata	SEGMENT
$cppxdata$??$_Emplace_back@AEAUPluginDlgDockingInfo@@@?$_Uninitialized_backout_al@V?$allocator@UPluginDlgDockingInfo@@@std@@@std@@QEAAXAEAUPluginDlgDockingInfo@@@Z DB 08H
	DD	imagerel $stateUnwindMap$??$_Emplace_back@AEAUPluginDlgDockingInfo@@@?$_Uninitialized_backout_al@V?$allocator@UPluginDlgDockingInfo@@@std@@@std@@QEAAXAEAUPluginDlgDockingInfo@@@Z
	DD	imagerel $ip2state$??$_Emplace_back@AEAUPluginDlgDockingInfo@@@?$_Uninitialized_backout_al@V?$allocator@UPluginDlgDockingInfo@@@std@@@std@@QEAAXAEAUPluginDlgDockingInfo@@@Z
xdata	ENDS
;	COMDAT xdata
xdata	SEGMENT
$unwind$??$_Emplace_back@AEAUPluginDlgDockingInfo@@@?$_Uninitialized_backout_al@V?$allocator@UPluginDlgDockingInfo@@@std@@@std@@QEAAXAEAUPluginDlgDockingInfo@@@Z DD 060f11H
	DD	08640fH
	DD	07340fH
	DD	0700b320fH
	DD	imagerel __CxxFrameHandler4
	DD	imagerel $cppxdata$??$_Emplace_back@AEAUPluginDlgDockingInfo@@@?$_Uninitialized_backout_al@V?$allocator@UPluginDlgDockingInfo@@@std@@@std@@QEAAXAEAUPluginDlgDockingInfo@@@Z
xdata	ENDS
;	COMDAT xdata
xdata	SEGMENT
$ip2state$??1?$_Uninitialized_backout_al@V?$allocator@UPluginDlgDockingInfo@@@std@@@std@@QEAA@XZ DB 02H
	DB	00H
	DB	00H
xdata	ENDS
;	COMDAT xdata
xdata	SEGMENT
$stateUnwindMap$??1?$_Uninitialized_backout_al@V?$allocator@UPluginDlgDockingInfo@@@std@@@std@@QEAA@XZ DB 02H
	DB	0cH
	DD	imagerel ??1?$basic_string@_WU?$char_traits@_W@std@@V?$allocator@_W@2@@std@@QEAA@XZ
	DB	060H
xdata	ENDS
;	COMDAT xdata
xdata	SEGMENT
$cppxdata$??1?$_Uninitialized_backout_al@V?$allocator@UPluginDlgDockingInfo@@@std@@@std@@QEAA@XZ DB 048H
	DD	imagerel $stateUnwindMap$??1?$_Uninitialized_backout_al@V?$allocator@UPluginDlgDockingInfo@@@std@@@std@@QEAA@XZ
	DD	imagerel $ip2state$??1?$_Uninitialized_backout_al@V?$allocator@UPluginDlgDockingInfo@@@std@@@std@@QEAA@XZ
xdata	ENDS
;	COMDAT xdata
xdata	SEGMENT
$unwind$??1?$_Uninitialized_backout_al@V?$allocator@UPluginDlgDockingInfo@@@std@@@std@@QEAA@XZ DD 040a11H
	DD	07340aH
	DD	07006320aH
	DD	imagerel __CxxFrameHandler4
	DD	imagerel $cppxdata$??1?$_Uninitialized_backout_al@V?$allocator@UPluginDlgDockingInfo@@@std@@@std@@QEAA@XZ
xdata	ENDS
;	COMDAT xdata
xdata	SEGMENT
$ip2state$??$_Emplace_back@AEAULangMenuItem@@@?$_Uninitialized_backout_al@V?$allocator@ULangMenuItem@@@std@@@std@@QEAAXAEAULangMenuItem@@@Z DB 02H
	DB	00H
	DB	00H
xdata	ENDS
;	COMDAT xdata
xdata	SEGMENT
$stateUnwindMap$??$_Emplace_back@AEAULangMenuItem@@@?$_Uninitialized_backout_al@V?$allocator@ULangMenuItem@@@std@@@std@@QEAAXAEAULangMenuItem@@@Z DB 02H
	DB	0eH
	DD	imagerel ?dtor$0@?0???$_Emplace_back@AEAULangMenuItem@@@?$_Uninitialized_backout_al@V?$allocator@ULangMenuItem@@@std@@@std@@QEAAXAEAULangMenuItem@@@Z@4HA
xdata	ENDS
;	COMDAT xdata
xdata	SEGMENT
$cppxdata$??$_Emplace_back@AEAULangMenuItem@@@?$_Uninitialized_backout_al@V?$allocator@ULangMenuItem@@@std@@@std@@QEAAXAEAULangMenuItem@@@Z DB 08H
	DD	imagerel $stateUnwindMap$??$_Emplace_back@AEAULangMenuItem@@@?$_Uninitialized_backout_al@V?$allocator@ULangMenuItem@@@std@@@std@@QEAAXAEAULangMenuItem@@@Z
	DD	imagerel $ip2state$??$_Emplace_back@AEAULangMenuItem@@@?$_Uninitialized_backout_al@V?$allocator@ULangMenuItem@@@std@@@std@@QEAAXAEAULangMenuItem@@@Z
xdata	ENDS
;	COMDAT xdata
xdata	SEGMENT
$unwind$??$_Emplace_back@AEAULangMenuItem@@@?$_Uninitialized_backout_al@V?$allocator@ULangMenuItem@@@std@@@std@@QEAAXAEAULangMenuItem@@@Z DD 020611H
	DD	030023206H
	DD	imagerel __CxxFrameHandler4
	DD	imagerel $cppxdata$??$_Emplace_back@AEAULangMenuItem@@@?$_Uninitialized_backout_al@V?$allocator@ULangMenuItem@@@std@@@std@@QEAAXAEAULangMenuItem@@@Z
xdata	ENDS
;	COMDAT xdata
xdata	SEGMENT
$ip2state$??1?$_Uninitialized_backout_al@V?$allocator@ULangMenuItem@@@std@@@std@@QEAA@XZ DB 02H
	DB	00H
	DB	00H
xdata	ENDS
;	COMDAT xdata
xdata	SEGMENT
$stateUnwindMap$??1?$_Uninitialized_backout_al@V?$allocator@ULangMenuItem@@@std@@@std@@QEAA@XZ DB 02H
	DB	0eH
	DD	imagerel ?dtor$0@?0???1?$_Uninitialized_backout_al@V?$allocator@ULangMenuItem@@@std@@@std@@QEAA@XZ@4HA
xdata	ENDS
;	COMDAT xdata
xdata	SEGMENT
$cppxdata$??1?$_Uninitialized_backout_al@V?$allocator@ULangMenuItem@@@std@@@std@@QEAA@XZ DB 048H
	DD	imagerel $stateUnwindMap$??1?$_Uninitialized_backout_al@V?$allocator@ULangMenuItem@@@std@@@std@@QEAA@XZ
	DD	imagerel $ip2state$??1?$_Uninitialized_backout_al@V?$allocator@ULangMenuItem@@@std@@@std@@QEAA@XZ
xdata	ENDS
;	COMDAT xdata
xdata	SEGMENT
$unwind$??1?$_Uninitialized_backout_al@V?$allocator@ULangMenuItem@@@std@@@std@@QEAA@XZ DD 040a11H
	DD	07340aH
	DD	07006320aH
	DD	imagerel __CxxFrameHandler4
	DD	imagerel $cppxdata$??1?$_Uninitialized_backout_al@V?$allocator@ULangMenuItem@@@std@@@std@@QEAA@XZ
xdata	ENDS
;	COMDAT xdata
xdata	SEGMENT
$unwind$??$_Copy_memmove@PEAPEAUtTbData@@PEAPEAU1@@std@@YAPEAPEAUtTbData@@PEAPEAU1@00@Z DD 040a01H
	DD	06340aH
	DD	07006320aH
xdata	ENDS
;	COMDAT xdata
xdata	SEGMENT
$unwind$??$_Copy_memmove@PEAPEAVDockingCont@@PEAPEAV1@@std@@YAPEAPEAVDockingCont@@PEAPEAV1@00@Z DD 040a01H
	DD	06340aH
	DD	07006320aH
xdata	ENDS
;	COMDAT xdata
xdata	SEGMENT
$ip2state$??$_Partition_by_median_guess_unchecked@PEAUTaskLstFnStatus@@U?$_Ref_fn@USortTaskListPred@@@std@@@std@@YA?AU?$pair@PEAUTaskLstFnStatus@@PEAU1@@0@PEAUTaskLstFnStatus@@0U?$_Ref_fn@USortTaskListPred@@@0@@Z DB '('
	DB	00H
	DB	00H
	DB	'y', 0dH
	DB	02H
	DB	'4'
	DB	04H
	DB	0c6H
	DB	00H
	DB	08dH, 05H
	DB	08H
	DB	'.'
	DB	0aH
	DB	0c6H
	DB	00H
	DB	091H, 03H
	DB	0eH
	DB	'.'
	DB	010H
	DB	0ddH, 04H
	DB	00H
	DB	081H, 02H
	DB	014H
	DB	'.'
	DB	016H
	DB	0c1H, 04H
	DB	00H
	DB	'E', 03H
	DB	01aH
	DB	'('
	DB	01cH
	DB	'9', 03H
	DB	00H
	DB	09H, 03H
	DB	01cH
	DB	0cH
	DB	00H
	DB	0cH
	DB	010H
	DB	0cH
	DB	016H
xdata	ENDS
;	COMDAT xdata
xdata	SEGMENT
$stateUnwindMap$??$_Partition_by_median_guess_unchecked@PEAUTaskLstFnStatus@@U?$_Ref_fn@USortTaskListPred@@@std@@@std@@YA?AU?$pair@PEAUTaskLstFnStatus@@PEAU1@@0@PEAUTaskLstFnStatus@@0U?$_Ref_fn@USortTaskListPred@@@0@@Z DB 01eH
	DB	0eH
	DD	imagerel ?dtor$1@?0???$_Partition_by_median_guess_unchecked@PEAUTaskLstFnStatus@@U?$_Ref_fn@USortTaskListPred@@@std@@@std@@YA?AU?$pair@PEAUTaskLstFnStatus@@PEAU1@@0@PEAUTaskLstFnStatus@@0U?$_Ref_fn@USortTaskListPred@@@0@@Z@4HA
	DB	032H
	DD	imagerel ??1TaskLstFnStatus@@QEAA@XZ
	DB	0f0H
	DB	066H
	DD	imagerel ?dtor$2@?0???$_Partition_by_median_guess_unchecked@PEAUTaskLstFnStatus@@U?$_Ref_fn@USortTaskListPred@@@std@@@std@@YA?AU?$pair@PEAUTaskLstFnStatus@@PEAU1@@0@PEAUTaskLstFnStatus@@0U?$_Ref_fn@USortTaskListPred@@@0@@Z@4HA
	DB	08eH
	DD	imagerel ?dtor$4@?0???$_Partition_by_median_guess_unchecked@PEAUTaskLstFnStatus@@U?$_Ref_fn@USortTaskListPred@@@std@@@std@@YA?AU?$pair@PEAUTaskLstFnStatus@@PEAU1@@0@PEAUTaskLstFnStatus@@0U?$_Ref_fn@USortTaskListPred@@@0@@Z@4HA
	DB	0b2H
	DD	imagerel ??1TaskLstFnStatus@@QEAA@XZ
	DB	0c1H
	DB	02H
	DB	0eeH
	DD	imagerel ?dtor$5@?0???$_Partition_by_median_guess_unchecked@PEAUTaskLstFnStatus@@U?$_Ref_fn@USortTaskListPred@@@std@@@std@@YA?AU?$pair@PEAUTaskLstFnStatus@@PEAU1@@0@PEAUTaskLstFnStatus@@0U?$_Ref_fn@USortTaskListPred@@@0@@Z@4HA
	DB	02dH
	DB	02H
	DD	imagerel ?dtor$7@?0???$_Partition_by_median_guess_unchecked@PEAUTaskLstFnStatus@@U?$_Ref_fn@USortTaskListPred@@@std@@@std@@YA?AU?$pair@PEAUTaskLstFnStatus@@PEAU1@@0@PEAUTaskLstFnStatus@@0U?$_Ref_fn@USortTaskListPred@@@0@@Z@4HA
	DB	085H
	DB	02H
	DD	imagerel ??1TaskLstFnStatus@@QEAA@XZ
	DB	0a1H
	DB	03H
	DB	0dH
	DB	03H
	DD	imagerel ?dtor$8@?0???$_Partition_by_median_guess_unchecked@PEAUTaskLstFnStatus@@U?$_Ref_fn@USortTaskListPred@@@std@@@std@@YA?AU?$pair@PEAUTaskLstFnStatus@@PEAU1@@0@PEAUTaskLstFnStatus@@0U?$_Ref_fn@USortTaskListPred@@@0@@Z@4HA
	DB	06dH
	DB	03H
	DD	imagerel ?dtor$10@?0???$_Partition_by_median_guess_unchecked@PEAUTaskLstFnStatus@@U?$_Ref_fn@USortTaskListPred@@@std@@@std@@YA?AU?$pair@PEAUTaskLstFnStatus@@PEAU1@@0@PEAUTaskLstFnStatus@@0U?$_Ref_fn@USortTaskListPred@@@0@@Z@4HA
	DB	0c5H
	DB	03H
	DD	imagerel ??1TaskLstFnStatus@@QEAA@XZ
	DB	081H
	DB	04H
	DB	04dH
	DB	04H
	DD	imagerel ?dtor$11@?0???$_Partition_by_median_guess_unchecked@PEAUTaskLstFnStatus@@U?$_Ref_fn@USortTaskListPred@@@std@@@std@@YA?AU?$pair@PEAUTaskLstFnStatus@@PEAU1@@0@PEAUTaskLstFnStatus@@0U?$_Ref_fn@USortTaskListPred@@@0@@Z@4HA
	DB	0adH
	DB	04H
	DD	imagerel ?dtor$13@?0???$_Partition_by_median_guess_unchecked@PEAUTaskLstFnStatus@@U?$_Ref_fn@USortTaskListPred@@@std@@@std@@YA?AU?$pair@PEAUTaskLstFnStatus@@PEAU1@@0@PEAUTaskLstFnStatus@@0U?$_Ref_fn@USortTaskListPred@@@0@@Z@4HA
	DB	05H
	DB	05H
	DD	imagerel ??1TaskLstFnStatus@@QEAA@XZ
	DB	061H
	DB	05H
	DB	08dH
	DB	05H
	DD	imagerel ?dtor$14@?0???$_Partition_by_median_guess_unchecked@PEAUTaskLstFnStatus@@U?$_Ref_fn@USortTaskListPred@@@std@@@std@@YA?AU?$pair@PEAUTaskLstFnStatus@@PEAU1@@0@PEAUTaskLstFnStatus@@0U?$_Ref_fn@USortTaskListPred@@@0@@Z@4HA
xdata	ENDS
;	COMDAT xdata
xdata	SEGMENT
$cppxdata$??$_Partition_by_median_guess_unchecked@PEAUTaskLstFnStatus@@U?$_Ref_fn@USortTaskListPred@@@std@@@std@@YA?AU?$pair@PEAUTaskLstFnStatus@@PEAU1@@0@PEAUTaskLstFnStatus@@0U?$_Ref_fn@USortTaskListPred@@@0@@Z DB 08H
	DD	imagerel $stateUnwindMap$??$_Partition_by_median_guess_unchecked@PEAUTaskLstFnStatus@@U?$_Ref_fn@USortTaskListPred@@@std@@@std@@YA?AU?$pair@PEAUTaskLstFnStatus@@PEAU1@@0@PEAUTaskLstFnStatus@@0U?$_Ref_fn@USortTaskListPred@@@0@@Z
	DD	imagerel $ip2state$??$_Partition_by_median_guess_unchecked@PEAUTaskLstFnStatus@@U?$_Ref_fn@USortTaskListPred@@@std@@@std@@YA?AU?$pair@PEAUTaskLstFnStatus@@PEAU1@@0@PEAUTaskLstFnStatus@@0U?$_Ref_fn@USortTaskListPred@@@0@@Z
xdata	ENDS
;	COMDAT xdata
xdata	SEGMENT
$unwind$??$_Partition_by_median_guess_unchecked@PEAUTaskLstFnStatus@@U?$_Ref_fn@USortTaskListPred@@@std@@@std@@YA?AU?$pair@PEAUTaskLstFnStatus@@PEAU1@@0@PEAUTaskLstFnStatus@@0U?$_Ref_fn@USortTaskListPred@@@0@@Z DD 0b3019H
	DD	03f341fH
	DD	034011fH
	DD	0e00ef010H
	DD	0c00ad00cH
	DD	060077008H
	DD	05006H
	DD	imagerel __GSHandlerCheck_EH4
	DD	imagerel $cppxdata$??$_Partition_by_median_guess_unchecked@PEAUTaskLstFnStatus@@U?$_Ref_fn@USortTaskListPred@@@std@@@std@@YA?AU?$pair@PEAUTaskLstFnStatus@@PEAU1@@0@PEAUTaskLstFnStatus@@0U?$_Ref_fn@USortTaskListPred@@@0@@Z
	DD	0192H
xdata	ENDS
;	COMDAT xdata
xdata	SEGMENT
$ip2state$??$_Sort_heap_unchecked@PEAUTaskLstFnStatus@@U?$_Ref_fn@USortTaskListPred@@@std@@@std@@YAXPEAUTaskLstFnStatus@@0U?$_Ref_fn@USortTaskListPred@@@0@@Z DB 08H
	DB	00H
	DB	00H
	DB	011H, 03H
	DB	02H
	DB	' '
	DB	04H
	DB	'j'
	DB	00H
xdata	ENDS
;	COMDAT xdata
xdata	SEGMENT
$stateUnwindMap$??$_Sort_heap_unchecked@PEAUTaskLstFnStatus@@U?$_Ref_fn@USortTaskListPred@@@std@@@std@@YAXPEAUTaskLstFnStatus@@0U?$_Ref_fn@USortTaskListPred@@@0@@Z DB 06H
	DB	0eH
	DD	imagerel ?dtor$1@?0???$_Sort_heap_unchecked@PEAUTaskLstFnStatus@@U?$_Ref_fn@USortTaskListPred@@@std@@@std@@YAXPEAUTaskLstFnStatus@@0U?$_Ref_fn@USortTaskListPred@@@0@@Z@4HA
	DB	032H
	DD	imagerel ??1TaskLstFnStatus@@QEAA@XZ
	DB	060H
	DB	066H
	DD	imagerel ?dtor$2@?0???$_Sort_heap_unchecked@PEAUTaskLstFnStatus@@U?$_Ref_fn@USortTaskListPred@@@std@@@std@@YAXPEAUTaskLstFnStatus@@0U?$_Ref_fn@USortTaskListPred@@@0@@Z@4HA
xdata	ENDS
;	COMDAT xdata
xdata	SEGMENT
$cppxdata$??$_Sort_heap_unchecked@PEAUTaskLstFnStatus@@U?$_Ref_fn@USortTaskListPred@@@std@@@std@@YAXPEAUTaskLstFnStatus@@0U?$_Ref_fn@USortTaskListPred@@@0@@Z DB 08H
	DD	imagerel $stateUnwindMap$??$_Sort_heap_unchecked@PEAUTaskLstFnStatus@@U?$_Ref_fn@USortTaskListPred@@@std@@@std@@YAXPEAUTaskLstFnStatus@@0U?$_Ref_fn@USortTaskListPred@@@0@@Z
	DD	imagerel $ip2state$??$_Sort_heap_unchecked@PEAUTaskLstFnStatus@@U?$_Ref_fn@USortTaskListPred@@@std@@@std@@YAXPEAUTaskLstFnStatus@@0U?$_Ref_fn@USortTaskListPred@@@0@@Z
xdata	ENDS
;	COMDAT xdata
xdata	SEGMENT
$unwind$??$_Sort_heap_unchecked@PEAUTaskLstFnStatus@@U?$_Ref_fn@USortTaskListPred@@@std@@@std@@YAXPEAUTaskLstFnStatus@@0U?$_Ref_fn@USortTaskListPred@@@0@@Z DD 0a2519H
	DD	0175416H
	DD	0163416H
	DD	0f012d216H
	DD	0c00ee010H
	DD	0600b700cH
	DD	imagerel __GSHandlerCheck_EH4
	DD	imagerel $cppxdata$??$_Sort_heap_unchecked@PEAUTaskLstFnStatus@@U?$_Ref_fn@USortTaskListPred@@@std@@@std@@YAXPEAUTaskLstFnStatus@@0U?$_Ref_fn@USortTaskListPred@@@0@@Z
	DD	06aH
xdata	ENDS
;	COMDAT xdata
xdata	SEGMENT
$ip2state$??$_Make_heap_unchecked@PEAUTaskLstFnStatus@@U?$_Ref_fn@USortTaskListPred@@@std@@@std@@YAXPEAUTaskLstFnStatus@@0U?$_Ref_fn@USortTaskListPred@@@0@@Z DB 08H
	DB	00H
	DB	00H
	DB	0e9H, 03H
	DB	02H
	DB	'D'
	DB	04H
	DB	0d1H, 09H
	DB	00H
xdata	ENDS
;	COMDAT xdata
xdata	SEGMENT
$stateUnwindMap$??$_Make_heap_unchecked@PEAUTaskLstFnStatus@@U?$_Ref_fn@USortTaskListPred@@@std@@@std@@YAXPEAUTaskLstFnStatus@@0U?$_Ref_fn@USortTaskListPred@@@0@@Z DB 06H
	DB	0eH
	DD	imagerel ?dtor$1@?0???$_Make_heap_unchecked@PEAUTaskLstFnStatus@@U?$_Ref_fn@USortTaskListPred@@@std@@@std@@YAXPEAUTaskLstFnStatus@@0U?$_Ref_fn@USortTaskListPred@@@0@@Z@4HA
	DB	032H
	DD	imagerel ??1TaskLstFnStatus@@QEAA@XZ
	DB	021H
	DB	02H
	DB	06eH
	DD	imagerel ?dtor$2@?0???$_Make_heap_unchecked@PEAUTaskLstFnStatus@@U?$_Ref_fn@USortTaskListPred@@@std@@@std@@YAXPEAUTaskLstFnStatus@@0U?$_Ref_fn@USortTaskListPred@@@0@@Z@4HA
xdata	ENDS
;	COMDAT xdata
xdata	SEGMENT
$cppxdata$??$_Make_heap_unchecked@PEAUTaskLstFnStatus@@U?$_Ref_fn@USortTaskListPred@@@std@@@std@@YAXPEAUTaskLstFnStatus@@0U?$_Ref_fn@USortTaskListPred@@@0@@Z DB 08H
	DD	imagerel $stateUnwindMap$??$_Make_heap_unchecked@PEAUTaskLstFnStatus@@U?$_Ref_fn@USortTaskListPred@@@std@@@std@@YAXPEAUTaskLstFnStatus@@0U?$_Ref_fn@USortTaskListPred@@@0@@Z
	DD	imagerel $ip2state$??$_Make_heap_unchecked@PEAUTaskLstFnStatus@@U?$_Ref_fn@USortTaskListPred@@@std@@@std@@YAXPEAUTaskLstFnStatus@@0U?$_Ref_fn@USortTaskListPred@@@0@@Z
xdata	ENDS
;	COMDAT xdata
xdata	SEGMENT
$unwind$??$_Make_heap_unchecked@PEAUTaskLstFnStatus@@U?$_Ref_fn@USortTaskListPred@@@std@@@std@@YAXPEAUTaskLstFnStatus@@0U?$_Ref_fn@USortTaskListPred@@@0@@Z DD 0b2919H
	DD	0243417H
	DD	01a0117H
	DD	0e00ef010H
	DD	0c00ad00cH
	DD	060077008H
	DD	05006H
	DD	imagerel __GSHandlerCheck_EH4
	DD	imagerel $cppxdata$??$_Make_heap_unchecked@PEAUTaskLstFnStatus@@U?$_Ref_fn@USortTaskListPred@@@std@@@std@@YAXPEAUTaskLstFnStatus@@0U?$_Ref_fn@USortTaskListPred@@@0@@Z
	DD	0c2H
xdata	ENDS
;	COMDAT xdata
xdata	SEGMENT
$ip2state$??$_Insertion_sort_unchecked@PEAUTaskLstFnStatus@@U?$_Ref_fn@USortTaskListPred@@@std@@@std@@YAPEAUTaskLstFnStatus@@QEAU1@0U?$_Ref_fn@USortTaskListPred@@@0@@Z DB 0cH
	DB	00H
	DB	00H
	DB	0f5H, 02H
	DB	02H
	DB	','
	DB	04H
	DB	01H, 0bH
	DB	00H
	DB	'Q', 02H
	DB	04H
	DB	0cH
	DB	00H
xdata	ENDS
;	COMDAT xdata
xdata	SEGMENT
$stateUnwindMap$??$_Insertion_sort_unchecked@PEAUTaskLstFnStatus@@U?$_Ref_fn@USortTaskListPred@@@std@@@std@@YAPEAUTaskLstFnStatus@@QEAU1@0U?$_Ref_fn@USortTaskListPred@@@0@@Z DB 06H
	DB	0eH
	DD	imagerel ?dtor$1@?0???$_Insertion_sort_unchecked@PEAUTaskLstFnStatus@@U?$_Ref_fn@USortTaskListPred@@@std@@@std@@YAPEAUTaskLstFnStatus@@QEAU1@0U?$_Ref_fn@USortTaskListPred@@@0@@Z@4HA
	DB	032H
	DD	imagerel ??1TaskLstFnStatus@@QEAA@XZ
	DB	021H
	DB	02H
	DB	06eH
	DD	imagerel ?dtor$2@?0???$_Insertion_sort_unchecked@PEAUTaskLstFnStatus@@U?$_Ref_fn@USortTaskListPred@@@std@@@std@@YAPEAUTaskLstFnStatus@@QEAU1@0U?$_Ref_fn@USortTaskListPred@@@0@@Z@4HA
xdata	ENDS
;	COMDAT xdata
xdata	SEGMENT
$cppxdata$??$_Insertion_sort_unchecked@PEAUTaskLstFnStatus@@U?$_Ref_fn@USortTaskListPred@@@std@@@std@@YAPEAUTaskLstFnStatus@@QEAU1@0U?$_Ref_fn@USortTaskListPred@@@0@@Z DB 08H
	DD	imagerel $stateUnwindMap$??$_Insertion_sort_unchecked@PEAUTaskLstFnStatus@@U?$_Ref_fn@USortTaskListPred@@@std@@@std@@YAPEAUTaskLstFnStatus@@QEAU1@0U?$_Ref_fn@USortTaskListPred@@@0@@Z
	DD	imagerel $ip2state$??$_Insertion_sort_unchecked@PEAUTaskLstFnStatus@@U?$_Ref_fn@USortTaskListPred@@@std@@@std@@YAPEAUTaskLstFnStatus@@QEAU1@0U?$_Ref_fn@USortTaskListPred@@@0@@Z
xdata	ENDS
;	COMDAT xdata
xdata	SEGMENT
$unwind$??$_Insertion_sort_unchecked@PEAUTaskLstFnStatus@@U?$_Ref_fn@USortTaskListPred@@@std@@@std@@YAPEAUTaskLstFnStatus@@QEAU1@0U?$_Ref_fn@USortTaskListPred@@@0@@Z DD 0d3219H
	DD	0237424H
	DD	0226424H
	DD	0213424H
	DD	01a0124H
	DD	0e016f018H
	DD	0c012d014H
	DD	05010H
	DD	imagerel __GSHandlerCheck_EH4
	DD	imagerel $cppxdata$??$_Insertion_sort_unchecked@PEAUTaskLstFnStatus@@U?$_Ref_fn@USortTaskListPred@@@std@@@std@@YAPEAUTaskLstFnStatus@@QEAU1@0U?$_Ref_fn@USortTaskListPred@@@0@@Z
	DD	0c2H
xdata	ENDS
;	COMDAT xdata
xdata	SEGMENT
$ip2state$??$_Uninitialized_move@PEAUrecordedMacroStep@@V?$allocator@UrecordedMacroStep@@@std@@@std@@YAPEAUrecordedMacroStep@@QEAU1@0PEAU1@AEAV?$allocator@UrecordedMacroStep@@@0@@Z DB 0aH
	DB	00H
	DB	00H
	DB	'*'
	DB	02H
	DB	0aaH
	DB	04H
	DB	0eH
	DB	02H
	DB	'4'
	DB	00H
xdata	ENDS
;	COMDAT xdata
xdata	SEGMENT
$stateUnwindMap$??$_Uninitialized_move@PEAUrecordedMacroStep@@V?$allocator@UrecordedMacroStep@@@std@@@std@@YAPEAUrecordedMacroStep@@QEAU1@0PEAU1@AEAV?$allocator@UrecordedMacroStep@@@0@@Z DB 06H
	DB	0aH
	DD	imagerel ??1?$_Uninitialized_backout_al@V?$allocator@UrecordedMacroStep@@@std@@@std@@QEAA@XZ
	DB	00H
	DB	036H
	DD	imagerel ?dtor$1@?0???$_Uninitialized_move@PEAUrecordedMacroStep@@V?$allocator@UrecordedMacroStep@@@std@@@std@@YAPEAUrecordedMacroStep@@QEAU1@0PEAU1@AEAV?$allocator@UrecordedMacroStep@@@0@@Z@4HA
	DB	060H
xdata	ENDS
;	COMDAT xdata
xdata	SEGMENT
$cppxdata$??$_Uninitialized_move@PEAUrecordedMacroStep@@V?$allocator@UrecordedMacroStep@@@std@@@std@@YAPEAUrecordedMacroStep@@QEAU1@0PEAU1@AEAV?$allocator@UrecordedMacroStep@@@0@@Z DB 08H
	DD	imagerel $stateUnwindMap$??$_Uninitialized_move@PEAUrecordedMacroStep@@V?$allocator@UrecordedMacroStep@@@std@@@std@@YAPEAUrecordedMacroStep@@QEAU1@0PEAU1@AEAV?$allocator@UrecordedMacroStep@@@0@@Z
	DD	imagerel $ip2state$??$_Uninitialized_move@PEAUrecordedMacroStep@@V?$allocator@UrecordedMacroStep@@@std@@@std@@YAPEAUrecordedMacroStep@@QEAU1@0PEAU1@AEAV?$allocator@UrecordedMacroStep@@@0@@Z
xdata	ENDS
;	COMDAT xdata
xdata	SEGMENT
$unwind$??$_Uninitialized_move@PEAUrecordedMacroStep@@V?$allocator@UrecordedMacroStep@@@std@@@std@@YAPEAUrecordedMacroStep@@QEAU1@0PEAU1@AEAV?$allocator@UrecordedMacroStep@@@0@@Z DD 010411H
	DD	04204H
	DD	imagerel __CxxFrameHandler4
	DD	imagerel $cppxdata$??$_Uninitialized_move@PEAUrecordedMacroStep@@V?$allocator@UrecordedMacroStep@@@std@@@std@@YAPEAUrecordedMacroStep@@QEAU1@0PEAU1@AEAV?$allocator@UrecordedMacroStep@@@0@@Z
xdata	ENDS
;	COMDAT xdata
xdata	SEGMENT
$unwind$??$_Uninitialized_move@PEAPEAUHWND__@@V?$allocator@PEAUHWND__@@@std@@@std@@YAPEAPEAUHWND__@@QEAPEAU1@0PEAPEAU1@AEAV?$allocator@PEAUHWND__@@@0@@Z DD 040a01H
	DD	06340aH
	DD	07006320aH
xdata	ENDS
;	COMDAT xdata
xdata	SEGMENT
$unwind$??$_Uninitialized_move@PEAPEAVBuffer@@V?$allocator@PEAVBuffer@@@std@@@std@@YAPEAPEAVBuffer@@QEAPEAV1@0PEAPEAV1@AEAV?$allocator@PEAVBuffer@@@0@@Z DD 040a01H
	DD	06340aH
	DD	07006320aH
xdata	ENDS
;	COMDAT xdata
xdata	SEGMENT
$ip2state$??$destroy@UrecordedMacroStep@@@?$_Default_allocator_traits@V?$allocator@UrecordedMacroStep@@@std@@@std@@SAXAEAV?$allocator@UrecordedMacroStep@@@1@QEAUrecordedMacroStep@@@Z DB 02H
	DB	00H
	DB	00H
xdata	ENDS
;	COMDAT xdata
xdata	SEGMENT
$stateUnwindMap$??$destroy@UrecordedMacroStep@@@?$_Default_allocator_traits@V?$allocator@UrecordedMacroStep@@@std@@@std@@SAXAEAV?$allocator@UrecordedMacroStep@@@1@QEAUrecordedMacroStep@@@Z DB 02H
	DB	0eH
	DD	imagerel ?dtor$0@?0???$destroy@UrecordedMacroStep@@@?$_Default_allocator_traits@V?$allocator@UrecordedMacroStep@@@std@@@std@@SAXAEAV?$allocator@UrecordedMacroStep@@@1@QEAUrecordedMacroStep@@@Z@4HA
xdata	ENDS
;	COMDAT xdata
xdata	SEGMENT
$cppxdata$??$destroy@UrecordedMacroStep@@@?$_Default_allocator_traits@V?$allocator@UrecordedMacroStep@@@std@@@std@@SAXAEAV?$allocator@UrecordedMacroStep@@@1@QEAUrecordedMacroStep@@@Z DB 08H
	DD	imagerel $stateUnwindMap$??$destroy@UrecordedMacroStep@@@?$_Default_allocator_traits@V?$allocator@UrecordedMacroStep@@@std@@@std@@SAXAEAV?$allocator@UrecordedMacroStep@@@1@QEAUrecordedMacroStep@@@Z
	DD	imagerel $ip2state$??$destroy@UrecordedMacroStep@@@?$_Default_allocator_traits@V?$allocator@UrecordedMacroStep@@@std@@@std@@SAXAEAV?$allocator@UrecordedMacroStep@@@1@QEAUrecordedMacroStep@@@Z
xdata	ENDS
;	COMDAT xdata
xdata	SEGMENT
$unwind$??$destroy@UrecordedMacroStep@@@?$_Default_allocator_traits@V?$allocator@UrecordedMacroStep@@@std@@@std@@SAXAEAV?$allocator@UrecordedMacroStep@@@1@QEAUrecordedMacroStep@@@Z DD 010911H
	DD	04209H
	DD	imagerel __CxxFrameHandler4
	DD	imagerel $cppxdata$??$destroy@UrecordedMacroStep@@@?$_Default_allocator_traits@V?$allocator@UrecordedMacroStep@@@std@@@std@@SAXAEAV?$allocator@UrecordedMacroStep@@@1@QEAUrecordedMacroStep@@@Z
xdata	ENDS
;	COMDAT xdata
xdata	SEGMENT
$ip2state$??$destroy@UPluginDlgDockingInfo@@@?$_Default_allocator_traits@V?$allocator@UPluginDlgDockingInfo@@@std@@@std@@SAXAEAV?$allocator@UPluginDlgDockingInfo@@@1@QEAUPluginDlgDockingInfo@@@Z DB 02H
	DB	00H
	DB	00H
xdata	ENDS
;	COMDAT xdata
xdata	SEGMENT
$stateUnwindMap$??$destroy@UPluginDlgDockingInfo@@@?$_Default_allocator_traits@V?$allocator@UPluginDlgDockingInfo@@@std@@@std@@SAXAEAV?$allocator@UPluginDlgDockingInfo@@@1@QEAUPluginDlgDockingInfo@@@Z DB 02H
	DB	0cH
	DD	imagerel ??1?$basic_string@_WU?$char_traits@_W@std@@V?$allocator@_W@2@@std@@QEAA@XZ
	DB	070H
xdata	ENDS
;	COMDAT xdata
xdata	SEGMENT
$cppxdata$??$destroy@UPluginDlgDockingInfo@@@?$_Default_allocator_traits@V?$allocator@UPluginDlgDockingInfo@@@std@@@std@@SAXAEAV?$allocator@UPluginDlgDockingInfo@@@1@QEAUPluginDlgDockingInfo@@@Z DB 08H
	DD	imagerel $stateUnwindMap$??$destroy@UPluginDlgDockingInfo@@@?$_Default_allocator_traits@V?$allocator@UPluginDlgDockingInfo@@@std@@@std@@SAXAEAV?$allocator@UPluginDlgDockingInfo@@@1@QEAUPluginDlgDockingInfo@@@Z
	DD	imagerel $ip2state$??$destroy@UPluginDlgDockingInfo@@@?$_Default_allocator_traits@V?$allocator@UPluginDlgDockingInfo@@@std@@@std@@SAXAEAV?$allocator@UPluginDlgDockingInfo@@@1@QEAUPluginDlgDockingInfo@@@Z
xdata	ENDS
;	COMDAT xdata
xdata	SEGMENT
$unwind$??$destroy@UPluginDlgDockingInfo@@@?$_Default_allocator_traits@V?$allocator@UPluginDlgDockingInfo@@@std@@@std@@SAXAEAV?$allocator@UPluginDlgDockingInfo@@@1@QEAUPluginDlgDockingInfo@@@Z DD 010911H
	DD	04209H
	DD	imagerel __CxxFrameHandler4
	DD	imagerel $cppxdata$??$destroy@UPluginDlgDockingInfo@@@?$_Default_allocator_traits@V?$allocator@UPluginDlgDockingInfo@@@std@@@std@@SAXAEAV?$allocator@UPluginDlgDockingInfo@@@1@QEAUPluginDlgDockingInfo@@@Z
xdata	ENDS
;	COMDAT xdata
xdata	SEGMENT
$ip2state$??$destroy@ULangMenuItem@@@?$_Default_allocator_traits@V?$allocator@ULangMenuItem@@@std@@@std@@SAXAEAV?$allocator@ULangMenuItem@@@1@QEAULangMenuItem@@@Z DB 02H
	DB	00H
	DB	00H
xdata	ENDS
;	COMDAT xdata
xdata	SEGMENT
$stateUnwindMap$??$destroy@ULangMenuItem@@@?$_Default_allocator_traits@V?$allocator@ULangMenuItem@@@std@@@std@@SAXAEAV?$allocator@ULangMenuItem@@@1@QEAULangMenuItem@@@Z DB 02H
	DB	0eH
	DD	imagerel ?dtor$0@?0???$destroy@ULangMenuItem@@@?$_Default_allocator_traits@V?$allocator@ULangMenuItem@@@std@@@std@@SAXAEAV?$allocator@ULangMenuItem@@@1@QEAULangMenuItem@@@Z@4HA
xdata	ENDS
;	COMDAT xdata
xdata	SEGMENT
$cppxdata$??$destroy@ULangMenuItem@@@?$_Default_allocator_traits@V?$allocator@ULangMenuItem@@@std@@@std@@SAXAEAV?$allocator@ULangMenuItem@@@1@QEAULangMenuItem@@@Z DB 08H
	DD	imagerel $stateUnwindMap$??$destroy@ULangMenuItem@@@?$_Default_allocator_traits@V?$allocator@ULangMenuItem@@@std@@@std@@SAXAEAV?$allocator@ULangMenuItem@@@1@QEAULangMenuItem@@@Z
	DD	imagerel $ip2state$??$destroy@ULangMenuItem@@@?$_Default_allocator_traits@V?$allocator@ULangMenuItem@@@std@@@std@@SAXAEAV?$allocator@ULangMenuItem@@@1@QEAULangMenuItem@@@Z
xdata	ENDS
;	COMDAT xdata
xdata	SEGMENT
$unwind$??$destroy@ULangMenuItem@@@?$_Default_allocator_traits@V?$allocator@ULangMenuItem@@@std@@@std@@SAXAEAV?$allocator@ULangMenuItem@@@1@QEAULangMenuItem@@@Z DD 010911H
	DD	04209H
	DD	imagerel __CxxFrameHandler4
	DD	imagerel $cppxdata$??$destroy@ULangMenuItem@@@?$_Default_allocator_traits@V?$allocator@ULangMenuItem@@@std@@@std@@SAXAEAV?$allocator@ULangMenuItem@@@1@QEAULangMenuItem@@@Z
xdata	ENDS
;	COMDAT xdata
xdata	SEGMENT
$unwind$??$_Allocate_manually_vector_aligned@U_Default_allocate_traits@std@@@std@@YAPEAX_K@Z DD 010401H
	DD	04204H
xdata	ENDS
;	COMDAT xdata
xdata	SEGMENT
$ip2state$??$_Assign_range@PEAUrecordedMacroStep@@@?$vector@UrecordedMacroStep@@V?$allocator@UrecordedMacroStep@@@std@@@std@@AEAAXPEAUrecordedMacroStep@@0Uforward_iterator_tag@1@@Z DB 02H
	DB	00H
	DB	00H
xdata	ENDS
;	COMDAT xdata
xdata	SEGMENT
$stateUnwindMap$??$_Assign_range@PEAUrecordedMacroStep@@@?$vector@UrecordedMacroStep@@V?$allocator@UrecordedMacroStep@@@std@@@std@@AEAAXPEAUrecordedMacroStep@@0Uforward_iterator_tag@1@@Z DB 04H
	DB	0eH
	DD	imagerel ?dtor$0@?0???$_Assign_range@PEAUrecordedMacroStep@@@?$vector@UrecordedMacroStep@@V?$allocator@UrecordedMacroStep@@@std@@@std@@AEAAXPEAUrecordedMacroStep@@0Uforward_iterator_tag@1@@Z@4HA
	DB	036H
	DD	imagerel ?dtor$1@?0???$_Assign_range@PEAUrecordedMacroStep@@@?$vector@UrecordedMacroStep@@V?$allocator@UrecordedMacroStep@@@std@@@std@@AEAAXPEAUrecordedMacroStep@@0Uforward_iterator_tag@1@@Z@4HA
xdata	ENDS
;	COMDAT xdata
xdata	SEGMENT
$cppxdata$??$_Assign_range@PEAUrecordedMacroStep@@@?$vector@UrecordedMacroStep@@V?$allocator@UrecordedMacroStep@@@std@@@std@@AEAAXPEAUrecordedMacroStep@@0Uforward_iterator_tag@1@@Z DB 08H
	DD	imagerel $stateUnwindMap$??$_Assign_range@PEAUrecordedMacroStep@@@?$vector@UrecordedMacroStep@@V?$allocator@UrecordedMacroStep@@@std@@@std@@AEAAXPEAUrecordedMacroStep@@0Uforward_iterator_tag@1@@Z
	DD	imagerel $ip2state$??$_Assign_range@PEAUrecordedMacroStep@@@?$vector@UrecordedMacroStep@@V?$allocator@UrecordedMacroStep@@@std@@@std@@AEAAXPEAUrecordedMacroStep@@0Uforward_iterator_tag@1@@Z
xdata	ENDS
;	COMDAT xdata
xdata	SEGMENT
$unwind$??$_Assign_range@PEAUrecordedMacroStep@@@?$vector@UrecordedMacroStep@@V?$allocator@UrecordedMacroStep@@@std@@@std@@AEAAXPEAUrecordedMacroStep@@0Uforward_iterator_tag@1@@Z DD 0c1c11H
	DD	0d641cH
	DD	0c541cH
	DD	0b341cH
	DD	0f018321cH
	DD	0d014e016H
	DD	07010c012H
	DD	imagerel __CxxFrameHandler4
	DD	imagerel $cppxdata$??$_Assign_range@PEAUrecordedMacroStep@@@?$vector@UrecordedMacroStep@@V?$allocator@UrecordedMacroStep@@@std@@@std@@AEAAXPEAUrecordedMacroStep@@0Uforward_iterator_tag@1@@Z
xdata	ENDS
;	COMDAT xdata
xdata	SEGMENT
$ip2state$??$_Uninitialized_copy@PEAUrecordedMacroStep@@V?$allocator@UrecordedMacroStep@@@std@@@std@@YAPEAUrecordedMacroStep@@QEAU1@0PEAU1@AEAV?$allocator@UrecordedMacroStep@@@0@@Z DB 0aH
	DB	00H
	DB	00H
	DB	'H'
	DB	02H
	DB	'f'
	DB	04H
	DB	0cH
	DB	02H
	DB	'6'
	DB	00H
xdata	ENDS
;	COMDAT xdata
xdata	SEGMENT
$stateUnwindMap$??$_Uninitialized_copy@PEAUrecordedMacroStep@@V?$allocator@UrecordedMacroStep@@@std@@@std@@YAPEAUrecordedMacroStep@@QEAU1@0PEAU1@AEAV?$allocator@UrecordedMacroStep@@@0@@Z DB 06H
	DB	0aH
	DD	imagerel ??1?$_Uninitialized_backout_al@V?$allocator@UrecordedMacroStep@@@std@@@std@@QEAA@XZ
	DB	040H
	DB	036H
	DD	imagerel ?dtor$1@?0???$_Uninitialized_copy@PEAUrecordedMacroStep@@V?$allocator@UrecordedMacroStep@@@std@@@std@@YAPEAUrecordedMacroStep@@QEAU1@0PEAU1@AEAV?$allocator@UrecordedMacroStep@@@0@@Z@4HA
	DB	060H
xdata	ENDS
;	COMDAT xdata
xdata	SEGMENT
$cppxdata$??$_Uninitialized_copy@PEAUrecordedMacroStep@@V?$allocator@UrecordedMacroStep@@@std@@@std@@YAPEAUrecordedMacroStep@@QEAU1@0PEAU1@AEAV?$allocator@UrecordedMacroStep@@@0@@Z DB 08H
	DD	imagerel $stateUnwindMap$??$_Uninitialized_copy@PEAUrecordedMacroStep@@V?$allocator@UrecordedMacroStep@@@std@@@std@@YAPEAUrecordedMacroStep@@QEAU1@0PEAU1@AEAV?$allocator@UrecordedMacroStep@@@0@@Z
	DD	imagerel $ip2state$??$_Uninitialized_copy@PEAUrecordedMacroStep@@V?$allocator@UrecordedMacroStep@@@std@@@std@@YAPEAUrecordedMacroStep@@QEAU1@0PEAU1@AEAV?$allocator@UrecordedMacroStep@@@0@@Z
xdata	ENDS
;	COMDAT xdata
xdata	SEGMENT
$unwind$??$_Uninitialized_copy@PEAUrecordedMacroStep@@V?$allocator@UrecordedMacroStep@@@std@@@std@@YAPEAUrecordedMacroStep@@QEAU1@0PEAU1@AEAV?$allocator@UrecordedMacroStep@@@0@@Z DD 060f11H
	DD	0c640fH
	DD	0b340fH
	DD	0700b720fH
	DD	imagerel __CxxFrameHandler4
	DD	imagerel $cppxdata$??$_Uninitialized_copy@PEAUrecordedMacroStep@@V?$allocator@UrecordedMacroStep@@@std@@@std@@YAPEAUrecordedMacroStep@@QEAU1@0PEAU1@AEAV?$allocator@UrecordedMacroStep@@@0@@Z
xdata	ENDS
;	COMDAT xdata
xdata	SEGMENT
$unwind$??$_Copy_memmove@PEAPEAUHWND__@@PEAPEAU1@@std@@YAPEAPEAUHWND__@@PEAPEAU1@00@Z DD 040a01H
	DD	06340aH
	DD	07006320aH
xdata	ENDS
;	COMDAT xdata
xdata	SEGMENT
$ip2state$??$_Uninitialized_copy@PEAUPluginDlgDockingInfo@@V?$allocator@UPluginDlgDockingInfo@@@std@@@std@@YAPEAUPluginDlgDockingInfo@@QEAU1@0PEAU1@AEAV?$allocator@UPluginDlgDockingInfo@@@0@@Z DB 0aH
	DB	00H
	DB	00H
	DB	'H'
	DB	02H
	DB	'<'
	DB	04H
	DB	'0'
	DB	02H
	DB	'6'
	DB	00H
xdata	ENDS
;	COMDAT xdata
xdata	SEGMENT
$stateUnwindMap$??$_Uninitialized_copy@PEAUPluginDlgDockingInfo@@V?$allocator@UPluginDlgDockingInfo@@@std@@@std@@YAPEAUPluginDlgDockingInfo@@QEAU1@0PEAU1@AEAV?$allocator@UPluginDlgDockingInfo@@@0@@Z DB 06H
	DB	0aH
	DD	imagerel ??1?$_Uninitialized_backout_al@V?$allocator@UPluginDlgDockingInfo@@@std@@@std@@QEAA@XZ
	DB	040H
	DB	034H
	DD	imagerel ??1?$basic_string@_WU?$char_traits@_W@std@@V?$allocator@_W@2@@std@@QEAA@XZ
	DB	0a0H
	DB	068H
xdata	ENDS
;	COMDAT xdata
xdata	SEGMENT
$cppxdata$??$_Uninitialized_copy@PEAUPluginDlgDockingInfo@@V?$allocator@UPluginDlgDockingInfo@@@std@@@std@@YAPEAUPluginDlgDockingInfo@@QEAU1@0PEAU1@AEAV?$allocator@UPluginDlgDockingInfo@@@0@@Z DB 08H
	DD	imagerel $stateUnwindMap$??$_Uninitialized_copy@PEAUPluginDlgDockingInfo@@V?$allocator@UPluginDlgDockingInfo@@@std@@@std@@YAPEAUPluginDlgDockingInfo@@QEAU1@0PEAU1@AEAV?$allocator@UPluginDlgDockingInfo@@@0@@Z
	DD	imagerel $ip2state$??$_Uninitialized_copy@PEAUPluginDlgDockingInfo@@V?$allocator@UPluginDlgDockingInfo@@@std@@@std@@YAPEAUPluginDlgDockingInfo@@QEAU1@0PEAU1@AEAV?$allocator@UPluginDlgDockingInfo@@@0@@Z
xdata	ENDS
;	COMDAT xdata
xdata	SEGMENT
$unwind$??$_Uninitialized_copy@PEAUPluginDlgDockingInfo@@V?$allocator@UPluginDlgDockingInfo@@@std@@@std@@YAPEAUPluginDlgDockingInfo@@QEAU1@0PEAU1@AEAV?$allocator@UPluginDlgDockingInfo@@@0@@Z DD 060f11H
	DD	0c640fH
	DD	0b340fH
	DD	0700b720fH
	DD	imagerel __CxxFrameHandler4
	DD	imagerel $cppxdata$??$_Uninitialized_copy@PEAUPluginDlgDockingInfo@@V?$allocator@UPluginDlgDockingInfo@@@std@@@std@@YAPEAUPluginDlgDockingInfo@@QEAU1@0PEAU1@AEAV?$allocator@UPluginDlgDockingInfo@@@0@@Z
xdata	ENDS
;	COMDAT xdata
xdata	SEGMENT
$ip2state$??$_Uninitialized_copy@PEAULangMenuItem@@V?$allocator@ULangMenuItem@@@std@@@std@@YAPEAULangMenuItem@@QEAU1@0PEAU1@AEAV?$allocator@ULangMenuItem@@@0@@Z DB 06H
	DB	00H
	DB	00H
	DB	'N'
	DB	02H
	DB	'z'
	DB	00H
xdata	ENDS
;	COMDAT xdata
xdata	SEGMENT
$stateUnwindMap$??$_Uninitialized_copy@PEAULangMenuItem@@V?$allocator@ULangMenuItem@@@std@@@std@@YAPEAULangMenuItem@@QEAU1@0PEAU1@AEAV?$allocator@ULangMenuItem@@@0@@Z DB 06H
	DB	0aH
	DD	imagerel ??1?$_Uninitialized_backout_al@V?$allocator@ULangMenuItem@@@std@@@std@@QEAA@XZ
	DB	040H
	DB	036H
	DD	imagerel ?dtor$1@?0???$_Uninitialized_copy@PEAULangMenuItem@@V?$allocator@ULangMenuItem@@@std@@@std@@YAPEAULangMenuItem@@QEAU1@0PEAU1@AEAV?$allocator@ULangMenuItem@@@0@@Z@4HA
	DB	060H
xdata	ENDS
;	COMDAT xdata
xdata	SEGMENT
$cppxdata$??$_Uninitialized_copy@PEAULangMenuItem@@V?$allocator@ULangMenuItem@@@std@@@std@@YAPEAULangMenuItem@@QEAU1@0PEAU1@AEAV?$allocator@ULangMenuItem@@@0@@Z DB 08H
	DD	imagerel $stateUnwindMap$??$_Uninitialized_copy@PEAULangMenuItem@@V?$allocator@ULangMenuItem@@@std@@@std@@YAPEAULangMenuItem@@QEAU1@0PEAU1@AEAV?$allocator@ULangMenuItem@@@0@@Z
	DD	imagerel $ip2state$??$_Uninitialized_copy@PEAULangMenuItem@@V?$allocator@ULangMenuItem@@@std@@@std@@YAPEAULangMenuItem@@QEAU1@0PEAU1@AEAV?$allocator@ULangMenuItem@@@0@@Z
xdata	ENDS
;	COMDAT xdata
xdata	SEGMENT
$unwind$??$_Uninitialized_copy@PEAULangMenuItem@@V?$allocator@ULangMenuItem@@@std@@@std@@YAPEAULangMenuItem@@QEAU1@0PEAU1@AEAV?$allocator@ULangMenuItem@@@0@@Z DD 060f11H
	DD	0c640fH
	DD	0b340fH
	DD	0700b720fH
	DD	imagerel __CxxFrameHandler4
	DD	imagerel $cppxdata$??$_Uninitialized_copy@PEAULangMenuItem@@V?$allocator@ULangMenuItem@@@std@@@std@@YAPEAULangMenuItem@@QEAU1@0PEAU1@AEAV?$allocator@ULangMenuItem@@@0@@Z
xdata	ENDS
;	COMDAT xdata
xdata	SEGMENT
$unwind$??$_Uninitialized_copy@PEAPEAUtTbData@@V?$allocator@PEAUtTbData@@@std@@@std@@YAPEAPEAUtTbData@@QEAPEAU1@0PEAPEAU1@AEAV?$allocator@PEAUtTbData@@@0@@Z DD 040a01H
	DD	06340aH
	DD	07006320aH
xdata	ENDS
;	COMDAT xdata
xdata	SEGMENT
$unwind$??$_Uninitialized_copy@PEAPEAVDockingCont@@V?$allocator@PEAVDockingCont@@@std@@@std@@YAPEAPEAVDockingCont@@QEAPEAV1@0PEAPEAV1@AEAV?$allocator@PEAVDockingCont@@@0@@Z DD 040a01H
	DD	06340aH
	DD	07006320aH
xdata	ENDS
;	COMDAT xdata
xdata	SEGMENT
$ip2state$??$_Sort_unchecked@PEAUTaskLstFnStatus@@U?$_Ref_fn@USortTaskListPred@@@std@@@std@@YAXPEAUTaskLstFnStatus@@0_JU?$_Ref_fn@USortTaskListPred@@@0@@Z DB 08H
	DB	00H
	DB	00H
	DB	0dH, 07H
	DB	02H
	DB	' '
	DB	04H
	DB	'j'
	DB	00H
xdata	ENDS
;	COMDAT xdata
xdata	SEGMENT
$stateUnwindMap$??$_Sort_unchecked@PEAUTaskLstFnStatus@@U?$_Ref_fn@USortTaskListPred@@@std@@@std@@YAXPEAUTaskLstFnStatus@@0_JU?$_Ref_fn@USortTaskListPred@@@0@@Z DB 06H
	DB	0eH
	DD	imagerel ?dtor$1@?0???$_Sort_unchecked@PEAUTaskLstFnStatus@@U?$_Ref_fn@USortTaskListPred@@@std@@@std@@YAXPEAUTaskLstFnStatus@@0_JU?$_Ref_fn@USortTaskListPred@@@0@@Z@4HA
	DB	032H
	DD	imagerel ??1TaskLstFnStatus@@QEAA@XZ
	DB	080H
	DB	066H
	DD	imagerel ?dtor$2@?0???$_Sort_unchecked@PEAUTaskLstFnStatus@@U?$_Ref_fn@USortTaskListPred@@@std@@@std@@YAXPEAUTaskLstFnStatus@@0_JU?$_Ref_fn@USortTaskListPred@@@0@@Z@4HA
xdata	ENDS
;	COMDAT xdata
xdata	SEGMENT
$cppxdata$??$_Sort_unchecked@PEAUTaskLstFnStatus@@U?$_Ref_fn@USortTaskListPred@@@std@@@std@@YAXPEAUTaskLstFnStatus@@0_JU?$_Ref_fn@USortTaskListPred@@@0@@Z DB 08H
	DD	imagerel $stateUnwindMap$??$_Sort_unchecked@PEAUTaskLstFnStatus@@U?$_Ref_fn@USortTaskListPred@@@std@@@std@@YAXPEAUTaskLstFnStatus@@0_JU?$_Ref_fn@USortTaskListPred@@@0@@Z
	DD	imagerel $ip2state$??$_Sort_unchecked@PEAUTaskLstFnStatus@@U?$_Ref_fn@USortTaskListPred@@@std@@@std@@YAXPEAUTaskLstFnStatus@@0_JU?$_Ref_fn@USortTaskListPred@@@0@@Z
xdata	ENDS
;	COMDAT xdata
xdata	SEGMENT
$unwind$??$_Sort_unchecked@PEAUTaskLstFnStatus@@U?$_Ref_fn@USortTaskListPred@@@std@@@std@@YAXPEAUTaskLstFnStatus@@0_JU?$_Ref_fn@USortTaskListPred@@@0@@Z DD 082119H
	DD	0f00bf212H
	DD	0c007e009H
	DD	060047005H
	DD	030025003H
	DD	imagerel __GSHandlerCheck_EH4
	DD	imagerel $cppxdata$??$_Sort_unchecked@PEAUTaskLstFnStatus@@U?$_Ref_fn@USortTaskListPred@@@std@@@std@@YAXPEAUTaskLstFnStatus@@0_JU?$_Ref_fn@USortTaskListPred@@@0@@Z
	DD	07aH
xdata	ENDS
;	COMDAT xdata
xdata	SEGMENT
$unwind$??$_Get_size_of_n@$0EA@@std@@YA_K_K@Z DD 010401H
	DD	04204H
xdata	ENDS
;	COMDAT xdata
xdata	SEGMENT
$ip2state$??$_Destroy_range@V?$allocator@UrecordedMacroStep@@@std@@@std@@YAXPEAUrecordedMacroStep@@QEAU1@AEAV?$allocator@UrecordedMacroStep@@@0@@Z DB 02H
	DB	00H
	DB	00H
xdata	ENDS
;	COMDAT xdata
xdata	SEGMENT
$stateUnwindMap$??$_Destroy_range@V?$allocator@UrecordedMacroStep@@@std@@@std@@YAXPEAUrecordedMacroStep@@QEAU1@AEAV?$allocator@UrecordedMacroStep@@@0@@Z DB 02H
	DB	0eH
	DD	imagerel ?dtor$0@?0???$_Destroy_range@V?$allocator@UrecordedMacroStep@@@std@@@std@@YAXPEAUrecordedMacroStep@@QEAU1@AEAV?$allocator@UrecordedMacroStep@@@0@@Z@4HA
xdata	ENDS
;	COMDAT xdata
xdata	SEGMENT
$cppxdata$??$_Destroy_range@V?$allocator@UrecordedMacroStep@@@std@@@std@@YAXPEAUrecordedMacroStep@@QEAU1@AEAV?$allocator@UrecordedMacroStep@@@0@@Z DB 048H
	DD	imagerel $stateUnwindMap$??$_Destroy_range@V?$allocator@UrecordedMacroStep@@@std@@@std@@YAXPEAUrecordedMacroStep@@QEAU1@AEAV?$allocator@UrecordedMacroStep@@@0@@Z
	DD	imagerel $ip2state$??$_Destroy_range@V?$allocator@UrecordedMacroStep@@@std@@@std@@YAXPEAUrecordedMacroStep@@QEAU1@AEAV?$allocator@UrecordedMacroStep@@@0@@Z
xdata	ENDS
;	COMDAT xdata
xdata	SEGMENT
$unwind$??$_Destroy_range@V?$allocator@UrecordedMacroStep@@@std@@@std@@YAXPEAUrecordedMacroStep@@QEAU1@AEAV?$allocator@UrecordedMacroStep@@@0@@Z DD 041411H
	DD	073414H
	DD	070103214H
	DD	imagerel __CxxFrameHandler4
	DD	imagerel $cppxdata$??$_Destroy_range@V?$allocator@UrecordedMacroStep@@@std@@@std@@YAXPEAUrecordedMacroStep@@QEAU1@AEAV?$allocator@UrecordedMacroStep@@@0@@Z
xdata	ENDS
;	COMDAT xdata
xdata	SEGMENT
$unwind$??$_Destroy_range@V?$allocator@UsessionFileInfo@@@std@@@std@@YAXPEAUsessionFileInfo@@QEAU1@AEAV?$allocator@UsessionFileInfo@@@0@@Z DD 040f01H
	DD	06340fH
	DD	0700b320fH
xdata	ENDS
;	COMDAT xdata
xdata	SEGMENT
$unwind$??$_Destroy_range@V?$allocator@V?$basic_string@_WU?$char_traits@_W@std@@V?$allocator@_W@2@@std@@@std@@@std@@YAXPEAV?$basic_string@_WU?$char_traits@_W@std@@V?$allocator@_W@2@@0@QEAV10@AEAV?$allocator@V?$basic_string@_WU?$char_traits@_W@std@@V?$allocator@_W@2@@std@@@0@@Z DD 040f01H
	DD	06340fH
	DD	0700b320fH
xdata	ENDS
;	COMDAT xdata
xdata	SEGMENT
$unwind$??$_Get_size_of_n@$0BE@@std@@YA_K_K@Z DD 010401H
	DD	04204H
xdata	ENDS
;	COMDAT xdata
xdata	SEGMENT
$unwind$??$_Get_size_of_n@$0DA@@std@@YA_K_K@Z DD 010401H
	DD	04204H
xdata	ENDS
;	COMDAT xdata
xdata	SEGMENT
$ip2state$??$_Destroy_range@V?$allocator@UPluginDlgDockingInfo@@@std@@@std@@YAXPEAUPluginDlgDockingInfo@@QEAU1@AEAV?$allocator@UPluginDlgDockingInfo@@@0@@Z DB 02H
	DB	00H
	DB	00H
xdata	ENDS
;	COMDAT xdata
xdata	SEGMENT
$stateUnwindMap$??$_Destroy_range@V?$allocator@UPluginDlgDockingInfo@@@std@@@std@@YAXPEAUPluginDlgDockingInfo@@QEAU1@AEAV?$allocator@UPluginDlgDockingInfo@@@0@@Z DB 02H
	DB	0cH
	DD	imagerel ??1?$basic_string@_WU?$char_traits@_W@std@@V?$allocator@_W@2@@std@@QEAA@XZ
	DB	060H
xdata	ENDS
;	COMDAT xdata
xdata	SEGMENT
$cppxdata$??$_Destroy_range@V?$allocator@UPluginDlgDockingInfo@@@std@@@std@@YAXPEAUPluginDlgDockingInfo@@QEAU1@AEAV?$allocator@UPluginDlgDockingInfo@@@0@@Z DB 048H
	DD	imagerel $stateUnwindMap$??$_Destroy_range@V?$allocator@UPluginDlgDockingInfo@@@std@@@std@@YAXPEAUPluginDlgDockingInfo@@QEAU1@AEAV?$allocator@UPluginDlgDockingInfo@@@0@@Z
	DD	imagerel $ip2state$??$_Destroy_range@V?$allocator@UPluginDlgDockingInfo@@@std@@@std@@YAXPEAUPluginDlgDockingInfo@@QEAU1@AEAV?$allocator@UPluginDlgDockingInfo@@@0@@Z
xdata	ENDS
;	COMDAT xdata
xdata	SEGMENT
$unwind$??$_Destroy_range@V?$allocator@UPluginDlgDockingInfo@@@std@@@std@@YAXPEAUPluginDlgDockingInfo@@QEAU1@AEAV?$allocator@UPluginDlgDockingInfo@@@0@@Z DD 041411H
	DD	073414H
	DD	070103214H
	DD	imagerel __CxxFrameHandler4
	DD	imagerel $cppxdata$??$_Destroy_range@V?$allocator@UPluginDlgDockingInfo@@@std@@@std@@YAXPEAUPluginDlgDockingInfo@@QEAU1@AEAV?$allocator@UPluginDlgDockingInfo@@@0@@Z
xdata	ENDS
;	COMDAT xdata
xdata	SEGMENT
$unwind$??$_Get_size_of_n@$01@std@@YA_K_K@Z DD 010401H
	DD	04204H
xdata	ENDS
;	COMDAT xdata
xdata	SEGMENT
$ip2state$??$_Destroy_range@V?$allocator@ULangMenuItem@@@std@@@std@@YAXPEAULangMenuItem@@QEAU1@AEAV?$allocator@ULangMenuItem@@@0@@Z DB 02H
	DB	00H
	DB	00H
xdata	ENDS
;	COMDAT xdata
xdata	SEGMENT
$stateUnwindMap$??$_Destroy_range@V?$allocator@ULangMenuItem@@@std@@@std@@YAXPEAULangMenuItem@@QEAU1@AEAV?$allocator@ULangMenuItem@@@0@@Z DB 02H
	DB	0eH
	DD	imagerel ?dtor$0@?0???$_Destroy_range@V?$allocator@ULangMenuItem@@@std@@@std@@YAXPEAULangMenuItem@@QEAU1@AEAV?$allocator@ULangMenuItem@@@0@@Z@4HA
xdata	ENDS
;	COMDAT xdata
xdata	SEGMENT
$cppxdata$??$_Destroy_range@V?$allocator@ULangMenuItem@@@std@@@std@@YAXPEAULangMenuItem@@QEAU1@AEAV?$allocator@ULangMenuItem@@@0@@Z DB 048H
	DD	imagerel $stateUnwindMap$??$_Destroy_range@V?$allocator@ULangMenuItem@@@std@@@std@@YAXPEAULangMenuItem@@QEAU1@AEAV?$allocator@ULangMenuItem@@@0@@Z
	DD	imagerel $ip2state$??$_Destroy_range@V?$allocator@ULangMenuItem@@@std@@@std@@YAXPEAULangMenuItem@@QEAU1@AEAV?$allocator@ULangMenuItem@@@0@@Z
xdata	ENDS
;	COMDAT xdata
xdata	SEGMENT
$unwind$??$_Destroy_range@V?$allocator@ULangMenuItem@@@std@@@std@@YAXPEAULangMenuItem@@QEAU1@AEAV?$allocator@ULangMenuItem@@@0@@Z DD 041411H
	DD	073414H
	DD	070103214H
	DD	imagerel __CxxFrameHandler4
	DD	imagerel $cppxdata$??$_Destroy_range@V?$allocator@ULangMenuItem@@@std@@@std@@YAXPEAULangMenuItem@@QEAU1@AEAV?$allocator@ULangMenuItem@@@0@@Z
xdata	ENDS
;	COMDAT xdata
xdata	SEGMENT
$unwind$??$_Get_size_of_n@$07@std@@YA_K_K@Z DD 010401H
	DD	04204H
xdata	ENDS
;	COMDAT xdata
xdata	SEGMENT
$unwind$??$_Allocate@$0BA@U_Default_allocate_traits@std@@$0A@@std@@YAPEAX_K@Z DD 010401H
	DD	04204H
xdata	ENDS
;	COMDAT xdata
xdata	SEGMENT
$unwind$??$_Get_size_of_n@$0CI@@std@@YA_K_K@Z DD 010401H
	DD	04204H
xdata	ENDS
;	COMDAT xdata
xdata	SEGMENT
$ip2state$??$_Deallocate@$0BA@$0A@@std@@YAXPEAX_K@Z DB 02H
	DB	00H
	DB	00H
xdata	ENDS
;	COMDAT xdata
xdata	SEGMENT
$cppxdata$??$_Deallocate@$0BA@$0A@@std@@YAXPEAX_K@Z DB 040H
	DD	imagerel $ip2state$??$_Deallocate@$0BA@$0A@@std@@YAXPEAX_K@Z
xdata	ENDS
;	COMDAT xdata
xdata	SEGMENT
$unwind$??$_Deallocate@$0BA@$0A@@std@@YAXPEAX_K@Z DD 010419H
	DD	04204H
	DD	imagerel __CxxFrameHandler4
	DD	imagerel $cppxdata$??$_Deallocate@$0BA@$0A@@std@@YAXPEAX_K@Z
xdata	ENDS
;	COMDAT xdata
xdata	SEGMENT
$chain$4$??$_Reallocate_for@V<lambda_3fa8b2c8193a0f3144fc4b1b8f243931>@@PEB_W@?$basic_string@_WU?$char_traits@_W@std@@V?$allocator@_W@2@@std@@AEAAAEAV01@_KV<lambda_3fa8b2c8193a0f3144fc4b1b8f243931>@@PEB_W@Z DD 021H
	DD	imagerel $LN41
	DD	imagerel $LN41+42
	DD	imagerel $unwind$??$_Reallocate_for@V<lambda_3fa8b2c8193a0f3144fc4b1b8f243931>@@PEB_W@?$basic_string@_WU?$char_traits@_W@std@@V?$allocator@_W@2@@std@@AEAAAEAV01@_KV<lambda_3fa8b2c8193a0f3144fc4b1b8f243931>@@PEB_W@Z
xdata	ENDS
;	COMDAT xdata
xdata	SEGMENT
$chain$3$??$_Reallocate_for@V<lambda_3fa8b2c8193a0f3144fc4b1b8f243931>@@PEB_W@?$basic_string@_WU?$char_traits@_W@std@@V?$allocator@_W@2@@std@@AEAAAEAV01@_KV<lambda_3fa8b2c8193a0f3144fc4b1b8f243931>@@PEB_W@Z DD 040021H
	DD	096400H
	DD	085400H
	DD	imagerel $LN41
	DD	imagerel $LN41+42
	DD	imagerel $unwind$??$_Reallocate_for@V<lambda_3fa8b2c8193a0f3144fc4b1b8f243931>@@PEB_W@?$basic_string@_WU?$char_traits@_W@std@@V?$allocator@_W@2@@std@@AEAAAEAV01@_KV<lambda_3fa8b2c8193a0f3144fc4b1b8f243931>@@PEB_W@Z
xdata	ENDS
;	COMDAT xdata
xdata	SEGMENT
$chain$1$??$_Reallocate_for@V<lambda_3fa8b2c8193a0f3144fc4b1b8f243931>@@PEB_W@?$basic_string@_WU?$char_traits@_W@std@@V?$allocator@_W@2@@std@@AEAAAEAV01@_KV<lambda_3fa8b2c8193a0f3144fc4b1b8f243931>@@PEB_W@Z DD 040a21H
	DD	09640aH
	DD	085405H
	DD	imagerel $LN41
	DD	imagerel $LN41+42
	DD	imagerel $unwind$??$_Reallocate_for@V<lambda_3fa8b2c8193a0f3144fc4b1b8f243931>@@PEB_W@?$basic_string@_WU?$char_traits@_W@std@@V?$allocator@_W@2@@std@@AEAAAEAV01@_KV<lambda_3fa8b2c8193a0f3144fc4b1b8f243931>@@PEB_W@Z
xdata	ENDS
;	COMDAT xdata
xdata	SEGMENT
$unwind$??$_Reallocate_for@V<lambda_3fa8b2c8193a0f3144fc4b1b8f243931>@@PEB_W@?$basic_string@_WU?$char_traits@_W@std@@V?$allocator@_W@2@@std@@AEAAAEAV01@_KV<lambda_3fa8b2c8193a0f3144fc4b1b8f243931>@@PEB_W@Z DD 060e01H
	DD	0a340eH
	DD	0f00a320eH
	DD	07006e008H
xdata	ENDS
;	COMDAT xdata
xdata	SEGMENT
$unwind$??R<lambda_3fa8b2c8193a0f3144fc4b1b8f243931>@@QEBA@QEA_W_KQEB_W@Z DD 040a01H
	DD	06340aH
	DD	07006320aH
xdata	ENDS
;	COMDAT xdata
xdata	SEGMENT
$ip2state$??$_Ucopy@PEAUrecordedMacroStep@@@?$vector@UrecordedMacroStep@@V?$allocator@UrecordedMacroStep@@@std@@@std@@AEAAPEAUrecordedMacroStep@@PEAU2@00@Z DB 0aH
	DB	00H
	DB	00H
	DB	'H'
	DB	02H
	DB	'f'
	DB	04H
	DB	0cH
	DB	02H
	DB	'6'
	DB	00H
xdata	ENDS
;	COMDAT xdata
xdata	SEGMENT
$stateUnwindMap$??$_Ucopy@PEAUrecordedMacroStep@@@?$vector@UrecordedMacroStep@@V?$allocator@UrecordedMacroStep@@@std@@@std@@AEAAPEAUrecordedMacroStep@@PEAU2@00@Z DB 06H
	DB	0aH
	DD	imagerel ??1?$_Uninitialized_backout_al@V?$allocator@UrecordedMacroStep@@@std@@@std@@QEAA@XZ
	DB	040H
	DB	036H
	DD	imagerel ?dtor$1@?0???$_Ucopy@PEAUrecordedMacroStep@@@?$vector@UrecordedMacroStep@@V?$allocator@UrecordedMacroStep@@@std@@@std@@AEAAPEAUrecordedMacroStep@@PEAU2@00@Z@4HA
	DB	060H
xdata	ENDS
;	COMDAT xdata
xdata	SEGMENT
$cppxdata$??$_Ucopy@PEAUrecordedMacroStep@@@?$vector@UrecordedMacroStep@@V?$allocator@UrecordedMacroStep@@@std@@@std@@AEAAPEAUrecordedMacroStep@@PEAU2@00@Z DB 08H
	DD	imagerel $stateUnwindMap$??$_Ucopy@PEAUrecordedMacroStep@@@?$vector@UrecordedMacroStep@@V?$allocator@UrecordedMacroStep@@@std@@@std@@AEAAPEAUrecordedMacroStep@@PEAU2@00@Z
	DD	imagerel $ip2state$??$_Ucopy@PEAUrecordedMacroStep@@@?$vector@UrecordedMacroStep@@V?$allocator@UrecordedMacroStep@@@std@@@std@@AEAAPEAUrecordedMacroStep@@PEAU2@00@Z
xdata	ENDS
;	COMDAT xdata
xdata	SEGMENT
$unwind$??$_Ucopy@PEAUrecordedMacroStep@@@?$vector@UrecordedMacroStep@@V?$allocator@UrecordedMacroStep@@@std@@@std@@AEAAPEAUrecordedMacroStep@@PEAU2@00@Z DD 060f11H
	DD	0c640fH
	DD	0b340fH
	DD	0700b720fH
	DD	imagerel __CxxFrameHandler4
	DD	imagerel $cppxdata$??$_Ucopy@PEAUrecordedMacroStep@@@?$vector@UrecordedMacroStep@@V?$allocator@UrecordedMacroStep@@@std@@@std@@AEAAPEAUrecordedMacroStep@@PEAU2@00@Z
xdata	ENDS
;	COMDAT voltbl
voltbl	SEGMENT
_volmd	DB	00H
voltbl	ENDS
;	COMDAT xdata
xdata	SEGMENT
$unwind$?catch$2@?0???$_Emplace_reallocate@UrecordedMacroStep@@@?$vector@UrecordedMacroStep@@V?$allocator@UrecordedMacroStep@@@std@@@std@@QEAAPEAUrecordedMacroStep@@QEAU2@$$QEAU2@@Z@4HA DD 030b01H
	DD	05007420bH
	DD	03006H
xdata	ENDS
;	COMDAT xdata
xdata	SEGMENT
$ip2state$??$_Emplace_reallocate@UrecordedMacroStep@@@?$vector@UrecordedMacroStep@@V?$allocator@UrecordedMacroStep@@@std@@@std@@QEAAPEAUrecordedMacroStep@@QEAU2@$$QEAU2@@Z DB 0aH
	DB	00H
	DB	00H
	DB	085H, 02H
	DB	02H
	DB	09cH
	DB	04H
	DB	010H
	DB	02H
	DB	088H
	DB	00H
xdata	ENDS
;	COMDAT xdata
xdata	SEGMENT
$handlerMap$??$_Emplace_reallocate@UrecordedMacroStep@@@?$vector@UrecordedMacroStep@@V?$allocator@UrecordedMacroStep@@@std@@@std@@QEAAPEAUrecordedMacroStep@@QEAU2@$$QEAU2@@Z DB 02H
	DB	00H
	DD	imagerel ?catch$2@?0???$_Emplace_reallocate@UrecordedMacroStep@@@?$vector@UrecordedMacroStep@@V?$allocator@UrecordedMacroStep@@@std@@@std@@QEAAPEAUrecordedMacroStep@@QEAU2@$$QEAU2@@Z@4HA
xdata	ENDS
;	COMDAT xdata
xdata	SEGMENT
$tryMap$??$_Emplace_reallocate@UrecordedMacroStep@@@?$vector@UrecordedMacroStep@@V?$allocator@UrecordedMacroStep@@@std@@@std@@QEAAPEAUrecordedMacroStep@@QEAU2@$$QEAU2@@Z DB 02H
	DB	00H
	DB	02H
	DB	04H
	DD	imagerel $handlerMap$??$_Emplace_reallocate@UrecordedMacroStep@@@?$vector@UrecordedMacroStep@@V?$allocator@UrecordedMacroStep@@@std@@@std@@QEAAPEAUrecordedMacroStep@@QEAU2@$$QEAU2@@Z
xdata	ENDS
;	COMDAT xdata
xdata	SEGMENT
$stateUnwindMap$??$_Emplace_reallocate@UrecordedMacroStep@@@?$vector@UrecordedMacroStep@@V?$allocator@UrecordedMacroStep@@@std@@@std@@QEAAPEAUrecordedMacroStep@@QEAU2@$$QEAU2@@Z DB 08H
	DB	08H
	DB	0eH
	DD	imagerel ?dtor$0@?0???$_Emplace_reallocate@UrecordedMacroStep@@@?$vector@UrecordedMacroStep@@V?$allocator@UrecordedMacroStep@@@std@@@std@@QEAAPEAUrecordedMacroStep@@QEAU2@$$QEAU2@@Z@4HA
	DB	038H
	DB	046H
	DD	imagerel ?dtor$1@?0???$_Emplace_reallocate@UrecordedMacroStep@@@?$vector@UrecordedMacroStep@@V?$allocator@UrecordedMacroStep@@@std@@@std@@QEAAPEAUrecordedMacroStep@@QEAU2@$$QEAU2@@Z@4HA
xdata	ENDS
;	COMDAT xdata
xdata	SEGMENT
$cppxdata$??$_Emplace_reallocate@UrecordedMacroStep@@@?$vector@UrecordedMacroStep@@V?$allocator@UrecordedMacroStep@@@std@@@std@@QEAAPEAUrecordedMacroStep@@QEAU2@$$QEAU2@@Z DB 018H
	DD	imagerel $stateUnwindMap$??$_Emplace_reallocate@UrecordedMacroStep@@@?$vector@UrecordedMacroStep@@V?$allocator@UrecordedMacroStep@@@std@@@std@@QEAAPEAUrecordedMacroStep@@QEAU2@$$QEAU2@@Z
	DD	imagerel $tryMap$??$_Emplace_reallocate@UrecordedMacroStep@@@?$vector@UrecordedMacroStep@@V?$allocator@UrecordedMacroStep@@@std@@@std@@QEAAPEAUrecordedMacroStep@@QEAU2@$$QEAU2@@Z
	DD	imagerel $ip2state$??$_Emplace_reallocate@UrecordedMacroStep@@@?$vector@UrecordedMacroStep@@V?$allocator@UrecordedMacroStep@@@std@@@std@@QEAAPEAUrecordedMacroStep@@QEAU2@$$QEAU2@@Z
xdata	ENDS
;	COMDAT xdata
xdata	SEGMENT
$unwind$??$_Emplace_reallocate@UrecordedMacroStep@@@?$vector@UrecordedMacroStep@@V?$allocator@UrecordedMacroStep@@@std@@@std@@QEAAPEAUrecordedMacroStep@@QEAU2@$$QEAU2@@Z DD 081919H
	DD	0f0157219H
	DD	0d011e013H
	DD	0700dc00fH
	DD	0300b600cH
	DD	imagerel __CxxFrameHandler4
	DD	imagerel $cppxdata$??$_Emplace_reallocate@UrecordedMacroStep@@@?$vector@UrecordedMacroStep@@V?$allocator@UrecordedMacroStep@@@std@@@std@@QEAAPEAUrecordedMacroStep@@QEAU2@$$QEAU2@@Z
xdata	ENDS
;	COMDAT xdata
xdata	SEGMENT
$ip2state$??$construct@UrecordedMacroStep@@U1@@?$_Default_allocator_traits@V?$allocator@UrecordedMacroStep@@@std@@@std@@SAXAEAV?$allocator@UrecordedMacroStep@@@1@QEAUrecordedMacroStep@@$$QEAU3@@Z DB 06H
	DB	00H
	DB	00H
	DB	096H
	DB	02H
	DB	0eH
	DB	00H
xdata	ENDS
;	COMDAT xdata
xdata	SEGMENT
$stateUnwindMap$??$construct@UrecordedMacroStep@@U1@@?$_Default_allocator_traits@V?$allocator@UrecordedMacroStep@@@std@@@std@@SAXAEAV?$allocator@UrecordedMacroStep@@@1@QEAUrecordedMacroStep@@$$QEAU3@@Z DB 02H
	DB	0eH
	DD	imagerel ?dtor$0@?0???$construct@UrecordedMacroStep@@U1@@?$_Default_allocator_traits@V?$allocator@UrecordedMacroStep@@@std@@@std@@SAXAEAV?$allocator@UrecordedMacroStep@@@1@QEAUrecordedMacroStep@@$$QEAU3@@Z@4HA
xdata	ENDS
;	COMDAT xdata
xdata	SEGMENT
$cppxdata$??$construct@UrecordedMacroStep@@U1@@?$_Default_allocator_traits@V?$allocator@UrecordedMacroStep@@@std@@@std@@SAXAEAV?$allocator@UrecordedMacroStep@@@1@QEAUrecordedMacroStep@@$$QEAU3@@Z DB 08H
	DD	imagerel $stateUnwindMap$??$construct@UrecordedMacroStep@@U1@@?$_Default_allocator_traits@V?$allocator@UrecordedMacroStep@@@std@@@std@@SAXAEAV?$allocator@UrecordedMacroStep@@@1@QEAUrecordedMacroStep@@$$QEAU3@@Z
	DD	imagerel $ip2state$??$construct@UrecordedMacroStep@@U1@@?$_Default_allocator_traits@V?$allocator@UrecordedMacroStep@@@std@@@std@@SAXAEAV?$allocator@UrecordedMacroStep@@@1@QEAUrecordedMacroStep@@$$QEAU3@@Z
xdata	ENDS
;	COMDAT xdata
xdata	SEGMENT
$unwind$??$construct@UrecordedMacroStep@@U1@@?$_Default_allocator_traits@V?$allocator@UrecordedMacroStep@@@std@@@std@@SAXAEAV?$allocator@UrecordedMacroStep@@@1@QEAUrecordedMacroStep@@$$QEAU3@@Z DD 011H
	DD	imagerel __CxxFrameHandler4
	DD	imagerel $cppxdata$??$construct@UrecordedMacroStep@@U1@@?$_Default_allocator_traits@V?$allocator@UrecordedMacroStep@@@std@@@std@@SAXAEAV?$allocator@UrecordedMacroStep@@@1@QEAUrecordedMacroStep@@$$QEAU3@@Z
xdata	ENDS
;	COMDAT xdata
xdata	SEGMENT
$ip2state$??$_Emplace_back_with_unused_capacity@UrecordedMacroStep@@@?$vector@UrecordedMacroStep@@V?$allocator@UrecordedMacroStep@@@std@@@std@@AEAA?A_T$$QEAUrecordedMacroStep@@@Z DB 06H
	DB	00H
	DB	00H
	DB	09cH
	DB	02H
	DB	0eH
	DB	00H
xdata	ENDS
;	COMDAT xdata
xdata	SEGMENT
$stateUnwindMap$??$_Emplace_back_with_unused_capacity@UrecordedMacroStep@@@?$vector@UrecordedMacroStep@@V?$allocator@UrecordedMacroStep@@@std@@@std@@AEAA?A_T$$QEAUrecordedMacroStep@@@Z DB 02H
	DB	0eH
	DD	imagerel ?dtor$0@?0???$_Emplace_back_with_unused_capacity@UrecordedMacroStep@@@?$vector@UrecordedMacroStep@@V?$allocator@UrecordedMacroStep@@@std@@@std@@AEAA?A_T$$QEAUrecordedMacroStep@@@Z@4HA
xdata	ENDS
;	COMDAT xdata
xdata	SEGMENT
$cppxdata$??$_Emplace_back_with_unused_capacity@UrecordedMacroStep@@@?$vector@UrecordedMacroStep@@V?$allocator@UrecordedMacroStep@@@std@@@std@@AEAA?A_T$$QEAUrecordedMacroStep@@@Z DB 08H
	DD	imagerel $stateUnwindMap$??$_Emplace_back_with_unused_capacity@UrecordedMacroStep@@@?$vector@UrecordedMacroStep@@V?$allocator@UrecordedMacroStep@@@std@@@std@@AEAA?A_T$$QEAUrecordedMacroStep@@@Z
	DD	imagerel $ip2state$??$_Emplace_back_with_unused_capacity@UrecordedMacroStep@@@?$vector@UrecordedMacroStep@@V?$allocator@UrecordedMacroStep@@@std@@@std@@AEAA?A_T$$QEAUrecordedMacroStep@@@Z
xdata	ENDS
;	COMDAT xdata
xdata	SEGMENT
$unwind$??$_Emplace_back_with_unused_capacity@UrecordedMacroStep@@@?$vector@UrecordedMacroStep@@V?$allocator@UrecordedMacroStep@@@std@@@std@@AEAA?A_T$$QEAUrecordedMacroStep@@@Z DD 011H
	DD	imagerel __CxxFrameHandler4
	DD	imagerel $cppxdata$??$_Emplace_back_with_unused_capacity@UrecordedMacroStep@@@?$vector@UrecordedMacroStep@@V?$allocator@UrecordedMacroStep@@@std@@@std@@AEAA?A_T$$QEAUrecordedMacroStep@@@Z
xdata	ENDS
;	COMDAT xdata
xdata	SEGMENT
$ip2state$??$emplace_back@UrecordedMacroStep@@@?$vector@UrecordedMacroStep@@V?$allocator@UrecordedMacroStep@@@std@@@std@@QEAA?A_T$$QEAUrecordedMacroStep@@@Z DB 06H
	DB	00H
	DB	00H
	DB	0b0H
	DB	02H
	DB	0eH
	DB	00H
xdata	ENDS
;	COMDAT xdata
xdata	SEGMENT
$stateUnwindMap$??$emplace_back@UrecordedMacroStep@@@?$vector@UrecordedMacroStep@@V?$allocator@UrecordedMacroStep@@@std@@@std@@QEAA?A_T$$QEAUrecordedMacroStep@@@Z DB 02H
	DB	0eH
	DD	imagerel ?dtor$0@?0???$emplace_back@UrecordedMacroStep@@@?$vector@UrecordedMacroStep@@V?$allocator@UrecordedMacroStep@@@std@@@std@@QEAA?A_T$$QEAUrecordedMacroStep@@@Z@4HA
xdata	ENDS
;	COMDAT xdata
xdata	SEGMENT
$cppxdata$??$emplace_back@UrecordedMacroStep@@@?$vector@UrecordedMacroStep@@V?$allocator@UrecordedMacroStep@@@std@@@std@@QEAA?A_T$$QEAUrecordedMacroStep@@@Z DB 08H
	DD	imagerel $stateUnwindMap$??$emplace_back@UrecordedMacroStep@@@?$vector@UrecordedMacroStep@@V?$allocator@UrecordedMacroStep@@@std@@@std@@QEAA?A_T$$QEAUrecordedMacroStep@@@Z
	DD	imagerel $ip2state$??$emplace_back@UrecordedMacroStep@@@?$vector@UrecordedMacroStep@@V?$allocator@UrecordedMacroStep@@@std@@@std@@QEAA?A_T$$QEAUrecordedMacroStep@@@Z
xdata	ENDS
;	COMDAT xdata
xdata	SEGMENT
$unwind$??$emplace_back@UrecordedMacroStep@@@?$vector@UrecordedMacroStep@@V?$allocator@UrecordedMacroStep@@@std@@@std@@QEAA?A_T$$QEAUrecordedMacroStep@@@Z DD 011H
	DD	imagerel __CxxFrameHandler4
	DD	imagerel $cppxdata$??$emplace_back@UrecordedMacroStep@@@?$vector@UrecordedMacroStep@@V?$allocator@UrecordedMacroStep@@@std@@@std@@QEAA?A_T$$QEAUrecordedMacroStep@@@Z
xdata	ENDS
;	COMDAT voltbl
voltbl	SEGMENT
_volmd	DB	00H
voltbl	ENDS
;	COMDAT xdata
xdata	SEGMENT
$unwind$?catch$0@?0???$_Emplace_reallocate@PEAUHWND__@@@?$vector@PEAUHWND__@@V?$allocator@PEAUHWND__@@@std@@@std@@QEAAPEAPEAUHWND__@@QEAPEAU2@$$QEAPEAU2@@Z@4HA DD 020a01H
	DD	05006320aH
xdata	ENDS
;	COMDAT xdata
xdata	SEGMENT
$ip2state$??$_Emplace_reallocate@PEAUHWND__@@@?$vector@PEAUHWND__@@V?$allocator@PEAUHWND__@@@std@@@std@@QEAAPEAPEAUHWND__@@QEAPEAU2@$$QEAPEAU2@@Z DB 06H
	DB	00H
	DB	00H
	DB	0b1H, 03H
	DB	02H
	DB	084H
	DB	00H
xdata	ENDS
;	COMDAT xdata
xdata	SEGMENT
$handlerMap$??$_Emplace_reallocate@PEAUHWND__@@@?$vector@PEAUHWND__@@V?$allocator@PEAUHWND__@@@std@@@std@@QEAAPEAPEAUHWND__@@QEAPEAU2@$$QEAPEAU2@@Z DB 02H
	DB	00H
	DD	imagerel ?catch$0@?0???$_Emplace_reallocate@PEAUHWND__@@@?$vector@PEAUHWND__@@V?$allocator@PEAUHWND__@@@std@@@std@@QEAAPEAPEAUHWND__@@QEAPEAU2@$$QEAPEAU2@@Z@4HA
xdata	ENDS
;	COMDAT xdata
xdata	SEGMENT
$tryMap$??$_Emplace_reallocate@PEAUHWND__@@@?$vector@PEAUHWND__@@V?$allocator@PEAUHWND__@@@std@@@std@@QEAAPEAPEAUHWND__@@QEAPEAU2@$$QEAPEAU2@@Z DB 02H
	DB	00H
	DB	00H
	DB	02H
	DD	imagerel $handlerMap$??$_Emplace_reallocate@PEAUHWND__@@@?$vector@PEAUHWND__@@V?$allocator@PEAUHWND__@@@std@@@std@@QEAAPEAPEAUHWND__@@QEAPEAU2@$$QEAPEAU2@@Z
xdata	ENDS
;	COMDAT xdata
xdata	SEGMENT
$stateUnwindMap$??$_Emplace_reallocate@PEAUHWND__@@@?$vector@PEAUHWND__@@V?$allocator@PEAUHWND__@@@std@@@std@@QEAAPEAPEAUHWND__@@QEAPEAU2@$$QEAPEAU2@@Z DB 04H
	DB	08H
	DB	010H
xdata	ENDS
;	COMDAT xdata
xdata	SEGMENT
$cppxdata$??$_Emplace_reallocate@PEAUHWND__@@@?$vector@PEAUHWND__@@V?$allocator@PEAUHWND__@@@std@@@std@@QEAAPEAPEAUHWND__@@QEAPEAU2@$$QEAPEAU2@@Z DB 018H
	DD	imagerel $stateUnwindMap$??$_Emplace_reallocate@PEAUHWND__@@@?$vector@PEAUHWND__@@V?$allocator@PEAUHWND__@@@std@@@std@@QEAAPEAPEAUHWND__@@QEAPEAU2@$$QEAPEAU2@@Z
	DD	imagerel $tryMap$??$_Emplace_reallocate@PEAUHWND__@@@?$vector@PEAUHWND__@@V?$allocator@PEAUHWND__@@@std@@@std@@QEAAPEAPEAUHWND__@@QEAPEAU2@$$QEAPEAU2@@Z
	DD	imagerel $ip2state$??$_Emplace_reallocate@PEAUHWND__@@@?$vector@PEAUHWND__@@V?$allocator@PEAUHWND__@@@std@@@std@@QEAAPEAPEAUHWND__@@QEAPEAU2@$$QEAPEAU2@@Z
xdata	ENDS
;	COMDAT xdata
xdata	SEGMENT
$unwind$??$_Emplace_reallocate@PEAUHWND__@@@?$vector@PEAUHWND__@@V?$allocator@PEAUHWND__@@@std@@@std@@QEAAPEAPEAUHWND__@@QEAPEAU2@$$QEAPEAU2@@Z DD 081919H
	DD	0f0153219H
	DD	0d011e013H
	DD	0700dc00fH
	DD	0300b600cH
	DD	imagerel __CxxFrameHandler4
	DD	imagerel $cppxdata$??$_Emplace_reallocate@PEAUHWND__@@@?$vector@PEAUHWND__@@V?$allocator@PEAUHWND__@@@std@@@std@@QEAAPEAPEAUHWND__@@QEAPEAU2@$$QEAPEAU2@@Z
xdata	ENDS
;	COMDAT xdata
xdata	SEGMENT
$unwind$??$_Move_unchecked@PEAPEAUHWND__@@PEAPEAU1@@std@@YAPEAPEAUHWND__@@PEAPEAU1@00@Z DD 040a01H
	DD	06340aH
	DD	07006320aH
xdata	ENDS
;	COMDAT xdata
xdata	SEGMENT
$ip2state$??$_Ucopy@PEAUPluginDlgDockingInfo@@@?$vector@UPluginDlgDockingInfo@@V?$allocator@UPluginDlgDockingInfo@@@std@@@std@@AEAAPEAUPluginDlgDockingInfo@@PEAU2@00@Z DB 0aH
	DB	00H
	DB	00H
	DB	'H'
	DB	02H
	DB	'<'
	DB	04H
	DB	'0'
	DB	02H
	DB	'6'
	DB	00H
xdata	ENDS
;	COMDAT xdata
xdata	SEGMENT
$stateUnwindMap$??$_Ucopy@PEAUPluginDlgDockingInfo@@@?$vector@UPluginDlgDockingInfo@@V?$allocator@UPluginDlgDockingInfo@@@std@@@std@@AEAAPEAUPluginDlgDockingInfo@@PEAU2@00@Z DB 06H
	DB	0aH
	DD	imagerel ??1?$_Uninitialized_backout_al@V?$allocator@UPluginDlgDockingInfo@@@std@@@std@@QEAA@XZ
	DB	040H
	DB	034H
	DD	imagerel ??1?$basic_string@_WU?$char_traits@_W@std@@V?$allocator@_W@2@@std@@QEAA@XZ
	DB	0a0H
	DB	068H
xdata	ENDS
;	COMDAT xdata
xdata	SEGMENT
$cppxdata$??$_Ucopy@PEAUPluginDlgDockingInfo@@@?$vector@UPluginDlgDockingInfo@@V?$allocator@UPluginDlgDockingInfo@@@std@@@std@@AEAAPEAUPluginDlgDockingInfo@@PEAU2@00@Z DB 08H
	DD	imagerel $stateUnwindMap$??$_Ucopy@PEAUPluginDlgDockingInfo@@@?$vector@UPluginDlgDockingInfo@@V?$allocator@UPluginDlgDockingInfo@@@std@@@std@@AEAAPEAUPluginDlgDockingInfo@@PEAU2@00@Z
	DD	imagerel $ip2state$??$_Ucopy@PEAUPluginDlgDockingInfo@@@?$vector@UPluginDlgDockingInfo@@V?$allocator@UPluginDlgDockingInfo@@@std@@@std@@AEAAPEAUPluginDlgDockingInfo@@PEAU2@00@Z
xdata	ENDS
;	COMDAT xdata
xdata	SEGMENT
$unwind$??$_Ucopy@PEAUPluginDlgDockingInfo@@@?$vector@UPluginDlgDockingInfo@@V?$allocator@UPluginDlgDockingInfo@@@std@@@std@@AEAAPEAUPluginDlgDockingInfo@@PEAU2@00@Z DD 060f11H
	DD	0c640fH
	DD	0b340fH
	DD	0700b720fH
	DD	imagerel __CxxFrameHandler4
	DD	imagerel $cppxdata$??$_Ucopy@PEAUPluginDlgDockingInfo@@@?$vector@UPluginDlgDockingInfo@@V?$allocator@UPluginDlgDockingInfo@@@std@@@std@@AEAAPEAUPluginDlgDockingInfo@@PEAU2@00@Z
xdata	ENDS
;	COMDAT xdata
xdata	SEGMENT
$ip2state$??$_Ucopy@PEAULangMenuItem@@@?$vector@ULangMenuItem@@V?$allocator@ULangMenuItem@@@std@@@std@@AEAAPEAULangMenuItem@@PEAU2@00@Z DB 06H
	DB	00H
	DB	00H
	DB	'N'
	DB	02H
	DB	'z'
	DB	00H
xdata	ENDS
;	COMDAT xdata
xdata	SEGMENT
$stateUnwindMap$??$_Ucopy@PEAULangMenuItem@@@?$vector@ULangMenuItem@@V?$allocator@ULangMenuItem@@@std@@@std@@AEAAPEAULangMenuItem@@PEAU2@00@Z DB 06H
	DB	0aH
	DD	imagerel ??1?$_Uninitialized_backout_al@V?$allocator@ULangMenuItem@@@std@@@std@@QEAA@XZ
	DB	040H
	DB	036H
	DD	imagerel ?dtor$1@?0???$_Ucopy@PEAULangMenuItem@@@?$vector@ULangMenuItem@@V?$allocator@ULangMenuItem@@@std@@@std@@AEAAPEAULangMenuItem@@PEAU2@00@Z@4HA
	DB	060H
xdata	ENDS
;	COMDAT xdata
xdata	SEGMENT
$cppxdata$??$_Ucopy@PEAULangMenuItem@@@?$vector@ULangMenuItem@@V?$allocator@ULangMenuItem@@@std@@@std@@AEAAPEAULangMenuItem@@PEAU2@00@Z DB 08H
	DD	imagerel $stateUnwindMap$??$_Ucopy@PEAULangMenuItem@@@?$vector@ULangMenuItem@@V?$allocator@ULangMenuItem@@@std@@@std@@AEAAPEAULangMenuItem@@PEAU2@00@Z
	DD	imagerel $ip2state$??$_Ucopy@PEAULangMenuItem@@@?$vector@ULangMenuItem@@V?$allocator@ULangMenuItem@@@std@@@std@@AEAAPEAULangMenuItem@@PEAU2@00@Z
xdata	ENDS
;	COMDAT xdata
xdata	SEGMENT
$unwind$??$_Ucopy@PEAULangMenuItem@@@?$vector@ULangMenuItem@@V?$allocator@ULangMenuItem@@@std@@@std@@AEAAPEAULangMenuItem@@PEAU2@00@Z DD 060f11H
	DD	0c640fH
	DD	0b340fH
	DD	0700b720fH
	DD	imagerel __CxxFrameHandler4
	DD	imagerel $cppxdata$??$_Ucopy@PEAULangMenuItem@@@?$vector@ULangMenuItem@@V?$allocator@ULangMenuItem@@@std@@@std@@AEAAPEAULangMenuItem@@PEAU2@00@Z
xdata	ENDS
;	COMDAT voltbl
voltbl	SEGMENT
_volmd	DB	00H
voltbl	ENDS
;	COMDAT xdata
xdata	SEGMENT
$unwind$?catch$0@?0???$_Emplace_reallocate@PEAVBuffer@@@?$vector@PEAVBuffer@@V?$allocator@PEAVBuffer@@@std@@@std@@QEAAPEAPEAVBuffer@@QEAPEAV2@$$QEAPEAV2@@Z@4HA DD 020a01H
	DD	05006320aH
xdata	ENDS
;	COMDAT xdata
xdata	SEGMENT
$ip2state$??$_Emplace_reallocate@PEAVBuffer@@@?$vector@PEAVBuffer@@V?$allocator@PEAVBuffer@@@std@@@std@@QEAAPEAPEAVBuffer@@QEAPEAV2@$$QEAPEAV2@@Z DB 06H
	DB	00H
	DB	00H
	DB	0b1H, 03H
	DB	02H
	DB	084H
	DB	00H
xdata	ENDS
;	COMDAT xdata
xdata	SEGMENT
$handlerMap$??$_Emplace_reallocate@PEAVBuffer@@@?$vector@PEAVBuffer@@V?$allocator@PEAVBuffer@@@std@@@std@@QEAAPEAPEAVBuffer@@QEAPEAV2@$$QEAPEAV2@@Z DB 02H
	DB	00H
	DD	imagerel ?catch$0@?0???$_Emplace_reallocate@PEAVBuffer@@@?$vector@PEAVBuffer@@V?$allocator@PEAVBuffer@@@std@@@std@@QEAAPEAPEAVBuffer@@QEAPEAV2@$$QEAPEAV2@@Z@4HA
xdata	ENDS
;	COMDAT xdata
xdata	SEGMENT
$tryMap$??$_Emplace_reallocate@PEAVBuffer@@@?$vector@PEAVBuffer@@V?$allocator@PEAVBuffer@@@std@@@std@@QEAAPEAPEAVBuffer@@QEAPEAV2@$$QEAPEAV2@@Z DB 02H
	DB	00H
	DB	00H
	DB	02H
	DD	imagerel $handlerMap$??$_Emplace_reallocate@PEAVBuffer@@@?$vector@PEAVBuffer@@V?$allocator@PEAVBuffer@@@std@@@std@@QEAAPEAPEAVBuffer@@QEAPEAV2@$$QEAPEAV2@@Z
xdata	ENDS
;	COMDAT xdata
xdata	SEGMENT
$stateUnwindMap$??$_Emplace_reallocate@PEAVBuffer@@@?$vector@PEAVBuffer@@V?$allocator@PEAVBuffer@@@std@@@std@@QEAAPEAPEAVBuffer@@QEAPEAV2@$$QEAPEAV2@@Z DB 04H
	DB	08H
	DB	010H
xdata	ENDS
;	COMDAT xdata
xdata	SEGMENT
$cppxdata$??$_Emplace_reallocate@PEAVBuffer@@@?$vector@PEAVBuffer@@V?$allocator@PEAVBuffer@@@std@@@std@@QEAAPEAPEAVBuffer@@QEAPEAV2@$$QEAPEAV2@@Z DB 018H
	DD	imagerel $stateUnwindMap$??$_Emplace_reallocate@PEAVBuffer@@@?$vector@PEAVBuffer@@V?$allocator@PEAVBuffer@@@std@@@std@@QEAAPEAPEAVBuffer@@QEAPEAV2@$$QEAPEAV2@@Z
	DD	imagerel $tryMap$??$_Emplace_reallocate@PEAVBuffer@@@?$vector@PEAVBuffer@@V?$allocator@PEAVBuffer@@@std@@@std@@QEAAPEAPEAVBuffer@@QEAPEAV2@$$QEAPEAV2@@Z
	DD	imagerel $ip2state$??$_Emplace_reallocate@PEAVBuffer@@@?$vector@PEAVBuffer@@V?$allocator@PEAVBuffer@@@std@@@std@@QEAAPEAPEAVBuffer@@QEAPEAV2@$$QEAPEAV2@@Z
xdata	ENDS
;	COMDAT xdata
xdata	SEGMENT
$unwind$??$_Emplace_reallocate@PEAVBuffer@@@?$vector@PEAVBuffer@@V?$allocator@PEAVBuffer@@@std@@@std@@QEAAPEAPEAVBuffer@@QEAPEAV2@$$QEAPEAV2@@Z DD 081919H
	DD	0f0153219H
	DD	0d011e013H
	DD	0700dc00fH
	DD	0300b600cH
	DD	imagerel __CxxFrameHandler4
	DD	imagerel $cppxdata$??$_Emplace_reallocate@PEAVBuffer@@@?$vector@PEAVBuffer@@V?$allocator@PEAVBuffer@@@std@@@std@@QEAAPEAPEAVBuffer@@QEAPEAV2@$$QEAPEAV2@@Z
xdata	ENDS
;	COMDAT xdata
xdata	SEGMENT
$unwind$??$_Ucopy@PEAPEAUtTbData@@@?$vector@PEAUtTbData@@V?$allocator@PEAUtTbData@@@std@@@std@@AEAAPEAPEAUtTbData@@PEAPEAU2@00@Z DD 040a01H
	DD	06340aH
	DD	07006320aH
xdata	ENDS
;	COMDAT xdata
xdata	SEGMENT
$unwind$??$_Ucopy@PEAPEAVDockingCont@@@?$vector@PEAVDockingCont@@V?$allocator@PEAVDockingCont@@@std@@@std@@AEAAPEAPEAVDockingCont@@PEAPEAV2@00@Z DD 040a01H
	DD	06340aH
	DD	07006320aH
xdata	ENDS
;	COMDAT xdata
xdata	SEGMENT
$unwind$??$sort@V?$_Vector_iterator@V?$_Vector_val@U?$_Simple_types@UTaskLstFnStatus@@@std@@@std@@@std@@USortTaskListPred@@@std@@YAXV?$_Vector_iterator@V?$_Vector_val@U?$_Simple_types@UTaskLstFnStatus@@@std@@@std@@@0@0USortTaskListPred@@@Z DD 010401H
	DD	04204H
xdata	ENDS
;	COMDAT xdata
xdata	SEGMENT
$unwind$??RSortTaskListPred@@QEBA_NAEBUTaskLstFnStatus@@0@Z DD 060f01H
	DD	07640fH
	DD	06340fH
	DD	0700b320fH
xdata	ENDS
;	COMDAT xdata
xdata	SEGMENT
$unwind$?reload@VerticalFileSwitcher@@QEAAXXZ DD 020601H
	DD	030023206H
xdata	ENDS
;	COMDAT xdata
xdata	SEGMENT
$unwind$??_GShortcutMapper@@UEAAPEAXI@Z DD 040a01H
	DD	06340aH
	DD	07006320aH
xdata	ENDS
;	COMDAT xdata
xdata	SEGMENT
$ip2state$?_Tidy@?$vector@PEAUHFONT__@@V?$allocator@PEAUHFONT__@@@std@@@std@@AEAAXXZ DB 02H
	DB	00H
	DB	00H
xdata	ENDS
;	COMDAT xdata
xdata	SEGMENT
$cppxdata$?_Tidy@?$vector@PEAUHFONT__@@V?$allocator@PEAUHFONT__@@@std@@@std@@AEAAXXZ DB 040H
	DD	imagerel $ip2state$?_Tidy@?$vector@PEAUHFONT__@@V?$allocator@PEAUHFONT__@@@std@@@std@@AEAAXXZ
xdata	ENDS
;	COMDAT xdata
xdata	SEGMENT
$unwind$?_Tidy@?$vector@PEAUHFONT__@@V?$allocator@PEAUHFONT__@@@std@@@std@@AEAAXXZ DD 020619H
	DD	030023206H
	DD	imagerel __CxxFrameHandler4
	DD	imagerel $cppxdata$?_Tidy@?$vector@PEAUHFONT__@@V?$allocator@PEAUHFONT__@@@std@@@std@@AEAAXXZ
xdata	ENDS
;	COMDAT xdata
xdata	SEGMENT
$ip2state$??1?$vector@PEAUHFONT__@@V?$allocator@PEAUHFONT__@@@std@@@std@@QEAA@XZ DB 02H
	DB	00H
	DB	00H
xdata	ENDS
;	COMDAT xdata
xdata	SEGMENT
$cppxdata$??1?$vector@PEAUHFONT__@@V?$allocator@PEAUHFONT__@@@std@@@std@@QEAA@XZ DB 040H
	DD	imagerel $ip2state$??1?$vector@PEAUHFONT__@@V?$allocator@PEAUHFONT__@@@std@@@std@@QEAA@XZ
xdata	ENDS
;	COMDAT xdata
xdata	SEGMENT
$unwind$??1?$vector@PEAUHFONT__@@V?$allocator@PEAUHFONT__@@@std@@@std@@QEAA@XZ DD 020619H
	DD	030023206H
	DD	imagerel __CxxFrameHandler4
	DD	imagerel $cppxdata$??1?$vector@PEAUHFONT__@@V?$allocator@PEAUHFONT__@@@std@@@std@@QEAA@XZ
xdata	ENDS
;	COMDAT xdata
xdata	SEGMENT
$unwind$?deallocate@?$allocator@PEAUHFONT__@@@std@@QEAAXQEAPEAUHFONT__@@_K@Z DD 010401H
	DD	04204H
xdata	ENDS
;	COMDAT xdata
xdata	SEGMENT
$unwind$?dtor$2@?0???1ShortcutMapper@@UEAA@XZ@4HA DD 020601H
	DD	050023206H
xdata	ENDS
;	COMDAT xdata
xdata	SEGMENT
$ip2state$??1ShortcutMapper@@UEAA@XZ DB 01eH
	DB	00H
	DB	00H
	DB	'$'
	DB	012H
	DB	0c6H
	DB	010H
	DB	01aH
	DB	0eH
	DB	01aH
	DB	0cH
	DB	0c2H
	DB	0aH
	DB	0c2H
	DB	08H
	DB	0baH
	DB	06H
	DB	01aH
	DB	04H
	DB	':'
	DB	02H
	DB	014H
	DB	00H
	DB	'$'
	DB	0aH
	DB	0cH
	DB	08H
	DB	0cH
	DB	012H
	DB	0cH
	DB	0cH
xdata	ENDS
;	COMDAT xdata
xdata	SEGMENT
$stateUnwindMap$??1ShortcutMapper@@UEAA@XZ DB 014H
	DB	0cH
	DD	imagerel ??1StaticDialog@@UEAA@XZ
	DB	060H
	DB	036H
	DD	imagerel ?dtor$1@?0???1ShortcutMapper@@UEAA@XZ@4HA
	DB	02eH
	DD	imagerel ?dtor$2@?0???1ShortcutMapper@@UEAA@XZ@4HA
	DB	02eH
	DD	imagerel ?dtor$3@?0???1ShortcutMapper@@UEAA@XZ@4HA
	DB	02eH
	DD	imagerel ?dtor$4@?0???1ShortcutMapper@@UEAA@XZ@4HA
	DB	02eH
	DD	imagerel ?dtor$5@?0???1ShortcutMapper@@UEAA@XZ@4HA
	DB	02eH
	DD	imagerel ?dtor$6@?0???1ShortcutMapper@@UEAA@XZ@4HA
	DB	02eH
	DD	imagerel ?dtor$7@?0???1ShortcutMapper@@UEAA@XZ@4HA
	DB	02eH
	DD	imagerel ?dtor$8@?0???1ShortcutMapper@@UEAA@XZ@4HA
	DB	02eH
	DD	imagerel ?dtor$9@?0???1ShortcutMapper@@UEAA@XZ@4HA
xdata	ENDS
;	COMDAT xdata
xdata	SEGMENT
$cppxdata$??1ShortcutMapper@@UEAA@XZ DB 048H
	DD	imagerel $stateUnwindMap$??1ShortcutMapper@@UEAA@XZ
	DD	imagerel $ip2state$??1ShortcutMapper@@UEAA@XZ
xdata	ENDS
;	COMDAT xdata
xdata	SEGMENT
$unwind$??1ShortcutMapper@@UEAA@XZ DD 040f19H
	DD	07340fH
	DD	0700b320fH
	DD	imagerel __CxxFrameHandler4
	DD	imagerel $cppxdata$??1ShortcutMapper@@UEAA@XZ
xdata	ENDS
;	COMDAT xdata
xdata	SEGMENT
$unwind$?dtor$2@?0???0ShortcutMapper@@QEAA@XZ@4HA DD 020601H
	DD	050023206H
xdata	ENDS
;	COMDAT xdata
xdata	SEGMENT
$ip2state$??0ShortcutMapper@@QEAA@XZ DB 018H
	DB	00H
	DB	00H
	DB	'p'
	DB	02H
	DB	'z'
	DB	06H
	DB	'b'
	DB	08H
	DB	'2'
	DB	0aH
	DB	'*'
	DB	0cH
	DB	'*'
	DB	0eH
	DB	'*'
	DB	010H
	DB	'@'
	DB	012H
	DB	'@'
	DB	014H
	DB	'*'
	DB	016H
	DB	','
	DB	00H
xdata	ENDS
;	COMDAT xdata
xdata	SEGMENT
$stateUnwindMap$??0ShortcutMapper@@QEAA@XZ DB 016H
	DB	0cH
	DD	imagerel ??1StaticDialog@@UEAA@XZ
	DB	080H
	DB	036H
	DD	imagerel ?dtor$10@?0???0ShortcutMapper@@QEAA@XZ@4HA
	DB	05eH
	DD	imagerel ?dtor$1@?0???0ShortcutMapper@@QEAA@XZ@4HA
	DB	02eH
	DD	imagerel ?dtor$2@?0???0ShortcutMapper@@QEAA@XZ@4HA
	DB	02eH
	DD	imagerel ?dtor$3@?0???0ShortcutMapper@@QEAA@XZ@4HA
	DB	02eH
	DD	imagerel ?dtor$4@?0???0ShortcutMapper@@QEAA@XZ@4HA
	DB	02eH
	DD	imagerel ?dtor$5@?0???0ShortcutMapper@@QEAA@XZ@4HA
	DB	02eH
	DD	imagerel ?dtor$6@?0???0ShortcutMapper@@QEAA@XZ@4HA
	DB	02eH
	DD	imagerel ?dtor$7@?0???0ShortcutMapper@@QEAA@XZ@4HA
	DB	02eH
	DD	imagerel ?dtor$8@?0???0ShortcutMapper@@QEAA@XZ@4HA
	DB	02eH
	DD	imagerel ?dtor$9@?0???0ShortcutMapper@@QEAA@XZ@4HA
xdata	ENDS
;	COMDAT xdata
xdata	SEGMENT
$cppxdata$??0ShortcutMapper@@QEAA@XZ DB 08H
	DD	imagerel $stateUnwindMap$??0ShortcutMapper@@QEAA@XZ
	DD	imagerel $ip2state$??0ShortcutMapper@@QEAA@XZ
xdata	ENDS
;	COMDAT xdata
xdata	SEGMENT
$unwind$??0ShortcutMapper@@QEAA@XZ DD 040f11H
	DD	0a340fH
	DD	0700b520fH
	DD	imagerel __CxxFrameHandler4
	DD	imagerel $cppxdata$??0ShortcutMapper@@QEAA@XZ
xdata	ENDS
;	COMDAT xdata
xdata	SEGMENT
$unwind$??_GBabyGridWrapper@@UEAAPEAXI@Z DD 020601H
	DD	030023206H
xdata	ENDS
;	COMDAT xdata
xdata	SEGMENT
$unwind$??4TaskLstFnStatus@@QEAAAEAU0@$$QEAU0@@Z DD 081401H
	DD	086414H
	DD	075414H
	DD	063414H
	DD	070103214H
xdata	ENDS
;	COMDAT xdata
xdata	SEGMENT
$ip2state$??0TaskLstFnStatus@@QEAA@$$QEAU0@@Z DB 06H
	DB	00H
	DB	00H
	DB	'z'
	DB	02H
	DB	01cH
	DB	00H
xdata	ENDS
;	COMDAT xdata
xdata	SEGMENT
$stateUnwindMap$??0TaskLstFnStatus@@QEAA@$$QEAU0@@Z DB 02H
	DB	0eH
	DD	imagerel ?dtor$0@?0???0TaskLstFnStatus@@QEAA@$$QEAU0@@Z@4HA
xdata	ENDS
;	COMDAT xdata
xdata	SEGMENT
$cppxdata$??0TaskLstFnStatus@@QEAA@$$QEAU0@@Z DB 048H
	DD	imagerel $stateUnwindMap$??0TaskLstFnStatus@@QEAA@$$QEAU0@@Z
	DD	imagerel $ip2state$??0TaskLstFnStatus@@QEAA@$$QEAU0@@Z
xdata	ENDS
;	COMDAT xdata
xdata	SEGMENT
$unwind$??0TaskLstFnStatus@@QEAA@$$QEAU0@@Z DD 011H
	DD	imagerel __CxxFrameHandler4
	DD	imagerel $cppxdata$??0TaskLstFnStatus@@QEAA@$$QEAU0@@Z
xdata	ENDS
;	COMDAT xdata
xdata	SEGMENT
$ip2state$??1TaskLstFnStatus@@QEAA@XZ DB 02H
	DB	00H
	DB	00H
xdata	ENDS
;	COMDAT xdata
xdata	SEGMENT
$stateUnwindMap$??1TaskLstFnStatus@@QEAA@XZ DB 02H
	DB	0eH
	DD	imagerel ?dtor$0@?0???1TaskLstFnStatus@@QEAA@XZ@4HA
xdata	ENDS
;	COMDAT xdata
xdata	SEGMENT
$cppxdata$??1TaskLstFnStatus@@QEAA@XZ DB 048H
	DD	imagerel $stateUnwindMap$??1TaskLstFnStatus@@QEAA@XZ
	DD	imagerel $ip2state$??1TaskLstFnStatus@@QEAA@XZ
xdata	ENDS
;	COMDAT xdata
xdata	SEGMENT
$unwind$??1TaskLstFnStatus@@QEAA@XZ DD 010911H
	DD	04209H
	DD	imagerel __CxxFrameHandler4
	DD	imagerel $cppxdata$??1TaskLstFnStatus@@QEAA@XZ
xdata	ENDS
;	COMDAT voltbl
voltbl	SEGMENT
_volmd	DB	00H
voltbl	ENDS
;	COMDAT xdata
xdata	SEGMENT
$unwind$?catch$0@?0??runProc@Notepad_plus_Window@@AEAA_JPEAUHWND__@@I_K_J@Z@4HA DD 020a01H
	DD	05006720aH
xdata	ENDS
;	COMDAT xdata
xdata	SEGMENT
$ip2state$?runProc@Notepad_plus_Window@@AEAA_JPEAUHWND__@@I_K_J@Z DB 0aH
	DB	00H
	DB	00H
	DB	086H
	DB	02H
	DB	'('
	DB	00H
	DB	08H
	DB	02H
	DB	0ecH
	DB	00H
xdata	ENDS
;	COMDAT xdata
xdata	SEGMENT
$handlerMap$?runProc@Notepad_plus_Window@@AEAA_JPEAUHWND__@@I_K_J@Z DB 02H
	DB	07H
	DB	010H
	DD	imagerel ??_R0?AVexception@std@@@8
	DB	090H
	DD	imagerel ?catch$0@?0??runProc@Notepad_plus_Window@@AEAA_JPEAUHWND__@@I_K_J@Z@4HA
xdata	ENDS
;	COMDAT xdata
xdata	SEGMENT
$tryMap$?runProc@Notepad_plus_Window@@AEAA_JPEAUHWND__@@I_K_J@Z DB 02H
	DB	00H
	DB	00H
	DB	02H
	DD	imagerel $handlerMap$?runProc@Notepad_plus_Window@@AEAA_JPEAUHWND__@@I_K_J@Z
xdata	ENDS
;	COMDAT xdata
xdata	SEGMENT
$stateUnwindMap$?runProc@Notepad_plus_Window@@AEAA_JPEAUHWND__@@I_K_J@Z DB 04H
	DB	08H
	DB	010H
xdata	ENDS
;	COMDAT xdata
xdata	SEGMENT
$cppxdata$?runProc@Notepad_plus_Window@@AEAA_JPEAUHWND__@@I_K_J@Z DB 018H
	DD	imagerel $stateUnwindMap$?runProc@Notepad_plus_Window@@AEAA_JPEAUHWND__@@I_K_J@Z
	DD	imagerel $tryMap$?runProc@Notepad_plus_Window@@AEAA_JPEAUHWND__@@I_K_J@Z
	DD	imagerel $ip2state$?runProc@Notepad_plus_Window@@AEAA_JPEAUHWND__@@I_K_J@Z
xdata	ENDS
;	COMDAT xdata
xdata	SEGMENT
$unwind$?runProc@Notepad_plus_Window@@AEAA_JPEAUHWND__@@I_K_J@Z DD 031619H
	DD	07003e207H
	DD	03002H
	DD	imagerel __GSHandlerCheck_EH4
	DD	imagerel $cppxdata$?runProc@Notepad_plus_Window@@AEAA_JPEAUHWND__@@I_K_J@Z
	DD	063H
xdata	ENDS
;	COMDAT xdata
xdata	SEGMENT
$unwind$?Notepad_plus_Proc@Notepad_plus_Window@@CA_JPEAUHWND__@@I_K_J@Z DD 081401H
	DD	0a6414H
	DD	095414H
	DD	083414H
	DD	070105214H
xdata	ENDS
;	COMDAT xdata
xdata	SEGMENT
$unwind$?dtor$25@?0??process@Notepad_plus@@QEAA_JPEAUHWND__@@I_K_J@Z@4HA DD 020601H
	DD	050023206H
xdata	ENDS
;	COMDAT xdata
xdata	SEGMENT
$unwind$?dtor$80@?0??process@Notepad_plus@@QEAA_JPEAUHWND__@@I_K_J@Z@4HA DD 020601H
	DD	050023206H
xdata	ENDS
;	COMDAT xdata
xdata	SEGMENT
$unwind$?dtor$79@?0??process@Notepad_plus@@QEAA_JPEAUHWND__@@I_K_J@Z@4HA DD 020601H
	DD	050023206H
xdata	ENDS
;	COMDAT xdata
xdata	SEGMENT
$unwind$?dtor$18@?0??process@Notepad_plus@@QEAA_JPEAUHWND__@@I_K_J@Z@4HA DD 020601H
	DD	050023206H
xdata	ENDS
;	COMDAT xdata
xdata	SEGMENT
$ip2state$?process@Notepad_plus@@QEAA_JPEAUHWND__@@I_K_J@Z DB 'Y', 02H
	DB	00H
	DB	00H
	DB	0a5H, 03H
	DB	02H
	DB	04H
	DB	00H
	DB	'y', 0bH
	DB	02H
	DB	0aH
	DB	00H
	DB	0d5H, 05H
	DB	08H
	DB	014H
	DB	00H
	DB	'-', 02H
	DB	'`'
	DB	08dH, 02H
	DB	00H
	DB	08dH, 09H
	DB	'b'
	DB	01eH
	DB	'd'
	DB	01eH
	DB	'f'
	DB	01eH
	DB	'j'
	DB	08dH, 02H
	DB	'p'
	DB	0faH
	DB	'n'
	DB	01aH
	DB	'l'
	DB	01aH
	DB	00H
	DB	084H
	DB	'j'
	DB	0fdH, 05H
	DB	't'
	DB	016H
	DB	'v'
	DB	'.'
	DB	'x'
	DB	090H
	DB	'z'
	DB	01aH
	DB	'|'
	DB	01aH
	DB	080H
	DB	0eH
	DB	082H
	DB	' '
	DB	084H
	DB	'6'
	DB	088H
	DB	014H
	DB	086H
	DB	014H
	DB	't'
	DB	014H
	DB	'j'
	DB	014H
	DB	00H
	DB	'U', 08H
	DB	08cH
	DB	088H
	DB	00H
	DB	0edH, 06H
	DB	02H
	DB	04H
	DB	00H
	DB	'e', 08H
	DB	02H
	DB	'"'
	DB	00H
	DB	'Y', 03H
	DB	0cH
	DB	012H
	DB	0eH
	DB	012H
	DB	010H
	DB	01eH
	DB	014H
	DB	'>'
	DB	01aH
	DB	'!', 03H
	DB	018H
	DB	'a', 02H
	DB	016H
	DB	'9', 02H
	DB	00H
	DB	015H, 07H
	DB	'\'
	DB	'$'
	DB	00H
	DB	'}', 01eH
	DB	02H
	DB	04H
	DB	00H
	DB	')', 0dH
	DB	02H
	DB	01eH
	DB	00H
	DB	'i', 08H
	DB	01eH
	DB	012H
	DB	' '
	DB	012H
	DB	'"'
	DB	01eH
	DB	014H
	DB	0c6H
	DB	'*'
	DB	0fcH
	DB	'('
	DB	014H
	DB	'&'
	DB	014H
	DB	00H
	DB	0b4H
	DB	'2'
	DB	09H, 02H
	DB	'0'
	DB	014H
	DB	'.'
	DB	014H
	DB	00H
	DB	'i', 02H
	DB	'6'
	DB	012H
	DB	'8'
	DB	012H
	DB	':'
	DB	01eH
	DB	014H
	DB	0f9H, 03H
	DB	'B'
	DB	0dH, 02H
	DB	'@'
	DB	014H
	DB	'>'
	DB	014H
	DB	00H
	DB	0b8H
	DB	'J'
	DB	01H, 02H
	DB	'H'
	DB	014H
	DB	'F'
	DB	014H
	DB	00H
	DB	086H
	DB	02H
	DB	0aH
	DB	00H
	DB	0ccH
	DB	'N'
	DB	05H, 02H
	DB	00H
	DB	0deH
	DB	'P'
	DB	0faH
	DB	00H
	DB	'!', 08H
	DB	02H
	DB	04H
	DB	00H
	DB	0e9H, 011H
	DB	08eH
	DB	'<'
	DB	090H
	DB	'R'
	DB	092H
	DB	0c8H
	DB	090H
	DB	0ceH
	DB	092H
	DB	016H
	DB	090H
	DB	0a4H
	DB	00H
	DB	0a4H
	DB	092H
	DB	0eH
	DB	090H
	DB	0a4H
	DB	00H
	DB	099H, 05H
	DB	02H
	DB	016H
	DB	00H
	DB	' '
	DB	02H
	DB	'0'
	DB	00H
	DB	'&'
	DB	02H
	DB	08H
	DB	00H
	DB	'X'
	DB	02H
	DB	016H
	DB	00H
	DB	' '
	DB	02H
	DB	'6'
	DB	00H
	DB	'D'
	DB	02H
	DB	016H
	DB	00H
	DB	' '
	DB	02H
	DB	'6'
	DB	00H
	DB	0e1H, 09H
	DB	02H
	DB	'@'
	DB	00H
	DB	'H'
	DB	02H
	DB	'@'
	DB	00H
	DB	'i', 05H
	DB	02H
	DB	04H
	DB	00H
	DB	0c6H
	DB	02H
	DB	0d5H, 02H
	DB	00H
	DB	0edH, 02H
	DB	04H
	DB	082H
	DB	06H
	DB	0bdH, 02H
	DB	04H
	DB	0a2H
	DB	00H
	DB	095H, 05H
	DB	02H
	DB	'F'
	DB	00H
	DB	'9', 02H
	DB	'R'
	DB	' '
	DB	00H
	DB	'^'
	DB	'R'
	DB	' '
	DB	00H
	DB	082H
	DB	02H
	DB	04H
	DB	00H
	DB	'Q', 010H
	DB	094H
	DB	'q', 03H
	DB	00H
	DB	0f9H, 018H
	DB	'X'
	DB	01H, 05H
	DB	00H
	DB	0f2H
	DB	0aH
	DB	01aH
	DB	00H
	DB	'.'
	DB	'p'
	DB	0cH
	DB	00H
	DB	0cH
	DB	01aH
	DB	0cH
	DB	018H
	DB	0cH
	DB	016H
	DB	0cH
	DB	00H
	DB	018H
	DB	'*'
	DB	0cH
	DB	'2'
	DB	0cH
	DB	00H
	DB	0cH
	DB	'B'
	DB	0cH
	DB	'J'
	DB	0cH
	DB	00H
	DB	'$'
	DB	090H
	DB	0cH
	DB	00H
	DB	0cH
	DB	04H
	DB	0cH
	DB	00H
	DB	01aH
	DB	02H
xdata	ENDS
;	COMDAT xdata
xdata	SEGMENT
$stateUnwindMap$?process@Notepad_plus@@QEAA_JPEAUHWND__@@I_K_J@Z DB 094H
	DB	0aH
	DD	imagerel ??1?$basic_string@_WU?$char_traits@_W@std@@V?$allocator@_W@2@@std@@QEAA@XZ
	DB	081H
	DB	02H
	DB	042H
	DD	imagerel ??1?$basic_string@_WU?$char_traits@_W@std@@V?$allocator@_W@2@@std@@QEAA@XZ
	DB	01H
	DB	02H
	DB	03aH
	DD	imagerel ??1?$basic_string@_WU?$char_traits@_W@std@@V?$allocator@_W@2@@std@@QEAA@XZ
	DB	081H
	DB	02H
	DB	0b2H
	DD	imagerel ??1NppGUI@@QEAA@XZ
	DB	081H
	DB	06H
	DB	0eeH
	DD	imagerel ?dtor$34@?0??process@Notepad_plus@@QEAA_JPEAUHWND__@@I_K_J@Z@4HA
	DB	02dH
	DB	02H
	DD	imagerel ?dtor$35@?0??process@Notepad_plus@@QEAA_JPEAUHWND__@@I_K_J@Z@4HA
	DB	036H
	DD	imagerel ?dtor$36@?0??process@Notepad_plus@@QEAA_JPEAUHWND__@@I_K_J@Z@4HA
	DB	02eH
	DD	imagerel ?dtor$37@?0??process@Notepad_plus@@QEAA_JPEAUHWND__@@I_K_J@Z@4HA
	DB	02eH
	DD	imagerel ?dtor$38@?0??process@Notepad_plus@@QEAA_JPEAUHWND__@@I_K_J@Z@4HA
	DB	075H
	DB	03H
	DD	imagerel ??1Session@@QEAA@XZ
	DB	041H
	DB	04H
	DB	0fdH
	DB	03H
	DD	imagerel ?dtor$39@?0??process@Notepad_plus@@QEAA_JPEAUHWND__@@I_K_J@Z@4HA
	DB	036H
	DD	imagerel ?dtor$40@?0??process@Notepad_plus@@QEAA_JPEAUHWND__@@I_K_J@Z@4HA
	DB	02eH
	DD	imagerel ?dtor$41@?0??process@Notepad_plus@@QEAA_JPEAUHWND__@@I_K_J@Z@4HA
	DB	02eH
	DD	imagerel ?dtor$42@?0??process@Notepad_plus@@QEAA_JPEAUHWND__@@I_K_J@Z@4HA
	DB	04dH
	DB	05H
	DD	imagerel ?dtor$43@?0??process@Notepad_plus@@QEAA_JPEAUHWND__@@I_K_J@Z@4HA
	DB	036H
	DD	imagerel ?dtor$44@?0??process@Notepad_plus@@QEAA_JPEAUHWND__@@I_K_J@Z@4HA
	DB	02eH
	DD	imagerel ?dtor$45@?0??process@Notepad_plus@@QEAA_JPEAUHWND__@@I_K_J@Z@4HA
	DB	02eH
	DD	imagerel ?dtor$46@?0??process@Notepad_plus@@QEAA_JPEAUHWND__@@I_K_J@Z@4HA
	DB	09dH
	DB	06H
	DD	imagerel ?dtor$47@?0??process@Notepad_plus@@QEAA_JPEAUHWND__@@I_K_J@Z@4HA
	DB	036H
	DD	imagerel ?dtor$48@?0??process@Notepad_plus@@QEAA_JPEAUHWND__@@I_K_J@Z@4HA
	DB	02eH
	DD	imagerel ?dtor$49@?0??process@Notepad_plus@@QEAA_JPEAUHWND__@@I_K_J@Z@4HA
	DB	02eH
	DD	imagerel ?dtor$50@?0??process@Notepad_plus@@QEAA_JPEAUHWND__@@I_K_J@Z@4HA
	DB	0edH
	DB	07H
	DD	imagerel ?dtor$51@?0??process@Notepad_plus@@QEAA_JPEAUHWND__@@I_K_J@Z@4HA
	DB	036H
	DD	imagerel ?dtor$52@?0??process@Notepad_plus@@QEAA_JPEAUHWND__@@I_K_J@Z@4HA
	DB	02eH
	DD	imagerel ?dtor$53@?0??process@Notepad_plus@@QEAA_JPEAUHWND__@@I_K_J@Z@4HA
	DB	02eH
	DD	imagerel ?dtor$54@?0??process@Notepad_plus@@QEAA_JPEAUHWND__@@I_K_J@Z@4HA
	DB	03dH
	DB	09H
	DD	imagerel ?dtor$55@?0??process@Notepad_plus@@QEAA_JPEAUHWND__@@I_K_J@Z@4HA
	DB	036H
	DD	imagerel ?dtor$56@?0??process@Notepad_plus@@QEAA_JPEAUHWND__@@I_K_J@Z@4HA
	DB	02eH
	DD	imagerel ?dtor$57@?0??process@Notepad_plus@@QEAA_JPEAUHWND__@@I_K_J@Z@4HA
	DB	02eH
	DD	imagerel ?dtor$58@?0??process@Notepad_plus@@QEAA_JPEAUHWND__@@I_K_J@Z@4HA
	DB	08dH
	DB	0aH
	DD	imagerel ?dtor$59@?0??process@Notepad_plus@@QEAA_JPEAUHWND__@@I_K_J@Z@4HA
	DB	036H
	DD	imagerel ?dtor$60@?0??process@Notepad_plus@@QEAA_JPEAUHWND__@@I_K_J@Z@4HA
	DB	02eH
	DD	imagerel ?dtor$61@?0??process@Notepad_plus@@QEAA_JPEAUHWND__@@I_K_J@Z@4HA
	DB	02eH
	DD	imagerel ?dtor$62@?0??process@Notepad_plus@@QEAA_JPEAUHWND__@@I_K_J@Z@4HA
	DB	0ddH
	DB	0bH
	DD	imagerel ?dtor$63@?0??process@Notepad_plus@@QEAA_JPEAUHWND__@@I_K_J@Z@4HA
	DB	036H
	DD	imagerel ?dtor$64@?0??process@Notepad_plus@@QEAA_JPEAUHWND__@@I_K_J@Z@4HA
	DB	02eH
	DD	imagerel ?dtor$65@?0??process@Notepad_plus@@QEAA_JPEAUHWND__@@I_K_J@Z@4HA
	DB	02eH
	DD	imagerel ?dtor$66@?0??process@Notepad_plus@@QEAA_JPEAUHWND__@@I_K_J@Z@4HA
	DB	025H
	DB	0dH
	DD	imagerel ??1Utf8_16_Write@@QEAA@XZ
	DB	081H
	DB	02H
	DB	0a5H
	DB	0dH
	DD	imagerel ??1Utf8_16_Read@@QEAA@XZ
	DB	041H
	DB	04H
	DB	025H
	DB	0eH
	DD	imagerel ??1recordedMacroStep@@QEAA@XZ
	DB	081H
	DB	02H
	DB	0adH
	DB	0eH
	DD	imagerel ?dtor$67@?0??process@Notepad_plus@@QEAA_JPEAUHWND__@@I_K_J@Z@4HA
	DB	0dH
	DB	0fH
	DD	imagerel ?dtor$68@?0??process@Notepad_plus@@QEAA_JPEAUHWND__@@I_K_J@Z@4HA
	DB	065H
	DB	0fH
	DD	imagerel ??1?$vector@UrecordedMacroStep@@V?$allocator@UrecordedMacroStep@@@std@@@std@@QEAA@XZ
	DB	01H
	DB	02H
	DB	044H
	DD	imagerel ??1?$vector@UrecordedMacroStep@@V?$allocator@UrecordedMacroStep@@@std@@@std@@QEAA@XZ
	DB	0c1H
	DB	03H
	DB	05dH
	DB	010H
	DD	imagerel ?dtor$18@?0??process@Notepad_plus@@QEAA_JPEAUHWND__@@I_K_J@Z@4HA
	DB	0bdH
	DB	010H
	DD	imagerel ?dtor$69@?0??process@Notepad_plus@@QEAA_JPEAUHWND__@@I_K_J@Z@4HA
	DB	015H
	DB	011H
	DD	imagerel ??1ContextMenu@@QEAA@XZ
	DB	081H
	DB	02H
	DB	09dH
	DB	011H
	DD	imagerel ?dtor$70@?0??process@Notepad_plus@@QEAA_JPEAUHWND__@@I_K_J@Z@4HA
	DB	036H
	DD	imagerel ?dtor$71@?0??process@Notepad_plus@@QEAA_JPEAUHWND__@@I_K_J@Z@4HA
	DB	02eH
	DD	imagerel ?dtor$72@?0??process@Notepad_plus@@QEAA_JPEAUHWND__@@I_K_J@Z@4HA
	DB	02eH
	DD	imagerel ?dtor$73@?0??process@Notepad_plus@@QEAA_JPEAUHWND__@@I_K_J@Z@4HA
	DB	0e5H
	DB	012H
	DD	imagerel ??1Session@@QEAA@XZ
	DB	081H
	DB	046H
	DB	06dH
	DB	013H
	DD	imagerel ?dtor$74@?0??process@Notepad_plus@@QEAA_JPEAUHWND__@@I_K_J@Z@4HA
	DB	036H
	DD	imagerel ?dtor$75@?0??process@Notepad_plus@@QEAA_JPEAUHWND__@@I_K_J@Z@4HA
	DB	02eH
	DD	imagerel ?dtor$76@?0??process@Notepad_plus@@QEAA_JPEAUHWND__@@I_K_J@Z@4HA
	DB	02eH
	DD	imagerel ?dtor$77@?0??process@Notepad_plus@@QEAA_JPEAUHWND__@@I_K_J@Z@4HA
	DB	0eaH
	DD	imagerel ??1?$basic_string@_WU?$char_traits@_W@std@@V?$allocator@_W@2@@std@@QEAA@XZ
	DB	081H
	DB	02H
	DB	03eH
	DD	imagerel ?dtor$79@?0??process@Notepad_plus@@QEAA_JPEAUHWND__@@I_K_J@Z@4HA
	DB	02eH
	DD	imagerel ?dtor$80@?0??process@Notepad_plus@@QEAA_JPEAUHWND__@@I_K_J@Z@4HA
	DB	02aH
	DD	imagerel ??1?$basic_string@_WU?$char_traits@_W@std@@V?$allocator@_W@2@@std@@QEAA@XZ
	DB	041H
	DB	04H
	DB	03eH
	DD	imagerel ?dtor$82@?0??process@Notepad_plus@@QEAA_JPEAUHWND__@@I_K_J@Z@4HA
	DB	02eH
	DD	imagerel ?dtor$83@?0??process@Notepad_plus@@QEAA_JPEAUHWND__@@I_K_J@Z@4HA
	DB	0b2H
	DD	imagerel ??1Process@@QEAA@XZ
	DB	041H
	DB	04H
	DB	025H
	DB	02H
	DD	imagerel ??1Process@@QEAA@XZ
	DB	041H
	DB	04H
	DB	015H
	DB	03H
	DD	imagerel ??1Process@@QEAA@XZ
	DB	041H
	DB	04H
	DB	095H
	DB	03H
