; Listing generated by Microsoft (R) Optimizing Compiler Version 19.29.30038.1 

include listing.inc

INCLUDELIB MSVCRTD
INCLUDELIB OLDNAMES

PUBLIC	DllMain
EXTRN	_RTC_InitBase:PROC
EXTRN	_RTC_Shutdown:PROC
pdata	SEGMENT
$pdata$DllMain DD imagerel $LN9
	DD	imagerel $LN9+37
	DD	imagerel $unwind$DllMain
pdata	ENDS
;	COMDAT rtc$TMZ
rtc$TMZ	SEGMENT
_RTC_Shutdown.rtc$TMZ DQ FLAT:_RTC_Shutdown
rtc$TMZ	ENDS
;	COMDAT rtc$IMZ
rtc$IMZ	SEGMENT
_RTC_InitBase.rtc$IMZ DQ FLAT:_RTC_InitBase
rtc$IMZ	ENDS
xdata	SEGMENT
$unwind$DllMain DD 021301H
	DD	0700f1213H
xdata	ENDS
; Function compile flags: /Odtp /RTCsu
; File D:\dev\crashexplorer\crashexplorer\test_projects\test_project\dynamic_library\dllmain.cpp
_TEXT	SEGMENT
tv64 = 0
hModule$ = 32
ul_reason_for_call$ = 40
lpReserved$ = 48
DllMain	PROC

; 7    : {

$LN9:
  00000	4c 89 44 24 18	 mov	 QWORD PTR [rsp+24], r8
  00005	89 54 24 10	 mov	 DWORD PTR [rsp+16], edx
  00009	48 89 4c 24 08	 mov	 QWORD PTR [rsp+8], rcx
  0000e	57		 push	 rdi
  0000f	48 83 ec 10	 sub	 rsp, 16

; 8    :     switch (ul_reason_for_call)

  00013	8b 44 24 28	 mov	 eax, DWORD PTR ul_reason_for_call$[rsp]
  00017	89 04 24	 mov	 DWORD PTR tv64[rsp], eax

; 9    :     {
; 10   :     case DLL_PROCESS_ATTACH:
; 11   :     case DLL_THREAD_ATTACH:
; 12   :     case DLL_THREAD_DETACH:
; 13   :     case DLL_PROCESS_DETACH:
; 14   :         break;
; 15   :     }
; 16   :     return TRUE;

  0001a	b8 01 00 00 00	 mov	 eax, 1

; 17   : }

  0001f	48 83 c4 10	 add	 rsp, 16
  00023	5f		 pop	 rdi
  00024	c3		 ret	 0
DllMain	ENDP
_TEXT	ENDS
END
