; Listing generated by Microsoft (R) Optimizing Compiler Version 19.29.30038.1 

include listing.inc

INCLUDELIB MSVCRTD
INCLUDELIB OLDNAMES

PUBLIC	?p0@@3UPoint@@A					; p0
_BSS	SEGMENT
?p0@@3UPoint@@A DQ 01H DUP (?)				; p0
_BSS	ENDS
CONST	SEGMENT
$SG44700 DB	'invalid argument', 00H
	ORG $+3
$SG44701 DB	'%s', 00H
	ORG $+1
$SG44705 DB	'"', 00H, 'i', 00H, 'n', 00H, 'v', 00H, 'a', 00H, 'l', 00H
	DB	'i', 00H, 'd', 00H, ' ', 00H, 'a', 00H, 'r', 00H, 'g', 00H, 'u'
	DB	00H, 'm', 00H, 'e', 00H, 'n', 00H, 't', 00H, '"', 00H, 00H, 00H
	ORG $+2
$SG44702 DB	'C:\Program Files (x86)\Microsoft Visual Studio\2019\Comm'
	DB	'unity\VC\Tools\MSVC\14.29.30037\include\xmemory', 00H
$SG37212 DB	')', 00H
	ORG $+6
$SG44703 DB	'C', 00H, ':', 00H, '\', 00H, 'P', 00H, 'r', 00H, 'o', 00H
	DB	'g', 00H, 'r', 00H, 'a', 00H, 'm', 00H, ' ', 00H, 'F', 00H, 'i'
	DB	00H, 'l', 00H, 'e', 00H, 's', 00H, ' ', 00H, '(', 00H, 'x', 00H
	DB	'8', 00H, '6', 00H, ')', 00H, '\', 00H, 'M', 00H, 'i', 00H, 'c'
	DB	00H, 'r', 00H, 'o', 00H, 's', 00H, 'o', 00H, 'f', 00H, 't', 00H
	DB	' ', 00H, 'V', 00H, 'i', 00H, 's', 00H, 'u', 00H, 'a', 00H, 'l'
	DB	00H, ' ', 00H, 'S', 00H, 't', 00H, 'u', 00H, 'd', 00H, 'i', 00H
	DB	'o', 00H, '\', 00H, '2', 00H, '0', 00H, '1', 00H, '9', 00H, '\'
	DB	00H, 'C', 00H, 'o', 00H, 'm', 00H, 'm', 00H, 'u', 00H, 'n', 00H
	DB	'i', 00H, 't', 00H, 'y', 00H, '\', 00H, 'V', 00H, 'C', 00H, '\'
	DB	00H, 'T', 00H, 'o', 00H, 'o', 00H, 'l', 00H, 's', 00H, '\', 00H
	DB	'M', 00H, 'S', 00H, 'V', 00H, 'C', 00H, '\', 00H, '1', 00H, '4'
	DB	00H, '.', 00H, '2', 00H, '9', 00H, '.', 00H, '3', 00H, '0', 00H
	DB	'0', 00H, '3', 00H, '7', 00H, '\', 00H, 'i', 00H, 'n', 00H, 'c'
	DB	00H, 'l', 00H, 'u', 00H, 'd', 00H, 'e', 00H, '\', 00H, 'x', 00H
	DB	'm', 00H, 'e', 00H, 'm', 00H, 'o', 00H, 'r', 00H, 'y', 00H, 00H
	DB	00H
$SG44704 DB	's', 00H, 't', 00H, 'd', 00H, ':', 00H, ':', 00H, '_', 00H
	DB	'A', 00H, 'l', 00H, 'l', 00H, 'o', 00H, 'c', 00H, 'a', 00H, 't'
	DB	00H, 'e', 00H, '_', 00H, 'm', 00H, 'a', 00H, 'n', 00H, 'u', 00H
	DB	'a', 00H, 'l', 00H, 'l', 00H, 'y', 00H, '_', 00H, 'v', 00H, 'e'
	DB	00H, 'c', 00H, 't', 00H, 'o', 00H, 'r', 00H, '_', 00H, 'a', 00H
	DB	'l', 00H, 'i', 00H, 'g', 00H, 'n', 00H, 'e', 00H, 'd', 00H, 00H
	DB	00H
	ORG $+2
$SG44895 DB	'C:\Program Files (x86)\Microsoft Visual Studio\2019\Comm'
	DB	'unity\VC\Tools\MSVC\14.29.30037\include\xlocale', 00H
$SG37213 DB	', ', 00H
	ORG $+1
$SG37214 DB	'(', 00H
CONST	ENDS
PUBLIC	?__empty_global_delete@@YAXPEAX@Z		; __empty_global_delete
PUBLIC	?__empty_global_delete@@YAXPEAX_K@Z		; __empty_global_delete
PUBLIC	?max@?$numeric_limits@_J@std@@SA_JXZ		; std::numeric_limits<__int64>::max
PUBLIC	??2@YAPEAX_KPEAX@Z				; operator new
PUBLIC	??0exception@std@@QEAA@QEBDH@Z			; std::exception::exception
PUBLIC	??0exception@std@@QEAA@AEBV01@@Z		; std::exception::exception
PUBLIC	??1exception@std@@UEAA@XZ			; std::exception::~exception
PUBLIC	?what@exception@std@@UEBAPEBDXZ			; std::exception::what
PUBLIC	??_Gexception@std@@UEAAPEAXI@Z			; std::exception::`scalar deleting destructor'
PUBLIC	??0bad_alloc@std@@AEAA@QEBD@Z			; std::bad_alloc::bad_alloc
PUBLIC	??1bad_alloc@std@@UEAA@XZ			; std::bad_alloc::~bad_alloc
PUBLIC	??0bad_alloc@std@@QEAA@AEBV01@@Z		; std::bad_alloc::bad_alloc
PUBLIC	??_Gbad_alloc@std@@UEAAPEAXI@Z			; std::bad_alloc::`scalar deleting destructor'
PUBLIC	??0bad_array_new_length@std@@QEAA@XZ		; std::bad_array_new_length::bad_array_new_length
PUBLIC	??1bad_array_new_length@std@@UEAA@XZ		; std::bad_array_new_length::~bad_array_new_length
PUBLIC	??0bad_array_new_length@std@@QEAA@AEBV01@@Z	; std::bad_array_new_length::bad_array_new_length
PUBLIC	??_Gbad_array_new_length@std@@UEAAPEAXI@Z	; std::bad_array_new_length::`scalar deleting destructor'
PUBLIC	?_Throw_bad_array_new_length@std@@YAXXZ		; std::_Throw_bad_array_new_length
PUBLIC	?_Allocate@_Default_allocate_traits@std@@SAPEAX_K@Z ; std::_Default_allocate_traits::_Allocate
PUBLIC	?_Adjust_manually_vector_aligned@std@@YAXAEAPEAXAEA_K@Z ; std::_Adjust_manually_vector_aligned
PUBLIC	??0_Container_proxy@std@@QEAA@PEAU_Container_base12@1@@Z ; std::_Container_proxy::_Container_proxy
PUBLIC	??0_Container_base12@std@@QEAA@XZ		; std::_Container_base12::_Container_base12
PUBLIC	?_Orphan_all@_Container_base12@std@@QEAAXXZ	; std::_Container_base12::_Orphan_all
PUBLIC	?_Orphan_all_unlocked@_Container_base12@std@@AEAAXXZ ; std::_Container_base12::_Orphan_all_unlocked
PUBLIC	?_Orphan_all_locked@_Container_base12@std@@AEAAXXZ ; std::_Container_base12::_Orphan_all_locked
PUBLIC	??0Cmathlibrary@@QEAA@XZ			; Cmathlibrary::Cmathlibrary
PUBLIC	?calc_convex_hull@Cmathlibrary@@QEAAHXZ		; Cmathlibrary::calc_convex_hull
PUBLIC	?nextToTop@Cmathlibrary@@AEAA?AUPoint@@AEAV?$stack@UPoint@@V?$deque@UPoint@@V?$allocator@UPoint@@@std@@@std@@@std@@@Z ; Cmathlibrary::nextToTop
PUBLIC	?swap@Cmathlibrary@@AEAAXAEAUPoint@@0@Z		; Cmathlibrary::swap
PUBLIC	?convexHull@Cmathlibrary@@AEAAXQEAUPoint@@H@Z	; Cmathlibrary::convexHull
PUBLIC	??4Cmathlibrary@@QEAAAEAV0@AEBV0@@Z		; Cmathlibrary::operator=
PUBLIC	??4Cmathlibrary@@QEAAAEAV0@$$QEAV0@@Z		; Cmathlibrary::operator=
PUBLIC	?length@?$_Narrow_char_traits@DH@std@@SA_KQEBD@Z ; std::_Narrow_char_traits<char,int>::length
PUBLIC	?eq_int_type@?$_Narrow_char_traits@DH@std@@SA_NAEBH0@Z ; std::_Narrow_char_traits<char,int>::eq_int_type
PUBLIC	?eof@?$_Narrow_char_traits@DH@std@@SAHXZ	; std::_Narrow_char_traits<char,int>::eof
PUBLIC	??0?$allocator@UPoint@@@std@@QEAA@XZ		; std::allocator<Point>::allocator<Point>
PUBLIC	?deallocate@?$allocator@UPoint@@@std@@QEAAXQEAUPoint@@_K@Z ; std::allocator<Point>::deallocate
PUBLIC	?allocate@?$allocator@UPoint@@@std@@QEAAPEAUPoint@@_K@Z ; std::allocator<Point>::allocate
PUBLIC	?max_size@?$_Default_allocator_traits@V?$allocator@UPoint@@@std@@@std@@SA_KAEBV?$allocator@UPoint@@@2@@Z ; std::_Default_allocator_traits<std::allocator<Point> >::max_size
PUBLIC	?deallocate@?$allocator@PEAUPoint@@@std@@QEAAXQEAPEAUPoint@@_K@Z ; std::allocator<Point *>::deallocate
PUBLIC	?allocate@?$allocator@PEAUPoint@@@std@@QEAAPEAPEAUPoint@@_K@Z ; std::allocator<Point *>::allocate
PUBLIC	??0?$_Deque_val@U?$_Deque_simple_types@UPoint@@@std@@@std@@QEAA@XZ ; std::_Deque_val<std::_Deque_simple_types<Point> >::_Deque_val<std::_Deque_simple_types<Point> >
PUBLIC	?_Getblock@?$_Deque_val@U?$_Deque_simple_types@UPoint@@@std@@@std@@QEBA_K_K@Z ; std::_Deque_val<std::_Deque_simple_types<Point> >::_Getblock
PUBLIC	??0?$deque@UPoint@@V?$allocator@UPoint@@@std@@@std@@QEAA@XZ ; std::deque<Point,std::allocator<Point> >::deque<Point,std::allocator<Point> >
PUBLIC	??1?$deque@UPoint@@V?$allocator@UPoint@@@std@@@std@@QEAA@XZ ; std::deque<Point,std::allocator<Point> >::~deque<Point,std::allocator<Point> >
PUBLIC	?_Unchecked_end@?$deque@UPoint@@V?$allocator@UPoint@@@std@@@std@@QEAA?AV?$_Deque_unchecked_iterator@V?$_Deque_val@U?$_Deque_simple_types@UPoint@@@std@@@std@@@2@XZ ; std::deque<Point,std::allocator<Point> >::_Unchecked_end
PUBLIC	?size@?$deque@UPoint@@V?$allocator@UPoint@@@std@@@std@@QEBA_KXZ ; std::deque<Point,std::allocator<Point> >::size
PUBLIC	?max_size@?$deque@UPoint@@V?$allocator@UPoint@@@std@@@std@@QEBA_KXZ ; std::deque<Point,std::allocator<Point> >::max_size
PUBLIC	?empty@?$deque@UPoint@@V?$allocator@UPoint@@@std@@@std@@QEBA_NXZ ; std::deque<Point,std::allocator<Point> >::empty
PUBLIC	?back@?$deque@UPoint@@V?$allocator@UPoint@@@std@@@std@@QEAAAEAUPoint@@XZ ; std::deque<Point,std::allocator<Point> >::back
PUBLIC	?push_back@?$deque@UPoint@@V?$allocator@UPoint@@@std@@@std@@QEAAXAEBUPoint@@@Z ; std::deque<Point,std::allocator<Point> >::push_back
PUBLIC	?pop_back@?$deque@UPoint@@V?$allocator@UPoint@@@std@@@std@@QEAAXXZ ; std::deque<Point,std::allocator<Point> >::pop_back
PUBLIC	?_Xlen@?$deque@UPoint@@V?$allocator@UPoint@@@std@@@std@@AEBAXXZ ; std::deque<Point,std::allocator<Point> >::_Xlen
PUBLIC	?_Growmap@?$deque@UPoint@@V?$allocator@UPoint@@@std@@@std@@AEAAX_K@Z ; std::deque<Point,std::allocator<Point> >::_Growmap
PUBLIC	?_Tidy@?$deque@UPoint@@V?$allocator@UPoint@@@std@@@std@@AEAAXXZ ; std::deque<Point,std::allocator<Point> >::_Tidy
PUBLIC	?_Orphan_off@?$deque@UPoint@@V?$allocator@UPoint@@@std@@@std@@AEBAX_K@Z ; std::deque<Point,std::allocator<Point> >::_Orphan_off
PUBLIC	?_Getblock@?$deque@UPoint@@V?$allocator@UPoint@@@std@@@std@@AEBA_K_K@Z ; std::deque<Point,std::allocator<Point> >::_Getblock
PUBLIC	?_Orphan_all@?$deque@UPoint@@V?$allocator@UPoint@@@std@@@std@@AEAAXXZ ; std::deque<Point,std::allocator<Point> >::_Orphan_all
PUBLIC	?_Getal@?$deque@UPoint@@V?$allocator@UPoint@@@std@@@std@@AEAAAEAV?$allocator@UPoint@@@2@XZ ; std::deque<Point,std::allocator<Point> >::_Getal
PUBLIC	?_Getal@?$deque@UPoint@@V?$allocator@UPoint@@@std@@@std@@AEBAAEBV?$allocator@UPoint@@@2@XZ ; std::deque<Point,std::allocator<Point> >::_Getal
PUBLIC	?_Get_data@?$deque@UPoint@@V?$allocator@UPoint@@@std@@@std@@AEAAAEAV?$_Deque_val@U?$_Deque_simple_types@UPoint@@@std@@@2@XZ ; std::deque<Point,std::allocator<Point> >::_Get_data
PUBLIC	?_Get_data@?$deque@UPoint@@V?$allocator@UPoint@@@std@@@std@@AEBAAEBV?$_Deque_val@U?$_Deque_simple_types@UPoint@@@std@@@2@XZ ; std::deque<Point,std::allocator<Point> >::_Get_data
PUBLIC	?_Map@?$deque@UPoint@@V?$allocator@UPoint@@@std@@@std@@AEAAAEAPEAPEAUPoint@@XZ ; std::deque<Point,std::allocator<Point> >::_Map
PUBLIC	?_Mapsize@?$deque@UPoint@@V?$allocator@UPoint@@@std@@@std@@AEAAAEA_KXZ ; std::deque<Point,std::allocator<Point> >::_Mapsize
PUBLIC	?_Myoff@?$deque@UPoint@@V?$allocator@UPoint@@@std@@@std@@AEAAAEA_KXZ ; std::deque<Point,std::allocator<Point> >::_Myoff
PUBLIC	?_Myoff@?$deque@UPoint@@V?$allocator@UPoint@@@std@@@std@@AEBAAEB_KXZ ; std::deque<Point,std::allocator<Point> >::_Myoff
PUBLIC	?_Mysize@?$deque@UPoint@@V?$allocator@UPoint@@@std@@@std@@AEAAAEA_KXZ ; std::deque<Point,std::allocator<Point> >::_Mysize
PUBLIC	?_Mysize@?$deque@UPoint@@V?$allocator@UPoint@@@std@@@std@@AEBAAEB_KXZ ; std::deque<Point,std::allocator<Point> >::_Mysize
PUBLIC	?_Get_first@?$_Compressed_pair@V?$allocator@UPoint@@@std@@V?$_Deque_val@U?$_Deque_simple_types@UPoint@@@std@@@2@$00@std@@QEAAAEAV?$allocator@UPoint@@@2@XZ ; std::_Compressed_pair<std::allocator<Point>,std::_Deque_val<std::_Deque_simple_types<Point> >,1>::_Get_first
PUBLIC	?_Get_first@?$_Compressed_pair@V?$allocator@UPoint@@@std@@V?$_Deque_val@U?$_Deque_simple_types@UPoint@@@std@@@2@$00@std@@QEBAAEBV?$allocator@UPoint@@@2@XZ ; std::_Compressed_pair<std::allocator<Point>,std::_Deque_val<std::_Deque_simple_types<Point> >,1>::_Get_first
PUBLIC	??0?$stack@UPoint@@V?$deque@UPoint@@V?$allocator@UPoint@@@std@@@std@@@std@@QEAA@XZ ; std::stack<Point,std::deque<Point,std::allocator<Point> > >::stack<Point,std::deque<Point,std::allocator<Point> > >
PUBLIC	?empty@?$stack@UPoint@@V?$deque@UPoint@@V?$allocator@UPoint@@@std@@@std@@@std@@QEBA_NXZ ; std::stack<Point,std::deque<Point,std::allocator<Point> > >::empty
PUBLIC	?size@?$stack@UPoint@@V?$deque@UPoint@@V?$allocator@UPoint@@@std@@@std@@@std@@QEBA_KXZ ; std::stack<Point,std::deque<Point,std::allocator<Point> > >::size
PUBLIC	?top@?$stack@UPoint@@V?$deque@UPoint@@V?$allocator@UPoint@@@std@@@std@@@std@@QEAAAEAUPoint@@XZ ; std::stack<Point,std::deque<Point,std::allocator<Point> > >::top
PUBLIC	?push@?$stack@UPoint@@V?$deque@UPoint@@V?$allocator@UPoint@@@std@@@std@@@std@@QEAAXAEBUPoint@@@Z ; std::stack<Point,std::deque<Point,std::allocator<Point> > >::push
PUBLIC	?pop@?$stack@UPoint@@V?$deque@UPoint@@V?$allocator@UPoint@@@std@@@std@@@std@@QEAAXXZ ; std::stack<Point,std::deque<Point,std::allocator<Point> > >::pop
PUBLIC	??1?$stack@UPoint@@V?$deque@UPoint@@V?$allocator@UPoint@@@std@@@std@@@std@@QEAA@XZ ; std::stack<Point,std::deque<Point,std::allocator<Point> > >::~stack<Point,std::deque<Point,std::allocator<Point> > >
PUBLIC	?distSq@@YAHUPoint@@0@Z				; distSq
PUBLIC	?orientation@@YAHUPoint@@00@Z			; orientation
PUBLIC	?compare@@YAHPEBX0@Z				; compare
PUBLIC	??$?6U?$char_traits@D@std@@@std@@YAAEAV?$basic_ostream@DU?$char_traits@D@std@@@0@AEAV10@PEBD@Z ; std::operator<<<std::char_traits<char> >
PUBLIC	??$endl@DU?$char_traits@D@std@@@std@@YAAEAV?$basic_ostream@DU?$char_traits@D@std@@@0@AEAV10@@Z ; std::endl<char,std::char_traits<char> >
PUBLIC	?allocate@?$allocator@U_Container_proxy@std@@@std@@QEAAPEAU_Container_proxy@2@_K@Z ; std::allocator<std::_Container_proxy>::allocate
PUBLIC	??$?0UPoint@@@?$allocator@U_Container_proxy@std@@@std@@QEAA@AEBV?$allocator@UPoint@@@1@@Z ; std::allocator<std::_Container_proxy>::allocator<std::_Container_proxy><Point>
PUBLIC	??$exchange@PEAU_Container_proxy@std@@$$T@std@@YAPEAU_Container_proxy@0@AEAPEAU10@$$QEA$$T@Z ; std::exchange<std::_Container_proxy *,std::nullptr_t>
PUBLIC	??$_Delete_plain_internal@V?$allocator@U_Container_proxy@std@@@std@@@std@@YAXAEAV?$allocator@U_Container_proxy@std@@@0@QEAU_Container_proxy@0@@Z ; std::_Delete_plain_internal<std::allocator<std::_Container_proxy> >
PUBLIC	??$?0$$V@?$_Compressed_pair@V?$allocator@UPoint@@@std@@V?$_Deque_val@U?$_Deque_simple_types@UPoint@@@std@@@2@$00@std@@QEAA@U_Zero_then_variadic_args_t@1@@Z ; std::_Compressed_pair<std::allocator<Point>,std::_Deque_val<std::_Deque_simple_types<Point> >,1>::_Compressed_pair<std::allocator<Point>,std::_Deque_val<std::_Deque_simple_types<Point> >,1><>
PUBLIC	??$_Alloc_proxy@V?$allocator@U_Container_proxy@std@@@std@@@_Container_base12@std@@QEAAX$$QEAV?$allocator@U_Container_proxy@std@@@1@@Z ; std::_Container_base12::_Alloc_proxy<std::allocator<std::_Container_proxy> >
PUBLIC	??0_Sentry_base@?$basic_ostream@DU?$char_traits@D@std@@@std@@QEAA@AEAV12@@Z ; std::basic_ostream<char,std::char_traits<char> >::_Sentry_base::_Sentry_base
PUBLIC	??1_Sentry_base@?$basic_ostream@DU?$char_traits@D@std@@@std@@QEAA@XZ ; std::basic_ostream<char,std::char_traits<char> >::_Sentry_base::~_Sentry_base
PUBLIC	??0sentry@?$basic_ostream@DU?$char_traits@D@std@@@std@@QEAA@AEAV12@@Z ; std::basic_ostream<char,std::char_traits<char> >::sentry::sentry
PUBLIC	??1sentry@?$basic_ostream@DU?$char_traits@D@std@@@std@@QEAA@XZ ; std::basic_ostream<char,std::char_traits<char> >::sentry::~sentry
PUBLIC	??Bsentry@?$basic_ostream@DU?$char_traits@D@std@@@std@@QEBA_NXZ ; std::basic_ostream<char,std::char_traits<char> >::sentry::operator bool
PUBLIC	??$min@_K@std@@YAAEB_KAEB_K0@Z			; std::min<unsigned __int64>
PUBLIC	??$_Unfancy@U_Container_proxy@std@@@std@@YAPEAU_Container_proxy@0@PEAU10@@Z ; std::_Unfancy<std::_Container_proxy>
PUBLIC	??$_Construct_in_place@U_Container_proxy@std@@PEAU_Container_base12@2@@std@@YAXAEAU_Container_proxy@0@$$QEAPEAU_Container_base12@0@@Z ; std::_Construct_in_place<std::_Container_proxy,std::_Container_base12 *>
PUBLIC	??$?0UPoint@@@?$allocator@PEAUPoint@@@std@@QEAA@AEBV?$allocator@UPoint@@@1@@Z ; std::allocator<Point *>::allocator<Point *><Point>
PUBLIC	??$_Destroy_in_place@PEAUPoint@@@std@@YAXAEAPEAUPoint@@@Z ; std::_Destroy_in_place<Point *>
PUBLIC	??$_Unfancy@UPoint@@@std@@YAPEAUPoint@@PEAU1@@Z	; std::_Unfancy<Point>
PUBLIC	??$destroy@UPoint@@@?$_Default_allocator_traits@V?$allocator@UPoint@@@std@@@std@@SAXAEAV?$allocator@UPoint@@@1@QEAUPoint@@@Z ; std::_Default_allocator_traits<std::allocator<Point> >::destroy<Point>
PUBLIC	??$_Emplace_back_internal@AEBUPoint@@@?$deque@UPoint@@V?$allocator@UPoint@@@std@@@std@@AEAAXAEBUPoint@@@Z ; std::deque<Point,std::allocator<Point> >::_Emplace_back_internal<Point const &>
PUBLIC	??0?$_Deque_unchecked_const_iterator@V?$_Deque_val@U?$_Deque_simple_types@UPoint@@@std@@@std@@@std@@QEAA@_KPEBU_Container_base12@1@@Z ; std::_Deque_unchecked_const_iterator<std::_Deque_val<std::_Deque_simple_types<Point> > >::_Deque_unchecked_const_iterator<std::_Deque_val<std::_Deque_simple_types<Point> > >
PUBLIC	??D?$_Deque_unchecked_const_iterator@V?$_Deque_val@U?$_Deque_simple_types@UPoint@@@std@@@std@@@std@@QEBAAEBUPoint@@XZ ; std::_Deque_unchecked_const_iterator<std::_Deque_val<std::_Deque_simple_types<Point> > >::operator*
PUBLIC	??F?$_Deque_unchecked_const_iterator@V?$_Deque_val@U?$_Deque_simple_types@UPoint@@@std@@@std@@@std@@QEAAAEAV01@XZ ; std::_Deque_unchecked_const_iterator<std::_Deque_val<std::_Deque_simple_types<Point> > >::operator--
PUBLIC	??D?$_Deque_unchecked_iterator@V?$_Deque_val@U?$_Deque_simple_types@UPoint@@@std@@@std@@@std@@QEBAAEAUPoint@@XZ ; std::_Deque_unchecked_iterator<std::_Deque_val<std::_Deque_simple_types<Point> > >::operator*
PUBLIC	??F?$_Deque_unchecked_iterator@V?$_Deque_val@U?$_Deque_simple_types@UPoint@@@std@@@std@@@std@@QEAAAEAV01@XZ ; std::_Deque_unchecked_iterator<std::_Deque_val<std::_Deque_simple_types<Point> > >::operator--
PUBLIC	??0?$_Deque_unchecked_iterator@V?$_Deque_val@U?$_Deque_simple_types@UPoint@@@std@@@std@@@std@@QEAA@_KPEBU_Container_base12@1@@Z ; std::_Deque_unchecked_iterator<std::_Deque_val<std::_Deque_simple_types<Point> > >::_Deque_unchecked_iterator<std::_Deque_val<std::_Deque_simple_types<Point> > >
PUBLIC	??$_Prev_iter@V?$_Deque_unchecked_iterator@V?$_Deque_val@U?$_Deque_simple_types@UPoint@@@std@@@std@@@std@@@std@@YA?AV?$_Deque_unchecked_iterator@V?$_Deque_val@U?$_Deque_simple_types@UPoint@@@std@@@std@@@0@V10@@Z ; std::_Prev_iter<std::_Deque_unchecked_iterator<std::_Deque_val<std::_Deque_simple_types<Point> > > >
PUBLIC	??$_Get_size_of_n@$0BA@@std@@YA_K_K@Z		; std::_Get_size_of_n<16>
PUBLIC	??$_Allocate@$0BA@U_Default_allocate_traits@std@@$0A@@std@@YAPEAX_K@Z ; std::_Allocate<16,std::_Default_allocate_traits,0>
PUBLIC	??$addressof@V?$_Deque_val@U?$_Deque_simple_types@UPoint@@@std@@@std@@@std@@YAPEAV?$_Deque_val@U?$_Deque_simple_types@UPoint@@@std@@@0@AEAV10@@Z ; std::addressof<std::_Deque_val<std::_Deque_simple_types<Point> > >
PUBLIC	??$_Deallocate@$0BA@$0A@@std@@YAXPEAX_K@Z	; std::_Deallocate<16,0>
PUBLIC	??$_Deallocate_plain@V?$allocator@U_Container_proxy@std@@@std@@@std@@YAXAEAV?$allocator@U_Container_proxy@std@@@0@QEAU_Container_proxy@0@@Z ; std::_Deallocate_plain<std::allocator<std::_Container_proxy> >
PUBLIC	??$addressof@U_Container_proxy@std@@@std@@YAPEAU_Container_proxy@0@AEAU10@@Z ; std::addressof<std::_Container_proxy>
PUBLIC	??$_Voidify_iter@PEAU_Container_proxy@std@@@std@@YAPEAXPEAU_Container_proxy@0@@Z ; std::_Voidify_iter<std::_Container_proxy *>
PUBLIC	??$forward@PEAU_Container_base12@std@@@std@@YA$$QEAPEAU_Container_base12@0@AEAPEAU10@@Z ; std::forward<std::_Container_base12 *>
PUBLIC	??$forward@AEBUPoint@@@std@@YAAEBUPoint@@AEBU1@@Z ; std::forward<Point const &>
PUBLIC	??$construct@UPoint@@AEBU1@@?$_Default_allocator_traits@V?$allocator@UPoint@@@std@@@std@@SAXAEAV?$allocator@UPoint@@@1@QEAUPoint@@AEBU3@@Z ; std::_Default_allocator_traits<std::allocator<Point> >::construct<Point,Point const &>
PUBLIC	??$_Allocate_manually_vector_aligned@U_Default_allocate_traits@std@@@std@@YAPEAX_K@Z ; std::_Allocate_manually_vector_aligned<std::_Default_allocate_traits>
PUBLIC	??$uninitialized_copy@PEAPEAUPoint@@PEAPEAU1@@std@@YAPEAPEAUPoint@@QEAPEAU1@0PEAPEAU1@@Z ; std::uninitialized_copy<Point * *,Point * *>
PUBLIC	??$_Uninitialized_value_construct_n_unchecked1@PEAPEAUPoint@@_K@std@@YAPEAPEAUPoint@@PEAPEAU1@_K@Z ; std::_Uninitialized_value_construct_n_unchecked1<Point * *,unsigned __int64>
PUBLIC	??$_Destroy_range@PEAPEAUPoint@@PEAPEAU1@@std@@YAXPEAPEAUPoint@@QEAPEAU1@@Z ; std::_Destroy_range<Point * *,Point * *>
PUBLIC	??$_Get_size_of_n@$07@std@@YA_K_K@Z		; std::_Get_size_of_n<8>
PUBLIC	?deallocate@?$_Default_allocator_traits@V?$allocator@U_Container_proxy@std@@@std@@@std@@SAXAEAV?$allocator@U_Container_proxy@std@@@2@QEAU_Container_proxy@2@_K@Z ; std::_Default_allocator_traits<std::allocator<std::_Container_proxy> >::deallocate
PUBLIC	??$_Voidify_iter@PEAUPoint@@@std@@YAPEAXPEAUPoint@@@Z ; std::_Voidify_iter<Point *>
PUBLIC	??$_Adl_verify_range@PEAPEAUPoint@@PEAPEAU1@@std@@YAXAEBQEAPEAUPoint@@0@Z ; std::_Adl_verify_range<Point * *,Point * *>
PUBLIC	??$_Get_unwrapped@AEBQEAPEAUPoint@@@std@@YA?A_TAEBQEAPEAUPoint@@@Z ; std::_Get_unwrapped<Point * * const &>
PUBLIC	??$_Idl_distance@PEAPEAUPoint@@PEAPEAU1@@std@@YA?A_PAEBQEAPEAUPoint@@0@Z ; std::_Idl_distance<Point * *,Point * *>
PUBLIC	??$_Get_unwrapped_n@AEAPEAPEAUPoint@@_J@std@@YA?A_TAEAPEAPEAUPoint@@_J@Z ; std::_Get_unwrapped_n<Point * * &,__int64>
PUBLIC	??$_Uninitialized_copy_unchecked@PEAPEAUPoint@@PEAPEAU1@@std@@YAPEAPEAUPoint@@PEAPEAU1@QEAPEAU1@0@Z ; std::_Uninitialized_copy_unchecked<Point * *,Point * *>
PUBLIC	??$_Seek_wrapped@PEAPEAUPoint@@PEAPEAU1@@std@@YAXAEAPEAPEAUPoint@@$$QEAPEAPEAU1@@Z ; std::_Seek_wrapped<Point * *,Point * *>
PUBLIC	??$_Zero_range@PEAPEAUPoint@@@std@@YAPEAPEAUPoint@@QEAPEAU1@0@Z ; std::_Zero_range<Point * *>
PUBLIC	??$_Verify_range@PEAUPoint@@@std@@YAXQEBQEAUPoint@@0@Z ; std::_Verify_range<Point *>
PUBLIC	??$_Copy_memmove@PEAPEAUPoint@@PEAPEAU1@@std@@YAPEAPEAUPoint@@PEAPEAU1@00@Z ; std::_Copy_memmove<Point * *,Point * *>
PUBLIC	??0?$_Uninitialized_backout@PEAPEAUPoint@@@std@@QEAA@PEAPEAUPoint@@@Z ; std::_Uninitialized_backout<Point * *>::_Uninitialized_backout<Point * *>
PUBLIC	??1?$_Uninitialized_backout@PEAPEAUPoint@@@std@@QEAA@XZ ; std::_Uninitialized_backout<Point * *>::~_Uninitialized_backout<Point * *>
PUBLIC	?_Release@?$_Uninitialized_backout@PEAPEAUPoint@@@std@@QEAAPEAPEAUPoint@@XZ ; std::_Uninitialized_backout<Point * *>::_Release
PUBLIC	??$_Emplace_back@AEAPEAUPoint@@@?$_Uninitialized_backout@PEAPEAUPoint@@@std@@QEAAXAEAPEAUPoint@@@Z ; std::_Uninitialized_backout<Point * *>::_Emplace_back<Point * &>
PUBLIC	??$forward@PEAPEAUPoint@@@std@@YA$$QEAPEAPEAUPoint@@AEAPEAPEAU1@@Z ; std::forward<Point * *>
PUBLIC	??$_To_address@PEAPEAUPoint@@@std@@YA?A_PAEBQEAPEAUPoint@@@Z ; std::_To_address<Point * *>
PUBLIC	??$forward@AEAPEAUPoint@@@std@@YAAEAPEAUPoint@@AEAPEAU1@@Z ; std::forward<Point * &>
PUBLIC	??$_Construct_in_place@PEAUPoint@@AEAPEAU1@@std@@YAXAEAPEAUPoint@@0@Z ; std::_Construct_in_place<Point *,Point * &>
PUBLIC	??$addressof@PEAUPoint@@@std@@YAPEAPEAUPoint@@AEAPEAU1@@Z ; std::addressof<Point *>
PUBLIC	??$_Voidify_iter@PEAPEAUPoint@@@std@@YAPEAXPEAPEAUPoint@@@Z ; std::_Voidify_iter<Point * *>
PUBLIC	??_7exception@std@@6B@				; std::exception::`vftable'
PUBLIC	??_C@_0BC@EOODALEL@Unknown?5exception@		; `string'
PUBLIC	??_7bad_alloc@std@@6B@				; std::bad_alloc::`vftable'
PUBLIC	??_7bad_array_new_length@std@@6B@		; std::bad_array_new_length::`vftable'
PUBLIC	??_C@_0BF@KINCDENJ@bad?5array?5new?5length@	; `string'
PUBLIC	_TI3?AVbad_array_new_length@std@@
PUBLIC	_CTA3?AVbad_array_new_length@std@@
PUBLIC	??_R0?AVbad_array_new_length@std@@@8		; std::bad_array_new_length `RTTI Type Descriptor'
PUBLIC	_CT??_R0?AVbad_array_new_length@std@@@8??0bad_array_new_length@std@@QEAA@AEBV01@@Z24
PUBLIC	??_R0?AVbad_alloc@std@@@8			; std::bad_alloc `RTTI Type Descriptor'
PUBLIC	_CT??_R0?AVbad_alloc@std@@@8??0bad_alloc@std@@QEAA@AEBV01@@Z24
PUBLIC	??_R0?AVexception@std@@@8			; std::exception `RTTI Type Descriptor'
PUBLIC	_CT??_R0?AVexception@std@@@8??0exception@std@@QEAA@AEBV01@@Z24
PUBLIC	??_C@_0BB@FCMFBGOM@invalid?5argument@		; `string'
PUBLIC	??_C@_02DKCKIIND@?$CFs@				; `string'
PUBLIC	??_C@_0GI@KDIDHNIL@C?3?2Program?5Files?5?$CIx86?$CJ?2Microsof@ ; `string'
PUBLIC	??_C@_1NA@FOAKNOEL@?$AAC?$AA?3?$AA?2?$AAP?$AAr?$AAo?$AAg?$AAr?$AAa?$AAm?$AA?5?$AAF?$AAi?$AAl?$AAe@ ; `string'
PUBLIC	??_C@_1EK@NIFDJFDG@?$AAs?$AAt?$AAd?$AA?3?$AA?3?$AA_?$AAA?$AAd?$AAj?$AAu?$AAs?$AAt?$AA_?$AAm?$AAa@ ; `string'
PUBLIC	??_C@_1CG@JNLFBNGN@?$AA?$CC?$AAi?$AAn?$AAv?$AAa?$AAl?$AAi?$AAd?$AA?5?$AAa?$AAr?$AAg?$AAu?$AAm?$AAe@ ; `string'
PUBLIC	??_C@_0BH@EDKEEENI@deque?5empty?5before?5pop@	; `string'
PUBLIC	??_C@_0GG@FDHPMGE@C?3?2Program?5Files?5?$CIx86?$CJ?2Microsof@ ; `string'
PUBLIC	??_C@_1MM@DPCANHAJ@?$AAC?$AA?3?$AA?2?$AAP?$AAr?$AAo?$AAg?$AAr?$AAa?$AAm?$AA?5?$AAF?$AAi?$AAl?$AAe@ ; `string'
PUBLIC	??_C@_1IO@OKBBHBKC@?$AAs?$AAt?$AAd?$AA?3?$AA?3?$AAd?$AAe?$AAq?$AAu?$AAe?$AA?$DM?$AAs?$AAt?$AAr?$AAu@ ; `string'
PUBLIC	??_C@_1DC@NJAACHCD@?$AA?$CC?$AAd?$AAe?$AAq?$AAu?$AAe?$AA?5?$AAe?$AAm?$AAp?$AAt?$AAy?$AA?5?$AAb?$AAe@ ; `string'
PUBLIC	??_C@_0BN@OLMACEKN@back?$CI?$CJ?5called?5on?5empty?5deque@ ; `string'
PUBLIC	??_C@_1IG@ELIEKPDP@?$AAs?$AAt?$AAd?$AA?3?$AA?3?$AAd?$AAe?$AAq?$AAu?$AAe?$AA?$DM?$AAs?$AAt?$AAr?$AAu@ ; `string'
PUBLIC	??_C@_1DO@OOAHKDGC@?$AA?$CC?$AAb?$AAa?$AAc?$AAk?$AA?$CI?$AA?$CJ?$AA?5?$AAc?$AAa?$AAl?$AAl?$AAe?$AAd?$AA?5@ ; `string'
PUBLIC	??_C@_0BC@KBDMBKEH@deque?$DMT?$DO?5too?5long@	; `string'
PUBLIC	??_C@_0BJ@HAJGEHKO@transposed?5pointer?5range@	; `string'
PUBLIC	??_C@_0GJ@LJDCNNIF@C?3?2Program?5Files?5?$CIx86?$CJ?2Microsof@ ; `string'
PUBLIC	??_C@_1NC@HPCGBKBF@?$AAC?$AA?3?$AA?2?$AAP?$AAr?$AAo?$AAg?$AAr?$AAa?$AAm?$AA?5?$AAF?$AAi?$AAl?$AAe@ ; `string'
PUBLIC	??_C@_1CG@LJCPDKEJ@?$AAs?$AAt?$AAd?$AA?3?$AA?3?$AA_?$AAV?$AAe?$AAr?$AAi?$AAf?$AAy?$AA_?$AAr?$AAa@ ; `string'
PUBLIC	??_C@_1DG@FJIKMGFD@?$AA?$CC?$AAt?$AAr?$AAa?$AAn?$AAs?$AAp?$AAo?$AAs?$AAe?$AAd?$AA?5?$AAp?$AAo?$AAi@ ; `string'
PUBLIC	??_R4exception@std@@6B@				; std::exception::`RTTI Complete Object Locator'
PUBLIC	??_R3exception@std@@8				; std::exception::`RTTI Class Hierarchy Descriptor'
PUBLIC	??_R2exception@std@@8				; std::exception::`RTTI Base Class Array'
PUBLIC	??_R1A@?0A@EA@exception@std@@8			; std::exception::`RTTI Base Class Descriptor at (0,-1,0,64)'
PUBLIC	??_R4bad_alloc@std@@6B@				; std::bad_alloc::`RTTI Complete Object Locator'
PUBLIC	??_R3bad_alloc@std@@8				; std::bad_alloc::`RTTI Class Hierarchy Descriptor'
PUBLIC	??_R2bad_alloc@std@@8				; std::bad_alloc::`RTTI Base Class Array'
PUBLIC	??_R1A@?0A@EA@bad_alloc@std@@8			; std::bad_alloc::`RTTI Base Class Descriptor at (0,-1,0,64)'
PUBLIC	??_R4bad_array_new_length@std@@6B@		; std::bad_array_new_length::`RTTI Complete Object Locator'
PUBLIC	??_R3bad_array_new_length@std@@8		; std::bad_array_new_length::`RTTI Class Hierarchy Descriptor'
PUBLIC	??_R2bad_array_new_length@std@@8		; std::bad_array_new_length::`RTTI Base Class Array'
PUBLIC	??_R1A@?0A@EA@bad_array_new_length@std@@8	; std::bad_array_new_length::`RTTI Base Class Descriptor at (0,-1,0,64)'
EXTRN	??2@YAPEAX_K@Z:PROC				; operator new
EXTRN	??3@YAXPEAX_K@Z:PROC				; operator delete
EXTRN	__imp__invalid_parameter:PROC
EXTRN	__imp_qsort:PROC
EXTRN	memmove:PROC
EXTRN	memset:PROC
EXTRN	__imp__CrtDbgReport:PROC
EXTRN	__imp_??0_Lockit@std@@QEAA@H@Z:PROC
EXTRN	__imp_??1_Lockit@std@@QEAA@XZ:PROC
EXTRN	?uncaught_exception@std@@YA_NXZ:PROC		; std::uncaught_exception
EXTRN	__std_exception_copy:PROC
EXTRN	__std_exception_destroy:PROC
EXTRN	??_Eexception@std@@UEAAPEAXI@Z:PROC		; std::exception::`vector deleting destructor'
EXTRN	??_Ebad_alloc@std@@UEAAPEAXI@Z:PROC		; std::bad_alloc::`vector deleting destructor'
EXTRN	??_Ebad_array_new_length@std@@UEAAPEAXI@Z:PROC	; std::bad_array_new_length::`vector deleting destructor'
EXTRN	strlen:PROC
EXTRN	?_Xlength_error@std@@YAXPEBD@Z:PROC		; std::_Xlength_error
EXTRN	__imp_?good@ios_base@std@@QEBA_NXZ:PROC
EXTRN	__imp_?flags@ios_base@std@@QEBAHXZ:PROC
EXTRN	__imp_?width@ios_base@std@@QEBA_JXZ:PROC
EXTRN	__imp_?width@ios_base@std@@QEAA_J_J@Z:PROC
EXTRN	__imp_?sputc@?$basic_streambuf@DU?$char_traits@D@std@@@std@@QEAAHD@Z:PROC
EXTRN	__imp_?sputn@?$basic_streambuf@DU?$char_traits@D@std@@@std@@QEAA_JPEBD_J@Z:PROC
EXTRN	__imp_?setstate@?$basic_ios@DU?$char_traits@D@std@@@std@@QEAAXH_N@Z:PROC
EXTRN	__imp_?tie@?$basic_ios@DU?$char_traits@D@std@@@std@@QEBAPEAV?$basic_ostream@DU?$char_traits@D@std@@@2@XZ:PROC
EXTRN	__imp_?rdbuf@?$basic_ios@DU?$char_traits@D@std@@@std@@QEBAPEAV?$basic_streambuf@DU?$char_traits@D@std@@@2@XZ:PROC
EXTRN	__imp_?fill@?$basic_ios@DU?$char_traits@D@std@@@std@@QEBADXZ:PROC
EXTRN	__imp_?widen@?$basic_ios@DU?$char_traits@D@std@@@std@@QEBADD@Z:PROC
EXTRN	__imp_?_Osfx@?$basic_ostream@DU?$char_traits@D@std@@@std@@QEAAXXZ:PROC
EXTRN	__imp_??6?$basic_ostream@DU?$char_traits@D@std@@@std@@QEAAAEAV01@P6AAEAV01@AEAV01@@Z@Z:PROC
EXTRN	__imp_??6?$basic_ostream@DU?$char_traits@D@std@@@std@@QEAAAEAV01@H@Z:PROC
EXTRN	__imp_?put@?$basic_ostream@DU?$char_traits@D@std@@@std@@QEAAAEAV12@D@Z:PROC
EXTRN	__imp_?flush@?$basic_ostream@DU?$char_traits@D@std@@@std@@QEAAAEAV12@XZ:PROC
EXTRN	_CxxThrowException:PROC
EXTRN	_RTC_CheckStackVars:PROC
EXTRN	_RTC_InitBase:PROC
EXTRN	_RTC_Shutdown:PROC
EXTRN	__CxxFrameHandler4:PROC
EXTRN	__GSHandlerCheck:PROC
EXTRN	__security_check_cookie:PROC
EXTRN	??_7type_info@@6B@:BYTE				; type_info::`vftable'
EXTRN	__imp_?cout@std@@3V?$basic_ostream@DU?$char_traits@D@std@@@1@A:BYTE
EXTRN	__security_cookie:QWORD
;	COMDAT pdata
pdata	SEGMENT
$pdata$?__empty_global_delete@@YAXPEAX@Z DD imagerel $LN3
	DD	imagerel $LN3+8
	DD	imagerel $unwind$?__empty_global_delete@@YAXPEAX@Z
pdata	ENDS
;	COMDAT pdata
pdata	SEGMENT
$pdata$?__empty_global_delete@@YAXPEAX_K@Z DD imagerel $LN3
	DD	imagerel $LN3+13
	DD	imagerel $unwind$?__empty_global_delete@@YAXPEAX_K@Z
pdata	ENDS
;	COMDAT pdata
pdata	SEGMENT
$pdata$?max@?$numeric_limits@_J@std@@SA_JXZ DD imagerel $LN3
	DD	imagerel $LN3+14
	DD	imagerel $unwind$?max@?$numeric_limits@_J@std@@SA_JXZ
pdata	ENDS
;	COMDAT pdata
pdata	SEGMENT
$pdata$??2@YAPEAX_KPEAX@Z DD imagerel $LN3
	DD	imagerel $LN3+18
	DD	imagerel $unwind$??2@YAPEAX_KPEAX@Z
pdata	ENDS
;	COMDAT pdata
pdata	SEGMENT
$pdata$??0exception@std@@QEAA@QEBDH@Z DD imagerel $LN3
	DD	imagerel $LN3+73
	DD	imagerel $unwind$??0exception@std@@QEAA@QEBDH@Z
pdata	ENDS
;	COMDAT pdata
pdata	SEGMENT
$pdata$??0exception@std@@QEAA@AEBV01@@Z DD imagerel $LN3
	DD	imagerel $LN3+88
	DD	imagerel $unwind$??0exception@std@@QEAA@AEBV01@@Z
pdata	ENDS
;	COMDAT pdata
pdata	SEGMENT
$pdata$??1exception@std@@UEAA@XZ DD imagerel $LN3
	DD	imagerel $LN3+48
	DD	imagerel $unwind$??1exception@std@@UEAA@XZ
pdata	ENDS
;	COMDAT pdata
pdata	SEGMENT
$pdata$?what@exception@std@@UEBAPEBDXZ DD imagerel $LN5
	DD	imagerel $LN5+58
	DD	imagerel $unwind$?what@exception@std@@UEBAPEBDXZ
pdata	ENDS
;	COMDAT pdata
pdata	SEGMENT
$pdata$??_Gexception@std@@UEAAPEAXI@Z DD imagerel $LN4
	DD	imagerel $LN4+61
	DD	imagerel $unwind$??_Gexception@std@@UEAAPEAXI@Z
pdata	ENDS
;	COMDAT pdata
pdata	SEGMENT
$pdata$??0bad_alloc@std@@AEAA@QEBD@Z DD imagerel $LN3
	DD	imagerel $LN3+62
	DD	imagerel $unwind$??0bad_alloc@std@@AEAA@QEBD@Z
pdata	ENDS
;	COMDAT pdata
pdata	SEGMENT
$pdata$??1bad_alloc@std@@UEAA@XZ DD imagerel $LN3
	DD	imagerel $LN3+26
	DD	imagerel $unwind$??1bad_alloc@std@@UEAA@XZ
pdata	ENDS
;	COMDAT pdata
pdata	SEGMENT
$pdata$??0bad_alloc@std@@QEAA@AEBV01@@Z DD imagerel $LN3
	DD	imagerel $LN3+56
	DD	imagerel $unwind$??0bad_alloc@std@@QEAA@AEBV01@@Z
pdata	ENDS
;	COMDAT pdata
pdata	SEGMENT
$pdata$??_Gbad_alloc@std@@UEAAPEAXI@Z DD imagerel $LN4
	DD	imagerel $LN4+61
	DD	imagerel $unwind$??_Gbad_alloc@std@@UEAAPEAXI@Z
pdata	ENDS
;	COMDAT pdata
pdata	SEGMENT
$pdata$??0bad_array_new_length@std@@QEAA@XZ DD imagerel $LN3
	DD	imagerel $LN3+53
	DD	imagerel $unwind$??0bad_array_new_length@std@@QEAA@XZ
pdata	ENDS
;	COMDAT pdata
pdata	SEGMENT
$pdata$??1bad_array_new_length@std@@UEAA@XZ DD imagerel $LN3
	DD	imagerel $LN3+26
	DD	imagerel $unwind$??1bad_array_new_length@std@@UEAA@XZ
pdata	ENDS
;	COMDAT pdata
pdata	SEGMENT
$pdata$??0bad_array_new_length@std@@QEAA@AEBV01@@Z DD imagerel $LN3
	DD	imagerel $LN3+56
	DD	imagerel $unwind$??0bad_array_new_length@std@@QEAA@AEBV01@@Z
pdata	ENDS
;	COMDAT pdata
pdata	SEGMENT
$pdata$??_Gbad_array_new_length@std@@UEAAPEAXI@Z DD imagerel $LN4
	DD	imagerel $LN4+61
	DD	imagerel $unwind$??_Gbad_array_new_length@std@@UEAAPEAXI@Z
pdata	ENDS
;	COMDAT pdata
pdata	SEGMENT
$pdata$?_Throw_bad_array_new_length@std@@YAXXZ DD imagerel $LN3
	DD	imagerel $LN3+39
	DD	imagerel $unwind$?_Throw_bad_array_new_length@std@@YAXXZ
pdata	ENDS
;	COMDAT pdata
pdata	SEGMENT
$pdata$?_Allocate@_Default_allocate_traits@std@@SAPEAX_K@Z DD imagerel $LN3
	DD	imagerel $LN3+26
	DD	imagerel $unwind$?_Allocate@_Default_allocate_traits@std@@SAPEAX_K@Z
pdata	ENDS
;	COMDAT pdata
pdata	SEGMENT
$pdata$?_Adjust_manually_vector_aligned@std@@YAXAEAPEAXAEA_K@Z DD imagerel $LN21
	DD	imagerel $LN21+404
	DD	imagerel $unwind$?_Adjust_manually_vector_aligned@std@@YAXAEAPEAXAEA_K@Z
pdata	ENDS
;	COMDAT pdata
pdata	SEGMENT
$pdata$??0_Container_proxy@std@@QEAA@PEAU_Container_base12@1@@Z DD imagerel $LN3
	DD	imagerel $LN3+44
	DD	imagerel $unwind$??0_Container_proxy@std@@QEAA@PEAU_Container_base12@1@@Z
pdata	ENDS
;	COMDAT pdata
pdata	SEGMENT
$pdata$??0_Container_base12@std@@QEAA@XZ DD imagerel $LN3
	DD	imagerel $LN3+25
	DD	imagerel $unwind$??0_Container_base12@std@@QEAA@XZ
pdata	ENDS
;	COMDAT pdata
pdata	SEGMENT
$pdata$?_Orphan_all@_Container_base12@std@@QEAAXXZ DD imagerel $LN4
	DD	imagerel $LN4+37
	DD	imagerel $unwind$?_Orphan_all@_Container_base12@std@@QEAAXXZ
pdata	ENDS
;	COMDAT pdata
pdata	SEGMENT
$pdata$?_Orphan_all_unlocked@_Container_base12@std@@AEAAXXZ DD imagerel $LN6
	DD	imagerel $LN6+94
	DD	imagerel $unwind$?_Orphan_all_unlocked@_Container_base12@std@@AEAAXXZ
pdata	ENDS
;	COMDAT pdata
pdata	SEGMENT
$pdata$?_Orphan_all_locked@_Container_base12@std@@AEAAXXZ DD imagerel $LN3
	DD	imagerel $LN3+90
	DD	imagerel $unwind$?_Orphan_all_locked@_Container_base12@std@@AEAAXXZ
pdata	ENDS
;	COMDAT pdata
pdata	SEGMENT
$pdata$??0Cmathlibrary@@QEAA@XZ DD imagerel $LN3
	DD	imagerel $LN3+13
	DD	imagerel $unwind$??0Cmathlibrary@@QEAA@XZ
pdata	ENDS
pdata	SEGMENT
$pdata$?calc_convex_hull@Cmathlibrary@@QEAAHXZ DD imagerel $LN3
	DD	imagerel $LN3+261
	DD	imagerel $unwind$?calc_convex_hull@Cmathlibrary@@QEAAHXZ
$pdata$?nextToTop@Cmathlibrary@@AEAA?AUPoint@@AEAV?$stack@UPoint@@V?$deque@UPoint@@V?$allocator@UPoint@@@std@@@std@@@std@@@Z DD imagerel $LN3
	DD	imagerel $LN3+171
	DD	imagerel $unwind$?nextToTop@Cmathlibrary@@AEAA?AUPoint@@AEAV?$stack@UPoint@@V?$deque@UPoint@@V?$allocator@UPoint@@@std@@@std@@@std@@@Z
$pdata$?swap@Cmathlibrary@@AEAAXAEAUPoint@@0@Z DD imagerel $LN3
	DD	imagerel $LN3+105
	DD	imagerel $unwind$?swap@Cmathlibrary@@AEAAXAEAUPoint@@0@Z
$pdata$?convexHull@Cmathlibrary@@AEAAXQEAUPoint@@H@Z DD imagerel $LN22
	DD	imagerel $LN22+1061
	DD	imagerel $unwind$?convexHull@Cmathlibrary@@AEAAXQEAUPoint@@H@Z
pdata	ENDS
pdata	SEGMENT
$pdata$?dtor$0@?0??convexHull@Cmathlibrary@@AEAAXQEAUPoint@@H@Z@4HA DD imagerel ?dtor$0@?0??convexHull@Cmathlibrary@@AEAAXQEAUPoint@@H@Z@4HA
	DD	imagerel ?dtor$0@?0??convexHull@Cmathlibrary@@AEAAXQEAUPoint@@H@Z@4HA+35
	DD	imagerel $unwind$?dtor$0@?0??convexHull@Cmathlibrary@@AEAAXQEAUPoint@@H@Z@4HA
pdata	ENDS
;	COMDAT pdata
pdata	SEGMENT
$pdata$??4Cmathlibrary@@QEAAAEAV0@AEBV0@@Z DD imagerel $LN3
	DD	imagerel $LN3+18
	DD	imagerel $unwind$??4Cmathlibrary@@QEAAAEAV0@AEBV0@@Z
pdata	ENDS
;	COMDAT pdata
pdata	SEGMENT
$pdata$??4Cmathlibrary@@QEAAAEAV0@$$QEAV0@@Z DD imagerel $LN3
	DD	imagerel $LN3+18
	DD	imagerel $unwind$??4Cmathlibrary@@QEAAAEAV0@$$QEAV0@@Z
pdata	ENDS
;	COMDAT pdata
pdata	SEGMENT
$pdata$?length@?$_Narrow_char_traits@DH@std@@SA_KQEBD@Z DD imagerel $LN3
	DD	imagerel $LN3+26
	DD	imagerel $unwind$?length@?$_Narrow_char_traits@DH@std@@SA_KQEBD@Z
pdata	ENDS
;	COMDAT pdata
pdata	SEGMENT
$pdata$?eq_int_type@?$_Narrow_char_traits@DH@std@@SA_NAEBH0@Z DD imagerel $LN5
	DD	imagerel $LN5+57
	DD	imagerel $unwind$?eq_int_type@?$_Narrow_char_traits@DH@std@@SA_NAEBH0@Z
pdata	ENDS
;	COMDAT pdata
pdata	SEGMENT
$pdata$?eof@?$_Narrow_char_traits@DH@std@@SAHXZ DD imagerel $LN3
	DD	imagerel $LN3+9
	DD	imagerel $unwind$?eof@?$_Narrow_char_traits@DH@std@@SAHXZ
pdata	ENDS
;	COMDAT pdata
pdata	SEGMENT
$pdata$??0?$allocator@UPoint@@@std@@QEAA@XZ DD imagerel $LN3
	DD	imagerel $LN3+13
	DD	imagerel $unwind$??0?$allocator@UPoint@@@std@@QEAA@XZ
pdata	ENDS
;	COMDAT pdata
pdata	SEGMENT
$pdata$?deallocate@?$allocator@UPoint@@@std@@QEAAXQEAUPoint@@_K@Z DD imagerel $LN3
	DD	imagerel $LN3+48
	DD	imagerel $unwind$?deallocate@?$allocator@UPoint@@@std@@QEAAXQEAUPoint@@_K@Z
pdata	ENDS
;	COMDAT pdata
pdata	SEGMENT
$pdata$?allocate@?$allocator@UPoint@@@std@@QEAAPEAUPoint@@_K@Z DD imagerel $LN3
	DD	imagerel $LN3+39
	DD	imagerel $unwind$?allocate@?$allocator@UPoint@@@std@@QEAAPEAUPoint@@_K@Z
pdata	ENDS
;	COMDAT pdata
pdata	SEGMENT
$pdata$?max_size@?$_Default_allocator_traits@V?$allocator@UPoint@@@std@@@std@@SA_KAEBV?$allocator@UPoint@@@2@@Z DD imagerel $LN3
	DD	imagerel $LN3+18
	DD	imagerel $unwind$?max_size@?$_Default_allocator_traits@V?$allocator@UPoint@@@std@@@std@@SA_KAEBV?$allocator@UPoint@@@2@@Z
pdata	ENDS
;	COMDAT pdata
pdata	SEGMENT
$pdata$?deallocate@?$allocator@PEAUPoint@@@std@@QEAAXQEAPEAUPoint@@_K@Z DD imagerel $LN3
	DD	imagerel $LN3+48
	DD	imagerel $unwind$?deallocate@?$allocator@PEAUPoint@@@std@@QEAAXQEAPEAUPoint@@_K@Z
pdata	ENDS
;	COMDAT pdata
pdata	SEGMENT
$pdata$?allocate@?$allocator@PEAUPoint@@@std@@QEAAPEAPEAUPoint@@_K@Z DD imagerel $LN3
	DD	imagerel $LN3+39
	DD	imagerel $unwind$?allocate@?$allocator@PEAUPoint@@@std@@QEAAPEAPEAUPoint@@_K@Z
pdata	ENDS
;	COMDAT pdata
pdata	SEGMENT
$pdata$??0?$_Deque_val@U?$_Deque_simple_types@UPoint@@@std@@@std@@QEAA@XZ DD imagerel $LN3
	DD	imagerel $LN3+83
	DD	imagerel $unwind$??0?$_Deque_val@U?$_Deque_simple_types@UPoint@@@std@@@std@@QEAA@XZ
pdata	ENDS
;	COMDAT pdata
pdata	SEGMENT
$pdata$?_Getblock@?$_Deque_val@U?$_Deque_simple_types@UPoint@@@std@@@std@@QEBA_K_K@Z DD imagerel $LN3
	DD	imagerel $LN3+43
	DD	imagerel $unwind$?_Getblock@?$_Deque_val@U?$_Deque_simple_types@UPoint@@@std@@@std@@QEBA_K_K@Z
pdata	ENDS
;	COMDAT pdata
pdata	SEGMENT
$pdata$??0?$deque@UPoint@@V?$allocator@UPoint@@@std@@@std@@QEAA@XZ DD imagerel $LN3
	DD	imagerel $LN3+93
	DD	imagerel $unwind$??0?$deque@UPoint@@V?$allocator@UPoint@@@std@@@std@@QEAA@XZ
pdata	ENDS
;	COMDAT pdata
pdata	SEGMENT
$pdata$??1?$deque@UPoint@@V?$allocator@UPoint@@@std@@@std@@QEAA@XZ DD imagerel $LN3
	DD	imagerel $LN3+131
	DD	imagerel $unwind$??1?$deque@UPoint@@V?$allocator@UPoint@@@std@@@std@@QEAA@XZ
pdata	ENDS
;	COMDAT pdata
pdata	SEGMENT
$pdata$?_Unchecked_end@?$deque@UPoint@@V?$allocator@UPoint@@@std@@@std@@QEAA?AV?$_Deque_unchecked_iterator@V?$_Deque_val@U?$_Deque_simple_types@UPoint@@@std@@@std@@@2@XZ DD imagerel $LN3
	DD	imagerel $LN3+109
	DD	imagerel $unwind$?_Unchecked_end@?$deque@UPoint@@V?$allocator@UPoint@@@std@@@std@@QEAA?AV?$_Deque_unchecked_iterator@V?$_Deque_val@U?$_Deque_simple_types@UPoint@@@std@@@std@@@2@XZ
pdata	ENDS
;	COMDAT pdata
pdata	SEGMENT
$pdata$?size@?$deque@UPoint@@V?$allocator@UPoint@@@std@@@std@@QEBA_KXZ DD imagerel $LN3
	DD	imagerel $LN3+29
	DD	imagerel $unwind$?size@?$deque@UPoint@@V?$allocator@UPoint@@@std@@@std@@QEBA_KXZ
pdata	ENDS
;	COMDAT pdata
pdata	SEGMENT
$pdata$?max_size@?$deque@UPoint@@V?$allocator@UPoint@@@std@@@std@@QEBA_KXZ DD imagerel $LN3
	DD	imagerel $LN3+67
	DD	imagerel $unwind$?max_size@?$deque@UPoint@@V?$allocator@UPoint@@@std@@@std@@QEBA_KXZ
pdata	ENDS
;	COMDAT pdata
pdata	SEGMENT
$pdata$?empty@?$deque@UPoint@@V?$allocator@UPoint@@@std@@@std@@QEBA_NXZ DD imagerel $LN5
	DD	imagerel $LN5+55
	DD	imagerel $unwind$?empty@?$deque@UPoint@@V?$allocator@UPoint@@@std@@@std@@QEBA_NXZ
pdata	ENDS
;	COMDAT pdata
pdata	SEGMENT
$pdata$?back@?$deque@UPoint@@V?$allocator@UPoint@@@std@@@std@@QEAAAEAUPoint@@XZ DD imagerel $LN12
	DD	imagerel $LN12+217
	DD	imagerel $unwind$?back@?$deque@UPoint@@V?$allocator@UPoint@@@std@@@std@@QEAAAEAUPoint@@XZ
pdata	ENDS
;	COMDAT pdata
pdata	SEGMENT
$pdata$?push_back@?$deque@UPoint@@V?$allocator@UPoint@@@std@@@std@@QEAAXAEBUPoint@@@Z DD imagerel $LN3
	DD	imagerel $LN3+46
	DD	imagerel $unwind$?push_back@?$deque@UPoint@@V?$allocator@UPoint@@@std@@@std@@QEAAXAEBUPoint@@@Z
pdata	ENDS
;	COMDAT pdata
pdata	SEGMENT
$pdata$?pop_back@?$deque@UPoint@@V?$allocator@UPoint@@@std@@@std@@QEAAXXZ DD imagerel $LN10
	DD	imagerel $LN10+381
	DD	imagerel $unwind$?pop_back@?$deque@UPoint@@V?$allocator@UPoint@@@std@@@std@@QEAAXXZ
pdata	ENDS
;	COMDAT pdata
pdata	SEGMENT
$pdata$?_Xlen@?$deque@UPoint@@V?$allocator@UPoint@@@std@@@std@@AEBAXXZ DD imagerel $LN3
	DD	imagerel $LN3+28
	DD	imagerel $unwind$?_Xlen@?$deque@UPoint@@V?$allocator@UPoint@@@std@@@std@@AEBAXXZ
pdata	ENDS
;	COMDAT pdata
pdata	SEGMENT
$pdata$?_Growmap@?$deque@UPoint@@V?$allocator@UPoint@@@std@@@std@@AEAAX_K@Z DD imagerel $LN12
	DD	imagerel $LN12+1055
	DD	imagerel $unwind$?_Growmap@?$deque@UPoint@@V?$allocator@UPoint@@@std@@@std@@AEAAX_K@Z
pdata	ENDS
;	COMDAT pdata
pdata	SEGMENT
$pdata$?_Tidy@?$deque@UPoint@@V?$allocator@UPoint@@@std@@@std@@AEAAXXZ DD imagerel $LN10
	DD	imagerel $LN10+371
	DD	imagerel $unwind$?_Tidy@?$deque@UPoint@@V?$allocator@UPoint@@@std@@@std@@AEAAXXZ
pdata	ENDS
;	COMDAT pdata
pdata	SEGMENT
$pdata$?_Orphan_off@?$deque@UPoint@@V?$allocator@UPoint@@@std@@@std@@AEBAX_K@Z DD imagerel $LN11
	DD	imagerel $LN11+357
	DD	imagerel $unwind$?_Orphan_off@?$deque@UPoint@@V?$allocator@UPoint@@@std@@@std@@AEBAX_K@Z
pdata	ENDS
;	COMDAT pdata
pdata	SEGMENT
$pdata$?_Getblock@?$deque@UPoint@@V?$allocator@UPoint@@@std@@@std@@AEBA_K_K@Z DD imagerel $LN3
	DD	imagerel $LN3+44
	DD	imagerel $unwind$?_Getblock@?$deque@UPoint@@V?$allocator@UPoint@@@std@@@std@@AEBA_K_K@Z
pdata	ENDS
;	COMDAT pdata
pdata	SEGMENT
$pdata$?_Orphan_all@?$deque@UPoint@@V?$allocator@UPoint@@@std@@@std@@AEAAXXZ DD imagerel $LN3
	DD	imagerel $LN3+34
	DD	imagerel $unwind$?_Orphan_all@?$deque@UPoint@@V?$allocator@UPoint@@@std@@@std@@AEAAXXZ
pdata	ENDS
;	COMDAT pdata
pdata	SEGMENT
$pdata$?_Getal@?$deque@UPoint@@V?$allocator@UPoint@@@std@@@std@@AEAAAEAV?$allocator@UPoint@@@2@XZ DD imagerel $LN3
	DD	imagerel $LN3+29
	DD	imagerel $unwind$?_Getal@?$deque@UPoint@@V?$allocator@UPoint@@@std@@@std@@AEAAAEAV?$allocator@UPoint@@@2@XZ
pdata	ENDS
;	COMDAT pdata
pdata	SEGMENT
$pdata$?_Getal@?$deque@UPoint@@V?$allocator@UPoint@@@std@@@std@@AEBAAEBV?$allocator@UPoint@@@2@XZ DD imagerel $LN3
	DD	imagerel $LN3+29
	DD	imagerel $unwind$?_Getal@?$deque@UPoint@@V?$allocator@UPoint@@@std@@@std@@AEBAAEBV?$allocator@UPoint@@@2@XZ
pdata	ENDS
;	COMDAT pdata
pdata	SEGMENT
$pdata$?_Get_data@?$deque@UPoint@@V?$allocator@UPoint@@@std@@@std@@AEAAAEAV?$_Deque_val@U?$_Deque_simple_types@UPoint@@@std@@@2@XZ DD imagerel $LN3
	DD	imagerel $LN3+13
	DD	imagerel $unwind$?_Get_data@?$deque@UPoint@@V?$allocator@UPoint@@@std@@@std@@AEAAAEAV?$_Deque_val@U?$_Deque_simple_types@UPoint@@@std@@@2@XZ
pdata	ENDS
;	COMDAT pdata
pdata	SEGMENT
$pdata$?_Get_data@?$deque@UPoint@@V?$allocator@UPoint@@@std@@@std@@AEBAAEBV?$_Deque_val@U?$_Deque_simple_types@UPoint@@@std@@@2@XZ DD imagerel $LN3
	DD	imagerel $LN3+13
	DD	imagerel $unwind$?_Get_data@?$deque@UPoint@@V?$allocator@UPoint@@@std@@@std@@AEBAAEBV?$_Deque_val@U?$_Deque_simple_types@UPoint@@@std@@@2@XZ
pdata	ENDS
;	COMDAT pdata
pdata	SEGMENT
$pdata$?_Map@?$deque@UPoint@@V?$allocator@UPoint@@@std@@@std@@AEAAAEAPEAPEAUPoint@@XZ DD imagerel $LN3
	DD	imagerel $LN3+30
	DD	imagerel $unwind$?_Map@?$deque@UPoint@@V?$allocator@UPoint@@@std@@@std@@AEAAAEAPEAPEAUPoint@@XZ
pdata	ENDS
;	COMDAT pdata
pdata	SEGMENT
$pdata$?_Mapsize@?$deque@UPoint@@V?$allocator@UPoint@@@std@@@std@@AEAAAEA_KXZ DD imagerel $LN3
	DD	imagerel $LN3+30
	DD	imagerel $unwind$?_Mapsize@?$deque@UPoint@@V?$allocator@UPoint@@@std@@@std@@AEAAAEA_KXZ
pdata	ENDS
;	COMDAT pdata
pdata	SEGMENT
$pdata$?_Myoff@?$deque@UPoint@@V?$allocator@UPoint@@@std@@@std@@AEAAAEA_KXZ DD imagerel $LN3
	DD	imagerel $LN3+30
	DD	imagerel $unwind$?_Myoff@?$deque@UPoint@@V?$allocator@UPoint@@@std@@@std@@AEAAAEA_KXZ
pdata	ENDS
;	COMDAT pdata
pdata	SEGMENT
$pdata$?_Myoff@?$deque@UPoint@@V?$allocator@UPoint@@@std@@@std@@AEBAAEB_KXZ DD imagerel $LN3
	DD	imagerel $LN3+30
	DD	imagerel $unwind$?_Myoff@?$deque@UPoint@@V?$allocator@UPoint@@@std@@@std@@AEBAAEB_KXZ
pdata	ENDS
;	COMDAT pdata
pdata	SEGMENT
$pdata$?_Mysize@?$deque@UPoint@@V?$allocator@UPoint@@@std@@@std@@AEAAAEA_KXZ DD imagerel $LN3
	DD	imagerel $LN3+30
	DD	imagerel $unwind$?_Mysize@?$deque@UPoint@@V?$allocator@UPoint@@@std@@@std@@AEAAAEA_KXZ
pdata	ENDS
;	COMDAT pdata
pdata	SEGMENT
$pdata$?_Mysize@?$deque@UPoint@@V?$allocator@UPoint@@@std@@@std@@AEBAAEB_KXZ DD imagerel $LN3
	DD	imagerel $LN3+30
	DD	imagerel $unwind$?_Mysize@?$deque@UPoint@@V?$allocator@UPoint@@@std@@@std@@AEBAAEB_KXZ
pdata	ENDS
;	COMDAT pdata
pdata	SEGMENT
$pdata$?_Get_first@?$_Compressed_pair@V?$allocator@UPoint@@@std@@V?$_Deque_val@U?$_Deque_simple_types@UPoint@@@std@@@2@$00@std@@QEAAAEAV?$allocator@UPoint@@@2@XZ DD imagerel $LN3
	DD	imagerel $LN3+13
	DD	imagerel $unwind$?_Get_first@?$_Compressed_pair@V?$allocator@UPoint@@@std@@V?$_Deque_val@U?$_Deque_simple_types@UPoint@@@std@@@2@$00@std@@QEAAAEAV?$allocator@UPoint@@@2@XZ
pdata	ENDS
;	COMDAT pdata
pdata	SEGMENT
$pdata$?_Get_first@?$_Compressed_pair@V?$allocator@UPoint@@@std@@V?$_Deque_val@U?$_Deque_simple_types@UPoint@@@std@@@2@$00@std@@QEBAAEBV?$allocator@UPoint@@@2@XZ DD imagerel $LN3
	DD	imagerel $LN3+13
	DD	imagerel $unwind$?_Get_first@?$_Compressed_pair@V?$allocator@UPoint@@@std@@V?$_Deque_val@U?$_Deque_simple_types@UPoint@@@std@@@2@$00@std@@QEBAAEBV?$allocator@UPoint@@@2@XZ
pdata	ENDS
;	COMDAT pdata
pdata	SEGMENT
$pdata$??0?$stack@UPoint@@V?$deque@UPoint@@V?$allocator@UPoint@@@std@@@std@@@std@@QEAA@XZ DD imagerel $LN3
	DD	imagerel $LN3+34
	DD	imagerel $unwind$??0?$stack@UPoint@@V?$deque@UPoint@@V?$allocator@UPoint@@@std@@@std@@@std@@QEAA@XZ
pdata	ENDS
;	COMDAT pdata
pdata	SEGMENT
$pdata$?empty@?$stack@UPoint@@V?$deque@UPoint@@V?$allocator@UPoint@@@std@@@std@@@std@@QEBA_NXZ DD imagerel $LN3
	DD	imagerel $LN3+29
	DD	imagerel $unwind$?empty@?$stack@UPoint@@V?$deque@UPoint@@V?$allocator@UPoint@@@std@@@std@@@std@@QEBA_NXZ
pdata	ENDS
;	COMDAT pdata
pdata	SEGMENT
$pdata$?size@?$stack@UPoint@@V?$deque@UPoint@@V?$allocator@UPoint@@@std@@@std@@@std@@QEBA_KXZ DD imagerel $LN3
	DD	imagerel $LN3+29
	DD	imagerel $unwind$?size@?$stack@UPoint@@V?$deque@UPoint@@V?$allocator@UPoint@@@std@@@std@@@std@@QEBA_KXZ
pdata	ENDS
;	COMDAT pdata
pdata	SEGMENT
$pdata$?top@?$stack@UPoint@@V?$deque@UPoint@@V?$allocator@UPoint@@@std@@@std@@@std@@QEAAAEAUPoint@@XZ DD imagerel $LN3
	DD	imagerel $LN3+29
	DD	imagerel $unwind$?top@?$stack@UPoint@@V?$deque@UPoint@@V?$allocator@UPoint@@@std@@@std@@@std@@QEAAAEAUPoint@@XZ
pdata	ENDS
;	COMDAT pdata
pdata	SEGMENT
$pdata$?push@?$stack@UPoint@@V?$deque@UPoint@@V?$allocator@UPoint@@@std@@@std@@@std@@QEAAXAEBUPoint@@@Z DD imagerel $LN3
	DD	imagerel $LN3+39
	DD	imagerel $unwind$?push@?$stack@UPoint@@V?$deque@UPoint@@V?$allocator@UPoint@@@std@@@std@@@std@@QEAAXAEBUPoint@@@Z
pdata	ENDS
;	COMDAT pdata
pdata	SEGMENT
$pdata$?pop@?$stack@UPoint@@V?$deque@UPoint@@V?$allocator@UPoint@@@std@@@std@@@std@@QEAAXXZ DD imagerel $LN3
	DD	imagerel $LN3+29
	DD	imagerel $unwind$?pop@?$stack@UPoint@@V?$deque@UPoint@@V?$allocator@UPoint@@@std@@@std@@@std@@QEAAXXZ
pdata	ENDS
;	COMDAT pdata
pdata	SEGMENT
$pdata$??1?$stack@UPoint@@V?$deque@UPoint@@V?$allocator@UPoint@@@std@@@std@@@std@@QEAA@XZ DD imagerel $LN3
	DD	imagerel $LN3+29
	DD	imagerel $unwind$??1?$stack@UPoint@@V?$deque@UPoint@@V?$allocator@UPoint@@@std@@@std@@@std@@QEAA@XZ
pdata	ENDS
pdata	SEGMENT
$pdata$?distSq@@YAHUPoint@@0@Z DD imagerel $LN3
	DD	imagerel $LN3+72
	DD	imagerel $unwind$?distSq@@YAHUPoint@@0@Z
$pdata$?orientation@@YAHUPoint@@00@Z DD imagerel $LN6
	DD	imagerel $LN6+126
	DD	imagerel $unwind$?orientation@@YAHUPoint@@00@Z
$pdata$?compare@@YAHPEBX0@Z DD imagerel $LN8
	DD	imagerel $LN8+185
	DD	imagerel $unwind$?compare@@YAHPEBX0@Z
pdata	ENDS
;	COMDAT pdata
pdata	SEGMENT
$pdata$??$?6U?$char_traits@D@std@@@std@@YAAEAV?$basic_ostream@DU?$char_traits@D@std@@@0@AEAV10@PEBD@Z DD imagerel $LN25
	DD	imagerel $LN25+1038
	DD	imagerel $unwind$??$?6U?$char_traits@D@std@@@std@@YAAEAV?$basic_ostream@DU?$char_traits@D@std@@@0@AEAV10@PEBD@Z
pdata	ENDS
;	COMDAT pdata
pdata	SEGMENT
$pdata$?dtor$0@?0???$?6U?$char_traits@D@std@@@std@@YAAEAV?$basic_ostream@DU?$char_traits@D@std@@@0@AEAV10@PEBD@Z@4HA DD imagerel ?dtor$0@?0???$?6U?$char_traits@D@std@@@std@@YAAEAV?$basic_ostream@DU?$char_traits@D@std@@@0@AEAV10@PEBD@Z@4HA
	DD	imagerel ?dtor$0@?0???$?6U?$char_traits@D@std@@@std@@YAAEAV?$basic_ostream@DU?$char_traits@D@std@@@0@AEAV10@PEBD@Z@4HA+35
	DD	imagerel $unwind$?dtor$0@?0???$?6U?$char_traits@D@std@@@std@@YAAEAV?$basic_ostream@DU?$char_traits@D@std@@@0@AEAV10@PEBD@Z@4HA
pdata	ENDS
;	COMDAT pdata
pdata	SEGMENT
$pdata$?catch$1@?0???$?6U?$char_traits@D@std@@@std@@YAAEAV?$basic_ostream@DU?$char_traits@D@std@@@0@AEAV10@PEBD@Z@4HA DD imagerel ?catch$1@?0???$?6U?$char_traits@D@std@@@std@@YAAEAV?$basic_ostream@DU?$char_traits@D@std@@@0@AEAV10@PEBD@Z@4HA
	DD	imagerel ?catch$1@?0???$?6U?$char_traits@D@std@@@std@@YAAEAV?$basic_ostream@DU?$char_traits@D@std@@@0@AEAV10@PEBD@Z@4HA+79
	DD	imagerel $unwind$?catch$1@?0???$?6U?$char_traits@D@std@@@std@@YAAEAV?$basic_ostream@DU?$char_traits@D@std@@@0@AEAV10@PEBD@Z@4HA
pdata	ENDS
;	COMDAT pdata
pdata	SEGMENT
$pdata$??$endl@DU?$char_traits@D@std@@@std@@YAAEAV?$basic_ostream@DU?$char_traits@D@std@@@0@AEAV10@@Z DD imagerel $LN3
	DD	imagerel $LN3+80
	DD	imagerel $unwind$??$endl@DU?$char_traits@D@std@@@std@@YAAEAV?$basic_ostream@DU?$char_traits@D@std@@@0@AEAV10@@Z
pdata	ENDS
;	COMDAT pdata
pdata	SEGMENT
$pdata$?allocate@?$allocator@U_Container_proxy@std@@@std@@QEAAPEAU_Container_proxy@2@_K@Z DD imagerel $LN3
	DD	imagerel $LN3+39
	DD	imagerel $unwind$?allocate@?$allocator@U_Container_proxy@std@@@std@@QEAAPEAU_Container_proxy@2@_K@Z
pdata	ENDS
;	COMDAT pdata
pdata	SEGMENT
$pdata$??$?0UPoint@@@?$allocator@U_Container_proxy@std@@@std@@QEAA@AEBV?$allocator@UPoint@@@1@@Z DD imagerel $LN3
	DD	imagerel $LN3+18
	DD	imagerel $unwind$??$?0UPoint@@@?$allocator@U_Container_proxy@std@@@std@@QEAA@AEBV?$allocator@UPoint@@@1@@Z
pdata	ENDS
;	COMDAT pdata
pdata	SEGMENT
$pdata$??$exchange@PEAU_Container_proxy@std@@$$T@std@@YAPEAU_Container_proxy@0@AEAPEAU10@$$QEA$$T@Z DD imagerel $LN3
	DD	imagerel $LN3+53
	DD	imagerel $unwind$??$exchange@PEAU_Container_proxy@std@@$$T@std@@YAPEAU_Container_proxy@0@AEAPEAU10@$$QEA$$T@Z
pdata	ENDS
;	COMDAT pdata
pdata	SEGMENT
$pdata$??$_Delete_plain_internal@V?$allocator@U_Container_proxy@std@@@std@@@std@@YAXAEAV?$allocator@U_Container_proxy@std@@@0@QEAU_Container_proxy@0@@Z DD imagerel $LN3
	DD	imagerel $LN3+36
	DD	imagerel $unwind$??$_Delete_plain_internal@V?$allocator@U_Container_proxy@std@@@std@@@std@@YAXAEAV?$allocator@U_Container_proxy@std@@@0@QEAU_Container_proxy@0@@Z
pdata	ENDS
;	COMDAT pdata
pdata	SEGMENT
$pdata$??$?0$$V@?$_Compressed_pair@V?$allocator@UPoint@@@std@@V?$_Deque_val@U?$_Deque_simple_types@UPoint@@@std@@@2@$00@std@@QEAA@U_Zero_then_variadic_args_t@1@@Z DD imagerel $LN3
	DD	imagerel $LN3+48
	DD	imagerel $unwind$??$?0$$V@?$_Compressed_pair@V?$allocator@UPoint@@@std@@V?$_Deque_val@U?$_Deque_simple_types@UPoint@@@std@@@2@$00@std@@QEAA@U_Zero_then_variadic_args_t@1@@Z
pdata	ENDS
;	COMDAT pdata
pdata	SEGMENT
$pdata$??$_Alloc_proxy@V?$allocator@U_Container_proxy@std@@@std@@@_Container_base12@std@@QEAAX$$QEAV?$allocator@U_Container_proxy@std@@@1@@Z DD imagerel $LN3
	DD	imagerel $LN3+100
	DD	imagerel $unwind$??$_Alloc_proxy@V?$allocator@U_Container_proxy@std@@@std@@@_Container_base12@std@@QEAAX$$QEAV?$allocator@U_Container_proxy@std@@@1@@Z
pdata	ENDS
;	COMDAT pdata
pdata	SEGMENT
$pdata$??0_Sentry_base@?$basic_ostream@DU?$char_traits@D@std@@@std@@QEAA@AEAV12@@Z DD imagerel $LN4
	DD	imagerel $LN4+113
	DD	imagerel $unwind$??0_Sentry_base@?$basic_ostream@DU?$char_traits@D@std@@@std@@QEAA@AEAV12@@Z
pdata	ENDS
;	COMDAT pdata
pdata	SEGMENT
$pdata$??1_Sentry_base@?$basic_ostream@DU?$char_traits@D@std@@@std@@QEAA@XZ DD imagerel $LN4
	DD	imagerel $LN4+91
	DD	imagerel $unwind$??1_Sentry_base@?$basic_ostream@DU?$char_traits@D@std@@@std@@QEAA@XZ
pdata	ENDS
;	COMDAT pdata
pdata	SEGMENT
$pdata$??0sentry@?$basic_ostream@DU?$char_traits@D@std@@@std@@QEAA@AEAV12@@Z DD imagerel $LN7
	DD	imagerel $LN7+211
	DD	imagerel $unwind$??0sentry@?$basic_ostream@DU?$char_traits@D@std@@@std@@QEAA@AEAV12@@Z
pdata	ENDS
;	COMDAT pdata
pdata	SEGMENT
$pdata$?dtor$0@?0???0sentry@?$basic_ostream@DU?$char_traits@D@std@@@std@@QEAA@AEAV12@@Z@4HA DD imagerel ?dtor$0@?0???0sentry@?$basic_ostream@DU?$char_traits@D@std@@@std@@QEAA@AEAV12@@Z@4HA
	DD	imagerel ?dtor$0@?0???0sentry@?$basic_ostream@DU?$char_traits@D@std@@@std@@QEAA@AEAV12@@Z@4HA+35
	DD	imagerel $unwind$?dtor$0@?0???0sentry@?$basic_ostream@DU?$char_traits@D@std@@@std@@QEAA@AEAV12@@Z@4HA
pdata	ENDS
;	COMDAT pdata
pdata	SEGMENT
$pdata$??1sentry@?$basic_ostream@DU?$char_traits@D@std@@@std@@QEAA@XZ DD imagerel $LN6
	DD	imagerel $LN6+83
	DD	imagerel $unwind$??1sentry@?$basic_ostream@DU?$char_traits@D@std@@@std@@QEAA@XZ
pdata	ENDS
;	COMDAT pdata
pdata	SEGMENT
$pdata$??Bsentry@?$basic_ostream@DU?$char_traits@D@std@@@std@@QEBA_NXZ DD imagerel $LN3
	DD	imagerel $LN3+17
	DD	imagerel $unwind$??Bsentry@?$basic_ostream@DU?$char_traits@D@std@@@std@@QEBA_NXZ
pdata	ENDS
;	COMDAT pdata
pdata	SEGMENT
$pdata$??$min@_K@std@@YAAEB_KAEB_K0@Z DD imagerel $LN5
	DD	imagerel $LN5+74
	DD	imagerel $unwind$??$min@_K@std@@YAAEB_KAEB_K0@Z
pdata	ENDS
;	COMDAT pdata
pdata	SEGMENT
$pdata$??$_Unfancy@U_Container_proxy@std@@@std@@YAPEAU_Container_proxy@0@PEAU10@@Z DD imagerel $LN3
	DD	imagerel $LN3+13
	DD	imagerel $unwind$??$_Unfancy@U_Container_proxy@std@@@std@@YAPEAU_Container_proxy@0@PEAU10@@Z
pdata	ENDS
;	COMDAT pdata
pdata	SEGMENT
$pdata$??$_Construct_in_place@U_Container_proxy@std@@PEAU_Container_base12@2@@std@@YAXAEAU_Container_proxy@0@$$QEAPEAU_Container_base12@0@@Z DD imagerel $LN3
	DD	imagerel $LN3+80
	DD	imagerel $unwind$??$_Construct_in_place@U_Container_proxy@std@@PEAU_Container_base12@2@@std@@YAXAEAU_Container_proxy@0@$$QEAPEAU_Container_base12@0@@Z
pdata	ENDS
;	COMDAT pdata
pdata	SEGMENT
$pdata$??$?0UPoint@@@?$allocator@PEAUPoint@@@std@@QEAA@AEBV?$allocator@UPoint@@@1@@Z DD imagerel $LN3
	DD	imagerel $LN3+18
	DD	imagerel $unwind$??$?0UPoint@@@?$allocator@PEAUPoint@@@std@@QEAA@AEBV?$allocator@UPoint@@@1@@Z
pdata	ENDS
;	COMDAT pdata
pdata	SEGMENT
$pdata$??$_Destroy_in_place@PEAUPoint@@@std@@YAXAEAPEAUPoint@@@Z DD imagerel $LN3
	DD	imagerel $LN3+8
	DD	imagerel $unwind$??$_Destroy_in_place@PEAUPoint@@@std@@YAXAEAPEAUPoint@@@Z
pdata	ENDS
;	COMDAT pdata
pdata	SEGMENT
$pdata$??$_Unfancy@UPoint@@@std@@YAPEAUPoint@@PEAU1@@Z DD imagerel $LN3
	DD	imagerel $LN3+13
	DD	imagerel $unwind$??$_Unfancy@UPoint@@@std@@YAPEAUPoint@@PEAU1@@Z
pdata	ENDS
;	COMDAT pdata
pdata	SEGMENT
$pdata$??$destroy@UPoint@@@?$_Default_allocator_traits@V?$allocator@UPoint@@@std@@@std@@SAXAEAV?$allocator@UPoint@@@1@QEAUPoint@@@Z DD imagerel $LN3
	DD	imagerel $LN3+13
	DD	imagerel $unwind$??$destroy@UPoint@@@?$_Default_allocator_traits@V?$allocator@UPoint@@@std@@@std@@SAXAEAV?$allocator@UPoint@@@1@QEAUPoint@@@Z
pdata	ENDS
;	COMDAT pdata
pdata	SEGMENT
$pdata$??$_Emplace_back_internal@AEBUPoint@@@?$deque@UPoint@@V?$allocator@UPoint@@@std@@@std@@AEAAXAEBUPoint@@@Z DD imagerel $LN5
	DD	imagerel $LN5+551
	DD	imagerel $unwind$??$_Emplace_back_internal@AEBUPoint@@@?$deque@UPoint@@V?$allocator@UPoint@@@std@@@std@@AEAAXAEBUPoint@@@Z
pdata	ENDS
;	COMDAT pdata
pdata	SEGMENT
$pdata$??0?$_Deque_unchecked_const_iterator@V?$_Deque_val@U?$_Deque_simple_types@UPoint@@@std@@@std@@@std@@QEAA@_KPEBU_Container_base12@1@@Z DD imagerel $LN3
	DD	imagerel $LN3+50
	DD	imagerel $unwind$??0?$_Deque_unchecked_const_iterator@V?$_Deque_val@U?$_Deque_simple_types@UPoint@@@std@@@std@@@std@@QEAA@_KPEBU_Container_base12@1@@Z
pdata	ENDS
;	COMDAT pdata
pdata	SEGMENT
$pdata$??D?$_Deque_unchecked_const_iterator@V?$_Deque_val@U?$_Deque_simple_types@UPoint@@@std@@@std@@@std@@QEBAAEBUPoint@@XZ DD imagerel $LN3
	DD	imagerel $LN3+100
	DD	imagerel $unwind$??D?$_Deque_unchecked_const_iterator@V?$_Deque_val@U?$_Deque_simple_types@UPoint@@@std@@@std@@@std@@QEBAAEBUPoint@@XZ
pdata	ENDS
;	COMDAT pdata
pdata	SEGMENT
$pdata$??F?$_Deque_unchecked_const_iterator@V?$_Deque_val@U?$_Deque_simple_types@UPoint@@@std@@@std@@@std@@QEAAAEAV01@XZ DD imagerel $LN3
	DD	imagerel $LN3+34
	DD	imagerel $unwind$??F?$_Deque_unchecked_const_iterator@V?$_Deque_val@U?$_Deque_simple_types@UPoint@@@std@@@std@@@std@@QEAAAEAV01@XZ
pdata	ENDS
;	COMDAT pdata
pdata	SEGMENT
$pdata$??D?$_Deque_unchecked_iterator@V?$_Deque_val@U?$_Deque_simple_types@UPoint@@@std@@@std@@@std@@QEBAAEAUPoint@@XZ DD imagerel $LN3
	DD	imagerel $LN3+26
	DD	imagerel $unwind$??D?$_Deque_unchecked_iterator@V?$_Deque_val@U?$_Deque_simple_types@UPoint@@@std@@@std@@@std@@QEBAAEAUPoint@@XZ
pdata	ENDS
;	COMDAT pdata
pdata	SEGMENT
$pdata$??F?$_Deque_unchecked_iterator@V?$_Deque_val@U?$_Deque_simple_types@UPoint@@@std@@@std@@@std@@QEAAAEAV01@XZ DD imagerel $LN3
	DD	imagerel $LN3+31
	DD	imagerel $unwind$??F?$_Deque_unchecked_iterator@V?$_Deque_val@U?$_Deque_simple_types@UPoint@@@std@@@std@@@std@@QEAAAEAV01@XZ
pdata	ENDS
;	COMDAT pdata
pdata	SEGMENT
$pdata$??0?$_Deque_unchecked_iterator@V?$_Deque_val@U?$_Deque_simple_types@UPoint@@@std@@@std@@@std@@QEAA@_KPEBU_Container_base12@1@@Z DD imagerel $LN3
	DD	imagerel $LN3+51
	DD	imagerel $unwind$??0?$_Deque_unchecked_iterator@V?$_Deque_val@U?$_Deque_simple_types@UPoint@@@std@@@std@@@std@@QEAA@_KPEBU_Container_base12@1@@Z
pdata	ENDS
;	COMDAT pdata
pdata	SEGMENT
$pdata$??$_Prev_iter@V?$_Deque_unchecked_iterator@V?$_Deque_val@U?$_Deque_simple_types@UPoint@@@std@@@std@@@std@@@std@@YA?AV?$_Deque_unchecked_iterator@V?$_Deque_val@U?$_Deque_simple_types@UPoint@@@std@@@std@@@0@V10@@Z DD imagerel $LN3
	DD	imagerel $LN3+53
	DD	imagerel $unwind$??$_Prev_iter@V?$_Deque_unchecked_iterator@V?$_Deque_val@U?$_Deque_simple_types@UPoint@@@std@@@std@@@std@@@std@@YA?AV?$_Deque_unchecked_iterator@V?$_Deque_val@U?$_Deque_simple_types@UPoint@@@std@@@std@@@0@V10@@Z
pdata	ENDS
;	COMDAT pdata
pdata	SEGMENT
$pdata$??$_Get_size_of_n@$0BA@@std@@YA_K_K@Z DD imagerel $LN4
	DD	imagerel $LN4+64
	DD	imagerel $unwind$??$_Get_size_of_n@$0BA@@std@@YA_K_K@Z
pdata	ENDS
;	COMDAT pdata
pdata	SEGMENT
$pdata$??$_Allocate@$0BA@U_Default_allocate_traits@std@@$0A@@std@@YAPEAX_K@Z DD imagerel $LN5
	DD	imagerel $LN5+61
	DD	imagerel $unwind$??$_Allocate@$0BA@U_Default_allocate_traits@std@@$0A@@std@@YAPEAX_K@Z
pdata	ENDS
;	COMDAT pdata
pdata	SEGMENT
$pdata$??$addressof@V?$_Deque_val@U?$_Deque_simple_types@UPoint@@@std@@@std@@@std@@YAPEAV?$_Deque_val@U?$_Deque_simple_types@UPoint@@@std@@@0@AEAV10@@Z DD imagerel $LN3
	DD	imagerel $LN3+13
	DD	imagerel $unwind$??$addressof@V?$_Deque_val@U?$_Deque_simple_types@UPoint@@@std@@@std@@@std@@YAPEAV?$_Deque_val@U?$_Deque_simple_types@UPoint@@@std@@@0@AEAV10@@Z
pdata	ENDS
;	COMDAT pdata
pdata	SEGMENT
$pdata$??$_Deallocate@$0BA@$0A@@std@@YAXPEAX_K@Z DD imagerel $LN4
	DD	imagerel $LN4+63
	DD	imagerel $unwind$??$_Deallocate@$0BA@$0A@@std@@YAXPEAX_K@Z
pdata	ENDS
;	COMDAT pdata
pdata	SEGMENT
$pdata$??$_Deallocate_plain@V?$allocator@U_Container_proxy@std@@@std@@@std@@YAXAEAV?$allocator@U_Container_proxy@std@@@0@QEAU_Container_proxy@0@@Z DD imagerel $LN3
	DD	imagerel $LN3+43
	DD	imagerel $unwind$??$_Deallocate_plain@V?$allocator@U_Container_proxy@std@@@std@@@std@@YAXAEAV?$allocator@U_Container_proxy@std@@@0@QEAU_Container_proxy@0@@Z
pdata	ENDS
;	COMDAT pdata
pdata	SEGMENT
$pdata$??$addressof@U_Container_proxy@std@@@std@@YAPEAU_Container_proxy@0@AEAU10@@Z DD imagerel $LN3
	DD	imagerel $LN3+13
	DD	imagerel $unwind$??$addressof@U_Container_proxy@std@@@std@@YAPEAU_Container_proxy@0@AEAU10@@Z
pdata	ENDS
;	COMDAT pdata
pdata	SEGMENT
$pdata$??$_Voidify_iter@PEAU_Container_proxy@std@@@std@@YAPEAXPEAU_Container_proxy@0@@Z DD imagerel $LN3
	DD	imagerel $LN3+13
	DD	imagerel $unwind$??$_Voidify_iter@PEAU_Container_proxy@std@@@std@@YAPEAXPEAU_Container_proxy@0@@Z
pdata	ENDS
;	COMDAT pdata
pdata	SEGMENT
$pdata$??$forward@PEAU_Container_base12@std@@@std@@YA$$QEAPEAU_Container_base12@0@AEAPEAU10@@Z DD imagerel $LN3
	DD	imagerel $LN3+13
	DD	imagerel $unwind$??$forward@PEAU_Container_base12@std@@@std@@YA$$QEAPEAU_Container_base12@0@AEAPEAU10@@Z
pdata	ENDS
;	COMDAT pdata
pdata	SEGMENT
$pdata$??$forward@AEBUPoint@@@std@@YAAEBUPoint@@AEBU1@@Z DD imagerel $LN3
	DD	imagerel $LN3+13
	DD	imagerel $unwind$??$forward@AEBUPoint@@@std@@YAAEBUPoint@@AEBU1@@Z
pdata	ENDS
;	COMDAT pdata
pdata	SEGMENT
$pdata$??$construct@UPoint@@AEBU1@@?$_Default_allocator_traits@V?$allocator@UPoint@@@std@@@std@@SAXAEAV?$allocator@UPoint@@@1@QEAUPoint@@AEBU3@@Z DD imagerel $LN3
	DD	imagerel $LN3+75
	DD	imagerel $unwind$??$construct@UPoint@@AEBU1@@?$_Default_allocator_traits@V?$allocator@UPoint@@@std@@@std@@SAXAEAV?$allocator@UPoint@@@1@QEAUPoint@@AEBU3@@Z
pdata	ENDS
;	COMDAT pdata
pdata	SEGMENT
$pdata$??$_Allocate_manually_vector_aligned@U_Default_allocate_traits@std@@@std@@YAPEAX_K@Z DD imagerel $LN13
	DD	imagerel $LN13+259
	DD	imagerel $unwind$??$_Allocate_manually_vector_aligned@U_Default_allocate_traits@std@@@std@@YAPEAX_K@Z
pdata	ENDS
;	COMDAT pdata
pdata	SEGMENT
$pdata$??$uninitialized_copy@PEAPEAUPoint@@PEAPEAU1@@std@@YAPEAPEAUPoint@@QEAPEAU1@0PEAPEAU1@@Z DD imagerel $LN3
	DD	imagerel $LN3+216
	DD	imagerel $unwind$??$uninitialized_copy@PEAPEAUPoint@@PEAPEAU1@@std@@YAPEAPEAUPoint@@QEAPEAU1@0PEAPEAU1@@Z
pdata	ENDS
;	COMDAT pdata
pdata	SEGMENT
$pdata$??$_Uninitialized_value_construct_n_unchecked1@PEAPEAUPoint@@_K@std@@YAPEAPEAUPoint@@PEAPEAU1@_K@Z DD imagerel $LN3
	DD	imagerel $LN3+48
	DD	imagerel $unwind$??$_Uninitialized_value_construct_n_unchecked1@PEAPEAUPoint@@_K@std@@YAPEAPEAUPoint@@PEAPEAU1@_K@Z
pdata	ENDS
;	COMDAT pdata
pdata	SEGMENT
$pdata$??$_Destroy_range@PEAPEAUPoint@@PEAPEAU1@@std@@YAXPEAPEAUPoint@@QEAPEAU1@@Z DD imagerel $LN3
	DD	imagerel $LN3+13
	DD	imagerel $unwind$??$_Destroy_range@PEAPEAUPoint@@PEAPEAU1@@std@@YAXPEAPEAUPoint@@QEAPEAU1@@Z
pdata	ENDS
;	COMDAT pdata
pdata	SEGMENT
$pdata$??$_Get_size_of_n@$07@std@@YA_K_K@Z DD imagerel $LN4
	DD	imagerel $LN4+67
	DD	imagerel $unwind$??$_Get_size_of_n@$07@std@@YA_K_K@Z
pdata	ENDS
;	COMDAT pdata
pdata	SEGMENT
$pdata$?deallocate@?$_Default_allocator_traits@V?$allocator@U_Container_proxy@std@@@std@@@std@@SAXAEAV?$allocator@U_Container_proxy@std@@@2@QEAU_Container_proxy@2@_K@Z DD imagerel $LN3
	DD	imagerel $LN3+45
	DD	imagerel $unwind$?deallocate@?$_Default_allocator_traits@V?$allocator@U_Container_proxy@std@@@std@@@std@@SAXAEAV?$allocator@U_Container_proxy@std@@@2@QEAU_Container_proxy@2@_K@Z
pdata	ENDS
;	COMDAT pdata
pdata	SEGMENT
$pdata$??$_Voidify_iter@PEAUPoint@@@std@@YAPEAXPEAUPoint@@@Z DD imagerel $LN3
	DD	imagerel $LN3+13
	DD	imagerel $unwind$??$_Voidify_iter@PEAUPoint@@@std@@YAPEAXPEAUPoint@@@Z
pdata	ENDS
;	COMDAT pdata
pdata	SEGMENT
$pdata$??$_Adl_verify_range@PEAPEAUPoint@@PEAPEAU1@@std@@YAXAEBQEAPEAUPoint@@0@Z DD imagerel $LN3
	DD	imagerel $LN3+42
	DD	imagerel $unwind$??$_Adl_verify_range@PEAPEAUPoint@@PEAPEAU1@@std@@YAXAEBQEAPEAUPoint@@0@Z
pdata	ENDS
;	COMDAT pdata
pdata	SEGMENT
$pdata$??$_Get_unwrapped@AEBQEAPEAUPoint@@@std@@YA?A_TAEBQEAPEAUPoint@@@Z DD imagerel $LN3
	DD	imagerel $LN3+16
	DD	imagerel $unwind$??$_Get_unwrapped@AEBQEAPEAUPoint@@@std@@YA?A_TAEBQEAPEAUPoint@@@Z
pdata	ENDS
;	COMDAT pdata
pdata	SEGMENT
$pdata$??$_Idl_distance@PEAPEAUPoint@@PEAPEAU1@@std@@YA?A_PAEBQEAPEAUPoint@@0@Z DD imagerel $LN3
	DD	imagerel $LN3+36
	DD	imagerel $unwind$??$_Idl_distance@PEAPEAUPoint@@PEAPEAU1@@std@@YA?A_PAEBQEAPEAUPoint@@0@Z
pdata	ENDS
;	COMDAT pdata
pdata	SEGMENT
$pdata$??$_Get_unwrapped_n@AEAPEAPEAUPoint@@_J@std@@YA?A_TAEAPEAPEAUPoint@@_J@Z DD imagerel $LN3
	DD	imagerel $LN3+21
	DD	imagerel $unwind$??$_Get_unwrapped_n@AEAPEAPEAUPoint@@_J@std@@YA?A_TAEAPEAPEAUPoint@@_J@Z
pdata	ENDS
;	COMDAT pdata
pdata	SEGMENT
$pdata$??$_Uninitialized_copy_unchecked@PEAPEAUPoint@@PEAPEAU1@@std@@YAPEAPEAUPoint@@PEAPEAU1@QEAPEAU1@0@Z DD imagerel $LN7
	DD	imagerel $LN7+181
	DD	imagerel $unwind$??$_Uninitialized_copy_unchecked@PEAPEAUPoint@@PEAPEAU1@@std@@YAPEAPEAUPoint@@PEAPEAU1@QEAPEAU1@0@Z
pdata	ENDS
;	COMDAT pdata
pdata	SEGMENT
$pdata$?dtor$0@?0???$_Uninitialized_copy_unchecked@PEAPEAUPoint@@PEAPEAU1@@std@@YAPEAPEAUPoint@@PEAPEAU1@QEAPEAU1@0@Z@4HA DD imagerel ?dtor$0@?0???$_Uninitialized_copy_unchecked@PEAPEAUPoint@@PEAPEAU1@@std@@YAPEAPEAUPoint@@PEAPEAU1@QEAPEAU1@0@Z@4HA
	DD	imagerel ?dtor$0@?0???$_Uninitialized_copy_unchecked@PEAPEAUPoint@@PEAPEAU1@@std@@YAPEAPEAUPoint@@PEAPEAU1@QEAPEAU1@0@Z@4HA+35
	DD	imagerel $unwind$?dtor$0@?0???$_Uninitialized_copy_unchecked@PEAPEAUPoint@@PEAPEAU1@@std@@YAPEAPEAUPoint@@PEAPEAU1@QEAPEAU1@0@Z@4HA
pdata	ENDS
;	COMDAT pdata
pdata	SEGMENT
$pdata$??$_Seek_wrapped@PEAPEAUPoint@@PEAPEAU1@@std@@YAXAEAPEAPEAUPoint@@$$QEAPEAPEAU1@@Z DD imagerel $LN3
	DD	imagerel $LN3+42
	DD	imagerel $unwind$??$_Seek_wrapped@PEAPEAUPoint@@PEAPEAU1@@std@@YAXAEAPEAPEAUPoint@@$$QEAPEAPEAU1@@Z
pdata	ENDS
;	COMDAT pdata
pdata	SEGMENT
$pdata$??$_Zero_range@PEAPEAUPoint@@@std@@YAPEAPEAUPoint@@QEAPEAU1@0@Z DD imagerel $LN3
	DD	imagerel $LN3+87
	DD	imagerel $unwind$??$_Zero_range@PEAPEAUPoint@@@std@@YAPEAPEAUPoint@@QEAPEAU1@0@Z
pdata	ENDS
;	COMDAT pdata
pdata	SEGMENT
$pdata$??$_Verify_range@PEAUPoint@@@std@@YAXQEBQEAUPoint@@0@Z DD imagerel $LN12
	DD	imagerel $LN12+148
	DD	imagerel $unwind$??$_Verify_range@PEAUPoint@@@std@@YAXQEBQEAUPoint@@0@Z
pdata	ENDS
;	COMDAT pdata
pdata	SEGMENT
$pdata$??$_Copy_memmove@PEAPEAUPoint@@PEAPEAU1@@std@@YAPEAPEAUPoint@@PEAPEAU1@00@Z DD imagerel $LN3
	DD	imagerel $LN3+161
	DD	imagerel $unwind$??$_Copy_memmove@PEAPEAUPoint@@PEAPEAU1@@std@@YAPEAPEAUPoint@@PEAPEAU1@00@Z
pdata	ENDS
;	COMDAT pdata
pdata	SEGMENT
$pdata$??0?$_Uninitialized_backout@PEAPEAUPoint@@@std@@QEAA@PEAPEAUPoint@@@Z DD imagerel $LN3
	DD	imagerel $LN3+45
	DD	imagerel $unwind$??0?$_Uninitialized_backout@PEAPEAUPoint@@@std@@QEAA@PEAPEAUPoint@@@Z
pdata	ENDS
;	COMDAT pdata
pdata	SEGMENT
$pdata$??1?$_Uninitialized_backout@PEAPEAUPoint@@@std@@QEAA@XZ DD imagerel $LN3
	DD	imagerel $LN3+38
	DD	imagerel $unwind$??1?$_Uninitialized_backout@PEAPEAUPoint@@@std@@QEAA@XZ
pdata	ENDS
;	COMDAT pdata
pdata	SEGMENT
$pdata$?_Release@?$_Uninitialized_backout@PEAPEAUPoint@@@std@@QEAAPEAPEAUPoint@@XZ DD imagerel $LN3
	DD	imagerel $LN3+34
	DD	imagerel $unwind$?_Release@?$_Uninitialized_backout@PEAPEAUPoint@@@std@@QEAAPEAPEAUPoint@@XZ
pdata	ENDS
;	COMDAT pdata
pdata	SEGMENT
$pdata$??$_Emplace_back@AEAPEAUPoint@@@?$_Uninitialized_backout@PEAPEAUPoint@@@std@@QEAAXAEAPEAUPoint@@@Z DD imagerel $LN3
	DD	imagerel $LN3+70
	DD	imagerel $unwind$??$_Emplace_back@AEAPEAUPoint@@@?$_Uninitialized_backout@PEAPEAUPoint@@@std@@QEAAXAEAPEAUPoint@@@Z
pdata	ENDS
;	COMDAT pdata
pdata	SEGMENT
$pdata$??$forward@PEAPEAUPoint@@@std@@YA$$QEAPEAPEAUPoint@@AEAPEAPEAU1@@Z DD imagerel $LN3
	DD	imagerel $LN3+13
	DD	imagerel $unwind$??$forward@PEAPEAUPoint@@@std@@YA$$QEAPEAPEAUPoint@@AEAPEAPEAU1@@Z
pdata	ENDS
;	COMDAT pdata
pdata	SEGMENT
$pdata$??$_To_address@PEAPEAUPoint@@@std@@YA?A_PAEBQEAPEAUPoint@@@Z DD imagerel $LN3
	DD	imagerel $LN3+16
	DD	imagerel $unwind$??$_To_address@PEAPEAUPoint@@@std@@YA?A_PAEBQEAPEAUPoint@@@Z
pdata	ENDS
;	COMDAT pdata
pdata	SEGMENT
$pdata$??$forward@AEAPEAUPoint@@@std@@YAAEAPEAUPoint@@AEAPEAU1@@Z DD imagerel $LN3
	DD	imagerel $LN3+13
	DD	imagerel $unwind$??$forward@AEAPEAUPoint@@@std@@YAAEAPEAUPoint@@AEAPEAU1@@Z
pdata	ENDS
;	COMDAT pdata
pdata	SEGMENT
$pdata$??$_Construct_in_place@PEAUPoint@@AEAPEAU1@@std@@YAXAEAPEAUPoint@@0@Z DD imagerel $LN3
	DD	imagerel $LN3+78
	DD	imagerel $unwind$??$_Construct_in_place@PEAUPoint@@AEAPEAU1@@std@@YAXAEAPEAUPoint@@0@Z
pdata	ENDS
;	COMDAT pdata
pdata	SEGMENT
$pdata$??$addressof@PEAUPoint@@@std@@YAPEAPEAUPoint@@AEAPEAU1@@Z DD imagerel $LN3
	DD	imagerel $LN3+13
	DD	imagerel $unwind$??$addressof@PEAUPoint@@@std@@YAPEAPEAUPoint@@AEAPEAU1@@Z
pdata	ENDS
;	COMDAT pdata
pdata	SEGMENT
$pdata$??$_Voidify_iter@PEAPEAUPoint@@@std@@YAPEAXPEAPEAUPoint@@@Z DD imagerel $LN3
	DD	imagerel $LN3+13
	DD	imagerel $unwind$??$_Voidify_iter@PEAPEAUPoint@@@std@@YAPEAXPEAPEAUPoint@@@Z
pdata	ENDS
;	COMDAT rtc$TMZ
rtc$TMZ	SEGMENT
_RTC_Shutdown.rtc$TMZ DQ FLAT:_RTC_Shutdown
rtc$TMZ	ENDS
;	COMDAT rtc$IMZ
rtc$IMZ	SEGMENT
_RTC_InitBase.rtc$IMZ DQ FLAT:_RTC_InitBase
rtc$IMZ	ENDS
;	COMDAT ??_R1A@?0A@EA@bad_array_new_length@std@@8
rdata$r	SEGMENT
??_R1A@?0A@EA@bad_array_new_length@std@@8 DD imagerel ??_R0?AVbad_array_new_length@std@@@8 ; std::bad_array_new_length::`RTTI Base Class Descriptor at (0,-1,0,64)'
	DD	02H
	DD	00H
	DD	0ffffffffH
	DD	00H
	DD	040H
	DD	imagerel ??_R3bad_array_new_length@std@@8
rdata$r	ENDS
;	COMDAT ??_R2bad_array_new_length@std@@8
rdata$r	SEGMENT
??_R2bad_array_new_length@std@@8 DD imagerel ??_R1A@?0A@EA@bad_array_new_length@std@@8 ; std::bad_array_new_length::`RTTI Base Class Array'
	DD	imagerel ??_R1A@?0A@EA@bad_alloc@std@@8
	DD	imagerel ??_R1A@?0A@EA@exception@std@@8
	ORG $+3
rdata$r	ENDS
;	COMDAT ??_R3bad_array_new_length@std@@8
rdata$r	SEGMENT
??_R3bad_array_new_length@std@@8 DD 00H			; std::bad_array_new_length::`RTTI Class Hierarchy Descriptor'
	DD	00H
	DD	03H
	DD	imagerel ??_R2bad_array_new_length@std@@8
rdata$r	ENDS
;	COMDAT ??_R4bad_array_new_length@std@@6B@
rdata$r	SEGMENT
??_R4bad_array_new_length@std@@6B@ DD 01H		; std::bad_array_new_length::`RTTI Complete Object Locator'
	DD	00H
	DD	00H
	DD	imagerel ??_R0?AVbad_array_new_length@std@@@8
	DD	imagerel ??_R3bad_array_new_length@std@@8
	DD	imagerel ??_R4bad_array_new_length@std@@6B@
rdata$r	ENDS
;	COMDAT ??_R1A@?0A@EA@bad_alloc@std@@8
rdata$r	SEGMENT
??_R1A@?0A@EA@bad_alloc@std@@8 DD imagerel ??_R0?AVbad_alloc@std@@@8 ; std::bad_alloc::`RTTI Base Class Descriptor at (0,-1,0,64)'
	DD	01H
	DD	00H
	DD	0ffffffffH
	DD	00H
	DD	040H
	DD	imagerel ??_R3bad_alloc@std@@8
rdata$r	ENDS
;	COMDAT ??_R2bad_alloc@std@@8
rdata$r	SEGMENT
??_R2bad_alloc@std@@8 DD imagerel ??_R1A@?0A@EA@bad_alloc@std@@8 ; std::bad_alloc::`RTTI Base Class Array'
	DD	imagerel ??_R1A@?0A@EA@exception@std@@8
	ORG $+3
rdata$r	ENDS
;	COMDAT ??_R3bad_alloc@std@@8
rdata$r	SEGMENT
??_R3bad_alloc@std@@8 DD 00H				; std::bad_alloc::`RTTI Class Hierarchy Descriptor'
	DD	00H
	DD	02H
	DD	imagerel ??_R2bad_alloc@std@@8
rdata$r	ENDS
;	COMDAT ??_R4bad_alloc@std@@6B@
rdata$r	SEGMENT
??_R4bad_alloc@std@@6B@ DD 01H				; std::bad_alloc::`RTTI Complete Object Locator'
	DD	00H
	DD	00H
	DD	imagerel ??_R0?AVbad_alloc@std@@@8
	DD	imagerel ??_R3bad_alloc@std@@8
	DD	imagerel ??_R4bad_alloc@std@@6B@
rdata$r	ENDS
;	COMDAT ??_R1A@?0A@EA@exception@std@@8
rdata$r	SEGMENT
??_R1A@?0A@EA@exception@std@@8 DD imagerel ??_R0?AVexception@std@@@8 ; std::exception::`RTTI Base Class Descriptor at (0,-1,0,64)'
	DD	00H
	DD	00H
	DD	0ffffffffH
	DD	00H
	DD	040H
	DD	imagerel ??_R3exception@std@@8
rdata$r	ENDS
;	COMDAT ??_R2exception@std@@8
rdata$r	SEGMENT
??_R2exception@std@@8 DD imagerel ??_R1A@?0A@EA@exception@std@@8 ; std::exception::`RTTI Base Class Array'
	ORG $+3
rdata$r	ENDS
;	COMDAT ??_R3exception@std@@8
rdata$r	SEGMENT
??_R3exception@std@@8 DD 00H				; std::exception::`RTTI Class Hierarchy Descriptor'
	DD	00H
	DD	01H
	DD	imagerel ??_R2exception@std@@8
rdata$r	ENDS
;	COMDAT ??_R4exception@std@@6B@
rdata$r	SEGMENT
??_R4exception@std@@6B@ DD 01H				; std::exception::`RTTI Complete Object Locator'
	DD	00H
	DD	00H
	DD	imagerel ??_R0?AVexception@std@@@8
	DD	imagerel ??_R3exception@std@@8
	DD	imagerel ??_R4exception@std@@6B@
rdata$r	ENDS
;	COMDAT ??_C@_1DG@FJIKMGFD@?$AA?$CC?$AAt?$AAr?$AAa?$AAn?$AAs?$AAp?$AAo?$AAs?$AAe?$AAd?$AA?5?$AAp?$AAo?$AAi@
CONST	SEGMENT
??_C@_1DG@FJIKMGFD@?$AA?$CC?$AAt?$AAr?$AAa?$AAn?$AAs?$AAp?$AAo?$AAs?$AAe?$AAd?$AA?5?$AAp?$AAo?$AAi@ DB '"'
	DB	00H, 't', 00H, 'r', 00H, 'a', 00H, 'n', 00H, 's', 00H, 'p', 00H
	DB	'o', 00H, 's', 00H, 'e', 00H, 'd', 00H, ' ', 00H, 'p', 00H, 'o'
	DB	00H, 'i', 00H, 'n', 00H, 't', 00H, 'e', 00H, 'r', 00H, ' ', 00H
	DB	'r', 00H, 'a', 00H, 'n', 00H, 'g', 00H, 'e', 00H, '"', 00H, 00H
	DB	00H						; `string'
CONST	ENDS
;	COMDAT ??_C@_1CG@LJCPDKEJ@?$AAs?$AAt?$AAd?$AA?3?$AA?3?$AA_?$AAV?$AAe?$AAr?$AAi?$AAf?$AAy?$AA_?$AAr?$AAa@
CONST	SEGMENT
??_C@_1CG@LJCPDKEJ@?$AAs?$AAt?$AAd?$AA?3?$AA?3?$AA_?$AAV?$AAe?$AAr?$AAi?$AAf?$AAy?$AA_?$AAr?$AAa@ DB 's'
	DB	00H, 't', 00H, 'd', 00H, ':', 00H, ':', 00H, '_', 00H, 'V', 00H
	DB	'e', 00H, 'r', 00H, 'i', 00H, 'f', 00H, 'y', 00H, '_', 00H, 'r'
	DB	00H, 'a', 00H, 'n', 00H, 'g', 00H, 'e', 00H, 00H, 00H ; `string'
CONST	ENDS
;	COMDAT ??_C@_1NC@HPCGBKBF@?$AAC?$AA?3?$AA?2?$AAP?$AAr?$AAo?$AAg?$AAr?$AAa?$AAm?$AA?5?$AAF?$AAi?$AAl?$AAe@
CONST	SEGMENT
??_C@_1NC@HPCGBKBF@?$AAC?$AA?3?$AA?2?$AAP?$AAr?$AAo?$AAg?$AAr?$AAa?$AAm?$AA?5?$AAF?$AAi?$AAl?$AAe@ DB 'C'
	DB	00H, ':', 00H, '\', 00H, 'P', 00H, 'r', 00H, 'o', 00H, 'g', 00H
	DB	'r', 00H, 'a', 00H, 'm', 00H, ' ', 00H, 'F', 00H, 'i', 00H, 'l'
	DB	00H, 'e', 00H, 's', 00H, ' ', 00H, '(', 00H, 'x', 00H, '8', 00H
	DB	'6', 00H, ')', 00H, '\', 00H, 'M', 00H, 'i', 00H, 'c', 00H, 'r'
	DB	00H, 'o', 00H, 's', 00H, 'o', 00H, 'f', 00H, 't', 00H, ' ', 00H
	DB	'V', 00H, 'i', 00H, 's', 00H, 'u', 00H, 'a', 00H, 'l', 00H, ' '
	DB	00H, 'S', 00H, 't', 00H, 'u', 00H, 'd', 00H, 'i', 00H, 'o', 00H
	DB	'\', 00H, '2', 00H, '0', 00H, '1', 00H, '9', 00H, '\', 00H, 'C'
	DB	00H, 'o', 00H, 'm', 00H, 'm', 00H, 'u', 00H, 'n', 00H, 'i', 00H
	DB	't', 00H, 'y', 00H, '\', 00H, 'V', 00H, 'C', 00H, '\', 00H, 'T'
	DB	00H, 'o', 00H, 'o', 00H, 'l', 00H, 's', 00H, '\', 00H, 'M', 00H
	DB	'S', 00H, 'V', 00H, 'C', 00H, '\', 00H, '1', 00H, '4', 00H, '.'
	DB	00H, '2', 00H, '9', 00H, '.', 00H, '3', 00H, '0', 00H, '0', 00H
	DB	'3', 00H, '7', 00H, '\', 00H, 'i', 00H, 'n', 00H, 'c', 00H, 'l'
	DB	00H, 'u', 00H, 'd', 00H, 'e', 00H, '\', 00H, 'x', 00H, 'u', 00H
	DB	't', 00H, 'i', 00H, 'l', 00H, 'i', 00H, 't', 00H, 'y', 00H, 00H
	DB	00H						; `string'
CONST	ENDS
;	COMDAT ??_C@_0GJ@LJDCNNIF@C?3?2Program?5Files?5?$CIx86?$CJ?2Microsof@
CONST	SEGMENT
??_C@_0GJ@LJDCNNIF@C?3?2Program?5Files?5?$CIx86?$CJ?2Microsof@ DB 'C:\Pro'
	DB	'gram Files (x86)\Microsoft Visual Studio\2019\Community\VC\To'
	DB	'ols\MSVC\14.29.30037\include\xutility', 00H	; `string'
CONST	ENDS
;	COMDAT ??_C@_0BJ@HAJGEHKO@transposed?5pointer?5range@
CONST	SEGMENT
??_C@_0BJ@HAJGEHKO@transposed?5pointer?5range@ DB 'transposed pointer ran'
	DB	'ge', 00H					; `string'
CONST	ENDS
;	COMDAT ??_C@_0BC@KBDMBKEH@deque?$DMT?$DO?5too?5long@
CONST	SEGMENT
??_C@_0BC@KBDMBKEH@deque?$DMT?$DO?5too?5long@ DB 'deque<T> too long', 00H ; `string'
CONST	ENDS
;	COMDAT ??_C@_1DO@OOAHKDGC@?$AA?$CC?$AAb?$AAa?$AAc?$AAk?$AA?$CI?$AA?$CJ?$AA?5?$AAc?$AAa?$AAl?$AAl?$AAe?$AAd?$AA?5@
CONST	SEGMENT
??_C@_1DO@OOAHKDGC@?$AA?$CC?$AAb?$AAa?$AAc?$AAk?$AA?$CI?$AA?$CJ?$AA?5?$AAc?$AAa?$AAl?$AAl?$AAe?$AAd?$AA?5@ DB '"'
	DB	00H, 'b', 00H, 'a', 00H, 'c', 00H, 'k', 00H, '(', 00H, ')', 00H
	DB	' ', 00H, 'c', 00H, 'a', 00H, 'l', 00H, 'l', 00H, 'e', 00H, 'd'
	DB	00H, ' ', 00H, 'o', 00H, 'n', 00H, ' ', 00H, 'e', 00H, 'm', 00H
	DB	'p', 00H, 't', 00H, 'y', 00H, ' ', 00H, 'd', 00H, 'e', 00H, 'q'
	DB	00H, 'u', 00H, 'e', 00H, '"', 00H, 00H, 00H	; `string'
CONST	ENDS
;	COMDAT ??_C@_1IG@ELIEKPDP@?$AAs?$AAt?$AAd?$AA?3?$AA?3?$AAd?$AAe?$AAq?$AAu?$AAe?$AA?$DM?$AAs?$AAt?$AAr?$AAu@
CONST	SEGMENT
??_C@_1IG@ELIEKPDP@?$AAs?$AAt?$AAd?$AA?3?$AA?3?$AAd?$AAe?$AAq?$AAu?$AAe?$AA?$DM?$AAs?$AAt?$AAr?$AAu@ DB 's'
	DB	00H, 't', 00H, 'd', 00H, ':', 00H, ':', 00H, 'd', 00H, 'e', 00H
	DB	'q', 00H, 'u', 00H, 'e', 00H, '<', 00H, 's', 00H, 't', 00H, 'r'
	DB	00H, 'u', 00H, 'c', 00H, 't', 00H, ' ', 00H, 'P', 00H, 'o', 00H
	DB	'i', 00H, 'n', 00H, 't', 00H, ',', 00H, 'c', 00H, 'l', 00H, 'a'
	DB	00H, 's', 00H, 's', 00H, ' ', 00H, 's', 00H, 't', 00H, 'd', 00H
	DB	':', 00H, ':', 00H, 'a', 00H, 'l', 00H, 'l', 00H, 'o', 00H, 'c'
	DB	00H, 'a', 00H, 't', 00H, 'o', 00H, 'r', 00H, '<', 00H, 's', 00H
	DB	't', 00H, 'r', 00H, 'u', 00H, 'c', 00H, 't', 00H, ' ', 00H, 'P'
	DB	00H, 'o', 00H, 'i', 00H, 'n', 00H, 't', 00H, '>', 00H, ' ', 00H
	DB	'>', 00H, ':', 00H, ':', 00H, 'b', 00H, 'a', 00H, 'c', 00H, 'k'
	DB	00H, 00H, 00H				; `string'
CONST	ENDS
;	COMDAT ??_C@_0BN@OLMACEKN@back?$CI?$CJ?5called?5on?5empty?5deque@
CONST	SEGMENT
??_C@_0BN@OLMACEKN@back?$CI?$CJ?5called?5on?5empty?5deque@ DB 'back() cal'
	DB	'led on empty deque', 00H			; `string'
CONST	ENDS
;	COMDAT ??_C@_1DC@NJAACHCD@?$AA?$CC?$AAd?$AAe?$AAq?$AAu?$AAe?$AA?5?$AAe?$AAm?$AAp?$AAt?$AAy?$AA?5?$AAb?$AAe@
CONST	SEGMENT
??_C@_1DC@NJAACHCD@?$AA?$CC?$AAd?$AAe?$AAq?$AAu?$AAe?$AA?5?$AAe?$AAm?$AAp?$AAt?$AAy?$AA?5?$AAb?$AAe@ DB '"'
	DB	00H, 'd', 00H, 'e', 00H, 'q', 00H, 'u', 00H, 'e', 00H, ' ', 00H
	DB	'e', 00H, 'm', 00H, 'p', 00H, 't', 00H, 'y', 00H, ' ', 00H, 'b'
	DB	00H, 'e', 00H, 'f', 00H, 'o', 00H, 'r', 00H, 'e', 00H, ' ', 00H
	DB	'p', 00H, 'o', 00H, 'p', 00H, '"', 00H, 00H, 00H ; `string'
CONST	ENDS
;	COMDAT ??_C@_1IO@OKBBHBKC@?$AAs?$AAt?$AAd?$AA?3?$AA?3?$AAd?$AAe?$AAq?$AAu?$AAe?$AA?$DM?$AAs?$AAt?$AAr?$AAu@
CONST	SEGMENT
??_C@_1IO@OKBBHBKC@?$AAs?$AAt?$AAd?$AA?3?$AA?3?$AAd?$AAe?$AAq?$AAu?$AAe?$AA?$DM?$AAs?$AAt?$AAr?$AAu@ DB 's'
	DB	00H, 't', 00H, 'd', 00H, ':', 00H, ':', 00H, 'd', 00H, 'e', 00H
	DB	'q', 00H, 'u', 00H, 'e', 00H, '<', 00H, 's', 00H, 't', 00H, 'r'
	DB	00H, 'u', 00H, 'c', 00H, 't', 00H, ' ', 00H, 'P', 00H, 'o', 00H
	DB	'i', 00H, 'n', 00H, 't', 00H, ',', 00H, 'c', 00H, 'l', 00H, 'a'
	DB	00H, 's', 00H, 's', 00H, ' ', 00H, 's', 00H, 't', 00H, 'd', 00H
	DB	':', 00H, ':', 00H, 'a', 00H, 'l', 00H, 'l', 00H, 'o', 00H, 'c'
	DB	00H, 'a', 00H, 't', 00H, 'o', 00H, 'r', 00H, '<', 00H, 's', 00H
	DB	't', 00H, 'r', 00H, 'u', 00H, 'c', 00H, 't', 00H, ' ', 00H, 'P'
	DB	00H, 'o', 00H, 'i', 00H, 'n', 00H, 't', 00H, '>', 00H, ' ', 00H
	DB	'>', 00H, ':', 00H, ':', 00H, 'p', 00H, 'o', 00H, 'p', 00H, '_'
	DB	00H, 'b', 00H, 'a', 00H, 'c', 00H, 'k', 00H, 00H, 00H ; `string'
CONST	ENDS
;	COMDAT ??_C@_1MM@DPCANHAJ@?$AAC?$AA?3?$AA?2?$AAP?$AAr?$AAo?$AAg?$AAr?$AAa?$AAm?$AA?5?$AAF?$AAi?$AAl?$AAe@
CONST	SEGMENT
??_C@_1MM@DPCANHAJ@?$AAC?$AA?3?$AA?2?$AAP?$AAr?$AAo?$AAg?$AAr?$AAa?$AAm?$AA?5?$AAF?$AAi?$AAl?$AAe@ DB 'C'
	DB	00H, ':', 00H, '\', 00H, 'P', 00H, 'r', 00H, 'o', 00H, 'g', 00H
	DB	'r', 00H, 'a', 00H, 'm', 00H, ' ', 00H, 'F', 00H, 'i', 00H, 'l'
	DB	00H, 'e', 00H, 's', 00H, ' ', 00H, '(', 00H, 'x', 00H, '8', 00H
	DB	'6', 00H, ')', 00H, '\', 00H, 'M', 00H, 'i', 00H, 'c', 00H, 'r'
	DB	00H, 'o', 00H, 's', 00H, 'o', 00H, 'f', 00H, 't', 00H, ' ', 00H
	DB	'V', 00H, 'i', 00H, 's', 00H, 'u', 00H, 'a', 00H, 'l', 00H, ' '
	DB	00H, 'S', 00H, 't', 00H, 'u', 00H, 'd', 00H, 'i', 00H, 'o', 00H
	DB	'\', 00H, '2', 00H, '0', 00H, '1', 00H, '9', 00H, '\', 00H, 'C'
	DB	00H, 'o', 00H, 'm', 00H, 'm', 00H, 'u', 00H, 'n', 00H, 'i', 00H
	DB	't', 00H, 'y', 00H, '\', 00H, 'V', 00H, 'C', 00H, '\', 00H, 'T'
	DB	00H, 'o', 00H, 'o', 00H, 'l', 00H, 's', 00H, '\', 00H, 'M', 00H
	DB	'S', 00H, 'V', 00H, 'C', 00H, '\', 00H, '1', 00H, '4', 00H, '.'
	DB	00H, '2', 00H, '9', 00H, '.', 00H, '3', 00H, '0', 00H, '0', 00H
	DB	'3', 00H, '7', 00H, '\', 00H, 'i', 00H, 'n', 00H, 'c', 00H, 'l'
	DB	00H, 'u', 00H, 'd', 00H, 'e', 00H, '\', 00H, 'd', 00H, 'e', 00H
	DB	'q', 00H, 'u', 00H, 'e', 00H, 00H, 00H	; `string'
CONST	ENDS
;	COMDAT ??_C@_0GG@FDHPMGE@C?3?2Program?5Files?5?$CIx86?$CJ?2Microsof@
CONST	SEGMENT
??_C@_0GG@FDHPMGE@C?3?2Program?5Files?5?$CIx86?$CJ?2Microsof@ DB 'C:\Prog'
	DB	'ram Files (x86)\Microsoft Visual Studio\2019\Community\VC\Too'
	DB	'ls\MSVC\14.29.30037\include\deque', 00H	; `string'
CONST	ENDS
;	COMDAT ??_C@_0BH@EDKEEENI@deque?5empty?5before?5pop@
CONST	SEGMENT
??_C@_0BH@EDKEEENI@deque?5empty?5before?5pop@ DB 'deque empty before pop', 00H ; `string'
CONST	ENDS
;	COMDAT ??_C@_1CG@JNLFBNGN@?$AA?$CC?$AAi?$AAn?$AAv?$AAa?$AAl?$AAi?$AAd?$AA?5?$AAa?$AAr?$AAg?$AAu?$AAm?$AAe@
CONST	SEGMENT
??_C@_1CG@JNLFBNGN@?$AA?$CC?$AAi?$AAn?$AAv?$AAa?$AAl?$AAi?$AAd?$AA?5?$AAa?$AAr?$AAg?$AAu?$AAm?$AAe@ DB '"'
	DB	00H, 'i', 00H, 'n', 00H, 'v', 00H, 'a', 00H, 'l', 00H, 'i', 00H
	DB	'd', 00H, ' ', 00H, 'a', 00H, 'r', 00H, 'g', 00H, 'u', 00H, 'm'
	DB	00H, 'e', 00H, 'n', 00H, 't', 00H, '"', 00H, 00H, 00H ; `string'
CONST	ENDS
;	COMDAT ??_C@_1EK@NIFDJFDG@?$AAs?$AAt?$AAd?$AA?3?$AA?3?$AA_?$AAA?$AAd?$AAj?$AAu?$AAs?$AAt?$AA_?$AAm?$AAa@
CONST	SEGMENT
??_C@_1EK@NIFDJFDG@?$AAs?$AAt?$AAd?$AA?3?$AA?3?$AA_?$AAA?$AAd?$AAj?$AAu?$AAs?$AAt?$AA_?$AAm?$AAa@ DB 's'
	DB	00H, 't', 00H, 'd', 00H, ':', 00H, ':', 00H, '_', 00H, 'A', 00H
	DB	'd', 00H, 'j', 00H, 'u', 00H, 's', 00H, 't', 00H, '_', 00H, 'm'
	DB	00H, 'a', 00H, 'n', 00H, 'u', 00H, 'a', 00H, 'l', 00H, 'l', 00H
	DB	'y', 00H, '_', 00H, 'v', 00H, 'e', 00H, 'c', 00H, 't', 00H, 'o'
	DB	00H, 'r', 00H, '_', 00H, 'a', 00H, 'l', 00H, 'i', 00H, 'g', 00H
	DB	'n', 00H, 'e', 00H, 'd', 00H, 00H, 00H	; `string'
CONST	ENDS
;	COMDAT ??_C@_1NA@FOAKNOEL@?$AAC?$AA?3?$AA?2?$AAP?$AAr?$AAo?$AAg?$AAr?$AAa?$AAm?$AA?5?$AAF?$AAi?$AAl?$AAe@
CONST	SEGMENT
??_C@_1NA@FOAKNOEL@?$AAC?$AA?3?$AA?2?$AAP?$AAr?$AAo?$AAg?$AAr?$AAa?$AAm?$AA?5?$AAF?$AAi?$AAl?$AAe@ DB 'C'
	DB	00H, ':', 00H, '\', 00H, 'P', 00H, 'r', 00H, 'o', 00H, 'g', 00H
	DB	'r', 00H, 'a', 00H, 'm', 00H, ' ', 00H, 'F', 00H, 'i', 00H, 'l'
	DB	00H, 'e', 00H, 's', 00H, ' ', 00H, '(', 00H, 'x', 00H, '8', 00H
	DB	'6', 00H, ')', 00H, '\', 00H, 'M', 00H, 'i', 00H, 'c', 00H, 'r'
	DB	00H, 'o', 00H, 's', 00H, 'o', 00H, 'f', 00H, 't', 00H, ' ', 00H
	DB	'V', 00H, 'i', 00H, 's', 00H, 'u', 00H, 'a', 00H, 'l', 00H, ' '
	DB	00H, 'S', 00H, 't', 00H, 'u', 00H, 'd', 00H, 'i', 00H, 'o', 00H
	DB	'\', 00H, '2', 00H, '0', 00H, '1', 00H, '9', 00H, '\', 00H, 'C'
	DB	00H, 'o', 00H, 'm', 00H, 'm', 00H, 'u', 00H, 'n', 00H, 'i', 00H
	DB	't', 00H, 'y', 00H, '\', 00H, 'V', 00H, 'C', 00H, '\', 00H, 'T'
	DB	00H, 'o', 00H, 'o', 00H, 'l', 00H, 's', 00H, '\', 00H, 'M', 00H
	DB	'S', 00H, 'V', 00H, 'C', 00H, '\', 00H, '1', 00H, '4', 00H, '.'
	DB	00H, '2', 00H, '9', 00H, '.', 00H, '3', 00H, '0', 00H, '0', 00H
	DB	'3', 00H, '7', 00H, '\', 00H, 'i', 00H, 'n', 00H, 'c', 00H, 'l'
	DB	00H, 'u', 00H, 'd', 00H, 'e', 00H, '\', 00H, 'x', 00H, 'm', 00H
	DB	'e', 00H, 'm', 00H, 'o', 00H, 'r', 00H, 'y', 00H, 00H, 00H ; `string'
CONST	ENDS
;	COMDAT ??_C@_0GI@KDIDHNIL@C?3?2Program?5Files?5?$CIx86?$CJ?2Microsof@
CONST	SEGMENT
??_C@_0GI@KDIDHNIL@C?3?2Program?5Files?5?$CIx86?$CJ?2Microsof@ DB 'C:\Pro'
	DB	'gram Files (x86)\Microsoft Visual Studio\2019\Community\VC\To'
	DB	'ols\MSVC\14.29.30037\include\xmemory', 00H	; `string'
CONST	ENDS
;	COMDAT ??_C@_02DKCKIIND@?$CFs@
CONST	SEGMENT
??_C@_02DKCKIIND@?$CFs@ DB '%s', 00H			; `string'
CONST	ENDS
;	COMDAT ??_C@_0BB@FCMFBGOM@invalid?5argument@
CONST	SEGMENT
??_C@_0BB@FCMFBGOM@invalid?5argument@ DB 'invalid argument', 00H ; `string'
CONST	ENDS
;	COMDAT _CT??_R0?AVexception@std@@@8??0exception@std@@QEAA@AEBV01@@Z24
xdata$x	SEGMENT
_CT??_R0?AVexception@std@@@8??0exception@std@@QEAA@AEBV01@@Z24 DD 00H
	DD	imagerel ??_R0?AVexception@std@@@8
	DD	00H
	DD	0ffffffffH
	ORG $+4
	DD	018H
	DD	imagerel ??0exception@std@@QEAA@AEBV01@@Z
xdata$x	ENDS
;	COMDAT ??_R0?AVexception@std@@@8
data$r	SEGMENT
??_R0?AVexception@std@@@8 DQ FLAT:??_7type_info@@6B@	; std::exception `RTTI Type Descriptor'
	DQ	0000000000000000H
	DB	'.?AVexception@std@@', 00H
data$r	ENDS
;	COMDAT _CT??_R0?AVbad_alloc@std@@@8??0bad_alloc@std@@QEAA@AEBV01@@Z24
xdata$x	SEGMENT
_CT??_R0?AVbad_alloc@std@@@8??0bad_alloc@std@@QEAA@AEBV01@@Z24 DD 010H
	DD	imagerel ??_R0?AVbad_alloc@std@@@8
	DD	00H
	DD	0ffffffffH
	ORG $+4
	DD	018H
	DD	imagerel ??0bad_alloc@std@@QEAA@AEBV01@@Z
xdata$x	ENDS
;	COMDAT ??_R0?AVbad_alloc@std@@@8
data$r	SEGMENT
??_R0?AVbad_alloc@std@@@8 DQ FLAT:??_7type_info@@6B@	; std::bad_alloc `RTTI Type Descriptor'
	DQ	0000000000000000H
	DB	'.?AVbad_alloc@std@@', 00H
data$r	ENDS
;	COMDAT _CT??_R0?AVbad_array_new_length@std@@@8??0bad_array_new_length@std@@QEAA@AEBV01@@Z24
xdata$x	SEGMENT
_CT??_R0?AVbad_array_new_length@std@@@8??0bad_array_new_length@std@@QEAA@AEBV01@@Z24 DD 00H
	DD	imagerel ??_R0?AVbad_array_new_length@std@@@8
	DD	00H
	DD	0ffffffffH
	ORG $+4
	DD	018H
	DD	imagerel ??0bad_array_new_length@std@@QEAA@AEBV01@@Z
xdata$x	ENDS
;	COMDAT ??_R0?AVbad_array_new_length@std@@@8
data$r	SEGMENT
??_R0?AVbad_array_new_length@std@@@8 DQ FLAT:??_7type_info@@6B@ ; std::bad_array_new_length `RTTI Type Descriptor'
	DQ	0000000000000000H
	DB	'.?AVbad_array_new_length@std@@', 00H
data$r	ENDS
;	COMDAT _CTA3?AVbad_array_new_length@std@@
xdata$x	SEGMENT
_CTA3?AVbad_array_new_length@std@@ DD 03H
	DD	imagerel _CT??_R0?AVbad_array_new_length@std@@@8??0bad_array_new_length@std@@QEAA@AEBV01@@Z24
	DD	imagerel _CT??_R0?AVbad_alloc@std@@@8??0bad_alloc@std@@QEAA@AEBV01@@Z24
	DD	imagerel _CT??_R0?AVexception@std@@@8??0exception@std@@QEAA@AEBV01@@Z24
xdata$x	ENDS
;	COMDAT _TI3?AVbad_array_new_length@std@@
xdata$x	SEGMENT
_TI3?AVbad_array_new_length@std@@ DD 00H
	DD	imagerel ??1bad_array_new_length@std@@UEAA@XZ
	DD	00H
	DD	imagerel _CTA3?AVbad_array_new_length@std@@
xdata$x	ENDS
;	COMDAT ??_C@_0BF@KINCDENJ@bad?5array?5new?5length@
CONST	SEGMENT
??_C@_0BF@KINCDENJ@bad?5array?5new?5length@ DB 'bad array new length', 00H ; `string'
CONST	ENDS
;	COMDAT ??_7bad_array_new_length@std@@6B@
CONST	SEGMENT
??_7bad_array_new_length@std@@6B@ DQ FLAT:??_R4bad_array_new_length@std@@6B@ ; std::bad_array_new_length::`vftable'
	DQ	FLAT:??_Ebad_array_new_length@std@@UEAAPEAXI@Z
	DQ	FLAT:?what@exception@std@@UEBAPEBDXZ
CONST	ENDS
;	COMDAT ??_7bad_alloc@std@@6B@
CONST	SEGMENT
??_7bad_alloc@std@@6B@ DQ FLAT:??_R4bad_alloc@std@@6B@	; std::bad_alloc::`vftable'
	DQ	FLAT:??_Ebad_alloc@std@@UEAAPEAXI@Z
	DQ	FLAT:?what@exception@std@@UEBAPEBDXZ
CONST	ENDS
;	COMDAT ??_C@_0BC@EOODALEL@Unknown?5exception@
CONST	SEGMENT
??_C@_0BC@EOODALEL@Unknown?5exception@ DB 'Unknown exception', 00H ; `string'
CONST	ENDS
;	COMDAT ??_7exception@std@@6B@
CONST	SEGMENT
??_7exception@std@@6B@ DQ FLAT:??_R4exception@std@@6B@	; std::exception::`vftable'
	DQ	FLAT:??_Eexception@std@@UEAAPEAXI@Z
	DQ	FLAT:?what@exception@std@@UEBAPEBDXZ
CONST	ENDS
;	COMDAT xdata
xdata	SEGMENT
$unwind$??$_Voidify_iter@PEAPEAUPoint@@@std@@YAPEAXPEAPEAUPoint@@@Z DD 010601H
	DD	07006H
xdata	ENDS
;	COMDAT xdata
xdata	SEGMENT
$unwind$??$addressof@PEAUPoint@@@std@@YAPEAPEAUPoint@@AEAPEAU1@@Z DD 010601H
	DD	07006H
xdata	ENDS
;	COMDAT xdata
xdata	SEGMENT
$unwind$??$_Construct_in_place@PEAUPoint@@AEAPEAU1@@std@@YAXAEAPEAUPoint@@0@Z DD 020f01H
	DD	0700b520fH
xdata	ENDS
;	COMDAT xdata
xdata	SEGMENT
$unwind$??$forward@AEAPEAUPoint@@@std@@YAAEAPEAUPoint@@AEAPEAU1@@Z DD 010601H
	DD	07006H
xdata	ENDS
;	COMDAT xdata
xdata	SEGMENT
$unwind$??$_To_address@PEAPEAUPoint@@@std@@YA?A_PAEBQEAPEAUPoint@@@Z DD 010601H
	DD	07006H
xdata	ENDS
;	COMDAT xdata
xdata	SEGMENT
$unwind$??$forward@PEAPEAUPoint@@@std@@YA$$QEAPEAPEAUPoint@@AEAPEAPEAU1@@Z DD 010601H
	DD	07006H
xdata	ENDS
;	COMDAT xdata
xdata	SEGMENT
$unwind$??$_Emplace_back@AEAPEAUPoint@@@?$_Uninitialized_backout@PEAPEAUPoint@@@std@@QEAAXAEAPEAUPoint@@@Z DD 020f01H
	DD	0700b320fH
xdata	ENDS
;	COMDAT xdata
xdata	SEGMENT
$unwind$?_Release@?$_Uninitialized_backout@PEAPEAUPoint@@@std@@QEAAPEAPEAUPoint@@XZ DD 010601H
	DD	07006H
xdata	ENDS
;	COMDAT xdata
xdata	SEGMENT
$unwind$??1?$_Uninitialized_backout@PEAPEAUPoint@@@std@@QEAA@XZ DD 020a01H
	DD	07006320aH
xdata	ENDS
;	COMDAT xdata
xdata	SEGMENT
$unwind$??0?$_Uninitialized_backout@PEAPEAUPoint@@@std@@QEAA@PEAPEAUPoint@@@Z DD 010b01H
	DD	0700bH
xdata	ENDS
;	COMDAT xdata
xdata	SEGMENT
$unwind$??$_Copy_memmove@PEAPEAUPoint@@PEAPEAU1@@std@@YAPEAPEAUPoint@@PEAPEAU1@00@Z DD 021401H
	DD	07010b214H
xdata	ENDS
;	COMDAT xdata
xdata	SEGMENT
$unwind$??$_Verify_range@PEAUPoint@@@std@@YAXQEBQEAUPoint@@0@Z DD 020f01H
	DD	0700b520fH
xdata	ENDS
;	COMDAT xdata
xdata	SEGMENT
$unwind$??$_Zero_range@PEAPEAUPoint@@@std@@YAPEAPEAUPoint@@QEAPEAU1@0@Z DD 020f01H
	DD	0700b520fH
xdata	ENDS
;	COMDAT xdata
xdata	SEGMENT
$unwind$??$_Seek_wrapped@PEAPEAUPoint@@PEAPEAU1@@std@@YAXAEAPEAPEAUPoint@@$$QEAPEAPEAU1@@Z DD 020f01H
	DD	0700b320fH
xdata	ENDS
;	COMDAT voltbl
voltbl	SEGMENT
_volmd	DB	00H
	DB	05H
voltbl	ENDS
;	COMDAT xdata
xdata	SEGMENT
$unwind$?dtor$0@?0???$_Uninitialized_copy_unchecked@PEAPEAUPoint@@PEAPEAU1@@std@@YAPEAPEAUPoint@@PEAPEAU1@QEAPEAU1@0@Z@4HA DD 031001H
	DD	0700c4210H
	DD	0500bH
xdata	ENDS
;	COMDAT xdata
xdata	SEGMENT
$ip2state$??$_Uninitialized_copy_unchecked@PEAPEAUPoint@@PEAPEAU1@@std@@YAPEAPEAUPoint@@PEAPEAU1@QEAPEAU1@0@Z DB 02H
	DB	00H
	DB	00H
xdata	ENDS
;	COMDAT xdata
xdata	SEGMENT
$stateUnwindMap$??$_Uninitialized_copy_unchecked@PEAPEAUPoint@@PEAPEAU1@@std@@YAPEAPEAUPoint@@PEAPEAU1@QEAPEAU1@0@Z DB 02H
	DB	0eH
	DD	imagerel ?dtor$0@?0???$_Uninitialized_copy_unchecked@PEAPEAUPoint@@PEAPEAU1@@std@@YAPEAPEAUPoint@@PEAPEAU1@QEAPEAU1@0@Z@4HA
xdata	ENDS
;	COMDAT xdata
xdata	SEGMENT
$cppxdata$??$_Uninitialized_copy_unchecked@PEAPEAUPoint@@PEAPEAU1@@std@@YAPEAPEAUPoint@@PEAPEAU1@QEAPEAU1@0@Z DB 028H
	DD	imagerel $stateUnwindMap$??$_Uninitialized_copy_unchecked@PEAPEAUPoint@@PEAPEAU1@@std@@YAPEAPEAUPoint@@PEAPEAU1@QEAPEAU1@0@Z
	DD	imagerel $ip2state$??$_Uninitialized_copy_unchecked@PEAPEAUPoint@@PEAPEAU1@@std@@YAPEAPEAUPoint@@PEAPEAU1@QEAPEAU1@0@Z
xdata	ENDS
;	COMDAT xdata
xdata	SEGMENT
$unwind$??$_Uninitialized_copy_unchecked@PEAPEAUPoint@@PEAPEAU1@@std@@YAPEAPEAUPoint@@PEAPEAU1@QEAPEAU1@0@Z DD 022a11H
	DD	070109214H
	DD	imagerel __CxxFrameHandler4
	DD	imagerel $cppxdata$??$_Uninitialized_copy_unchecked@PEAPEAUPoint@@PEAPEAU1@@std@@YAPEAPEAUPoint@@PEAPEAU1@QEAPEAU1@0@Z
xdata	ENDS
;	COMDAT CONST
CONST	SEGMENT
??$_Uninitialized_copy_unchecked@PEAPEAUPoint@@PEAPEAU1@@std@@YAPEAPEAUPoint@@PEAPEAU1@QEAPEAU1@0@Z$rtcName$0 DB 05fH ; std::_Uninitialized_copy_unchecked<Point * *,Point * *>
	DB	042H
	DB	061H
	DB	063H
	DB	06bH
	DB	06fH
	DB	075H
	DB	074H
	DB	00H
	ORG $+7
??$_Uninitialized_copy_unchecked@PEAPEAUPoint@@PEAPEAU1@@std@@YAPEAPEAUPoint@@PEAPEAU1@QEAPEAU1@0@Z$rtcVarDesc DD 028H ; std::_Uninitialized_copy_unchecked<Point * *,Point * *>
	DD	010H
	DQ	FLAT:??$_Uninitialized_copy_unchecked@PEAPEAUPoint@@PEAPEAU1@@std@@YAPEAPEAUPoint@@PEAPEAU1@QEAPEAU1@0@Z$rtcName$0
	ORG $+48
??$_Uninitialized_copy_unchecked@PEAPEAUPoint@@PEAPEAU1@@std@@YAPEAPEAUPoint@@PEAPEAU1@QEAPEAU1@0@Z$rtcFrameData DD 01H ; std::_Uninitialized_copy_unchecked<Point * *,Point * *>
	DD	00H
	DQ	FLAT:??$_Uninitialized_copy_unchecked@PEAPEAUPoint@@PEAPEAU1@@std@@YAPEAPEAUPoint@@PEAPEAU1@QEAPEAU1@0@Z$rtcVarDesc
CONST	ENDS
;	COMDAT xdata
xdata	SEGMENT
$unwind$??$_Get_unwrapped_n@AEAPEAPEAUPoint@@_J@std@@YA?A_TAEAPEAPEAUPoint@@_J@Z DD 010b01H
	DD	0700bH
xdata	ENDS
;	COMDAT xdata
xdata	SEGMENT
$unwind$??$_Idl_distance@PEAPEAUPoint@@PEAPEAU1@@std@@YA?A_PAEBQEAPEAUPoint@@0@Z DD 010b01H
	DD	0700bH
xdata	ENDS
;	COMDAT xdata
xdata	SEGMENT
$unwind$??$_Get_unwrapped@AEBQEAPEAUPoint@@@std@@YA?A_TAEBQEAPEAUPoint@@@Z DD 010601H
	DD	07006H
xdata	ENDS
;	COMDAT xdata
xdata	SEGMENT
$unwind$??$_Adl_verify_range@PEAPEAUPoint@@PEAPEAU1@@std@@YAXAEBQEAPEAUPoint@@0@Z DD 020f01H
	DD	0700b320fH
xdata	ENDS
;	COMDAT xdata
xdata	SEGMENT
$unwind$??$_Voidify_iter@PEAUPoint@@@std@@YAPEAXPEAUPoint@@@Z DD 010601H
	DD	07006H
xdata	ENDS
;	COMDAT xdata
xdata	SEGMENT
$unwind$?deallocate@?$_Default_allocator_traits@V?$allocator@U_Container_proxy@std@@@std@@@std@@SAXAEAV?$allocator@U_Container_proxy@std@@@2@QEAU_Container_proxy@2@_K@Z DD 021401H
	DD	070103214H
xdata	ENDS
;	COMDAT xdata
xdata	SEGMENT
$unwind$??$_Get_size_of_n@$07@std@@YA_K_K@Z DD 020a01H
	DD	07006520aH
xdata	ENDS
;	COMDAT xdata
xdata	SEGMENT
$unwind$??$_Destroy_range@PEAPEAUPoint@@PEAPEAU1@@std@@YAXPEAPEAUPoint@@QEAPEAU1@@Z DD 010b01H
	DD	0700bH
xdata	ENDS
;	COMDAT xdata
xdata	SEGMENT
$unwind$??$_Uninitialized_value_construct_n_unchecked1@PEAPEAUPoint@@_K@std@@YAPEAPEAUPoint@@PEAPEAU1@_K@Z DD 020f01H
	DD	0700b320fH
xdata	ENDS
;	COMDAT xdata
xdata	SEGMENT
$unwind$??$uninitialized_copy@PEAPEAUPoint@@PEAPEAU1@@std@@YAPEAPEAUPoint@@QEAPEAU1@0PEAPEAU1@@Z DD 022d01H
	DD	07010d214H
xdata	ENDS
;	COMDAT CONST
CONST	SEGMENT
??$uninitialized_copy@PEAPEAUPoint@@PEAPEAU1@@std@@YAPEAPEAUPoint@@QEAPEAU1@0PEAPEAU1@@Z$rtcName$0 DB 05fH ; std::uninitialized_copy<Point * *,Point * *>
	DB	055H
	DB	046H
	DB	069H
	DB	072H
	DB	073H
	DB	074H
	DB	00H
??$uninitialized_copy@PEAPEAUPoint@@PEAPEAU1@@std@@YAPEAPEAUPoint@@QEAPEAU1@0PEAPEAU1@@Z$rtcName$1 DB 05fH ; std::uninitialized_copy<Point * *,Point * *>
	DB	055H
	DB	04cH
	DB	061H
	DB	073H
	DB	074H
	DB	00H
	ORG $+1
??$uninitialized_copy@PEAPEAUPoint@@PEAPEAU1@@std@@YAPEAPEAUPoint@@QEAPEAU1@0PEAPEAU1@@Z$rtcVarDesc DD 048H ; std::uninitialized_copy<Point * *,Point * *>
	DD	08H
	DQ	FLAT:??$uninitialized_copy@PEAPEAUPoint@@PEAPEAU1@@std@@YAPEAPEAUPoint@@QEAPEAU1@0PEAPEAU1@@Z$rtcName$1
	DD	028H
	DD	08H
	DQ	FLAT:??$uninitialized_copy@PEAPEAUPoint@@PEAPEAU1@@std@@YAPEAPEAUPoint@@QEAPEAU1@0PEAPEAU1@@Z$rtcName$0
	ORG $+96
??$uninitialized_copy@PEAPEAUPoint@@PEAPEAU1@@std@@YAPEAPEAUPoint@@QEAPEAU1@0PEAPEAU1@@Z$rtcFrameData DD 02H ; std::uninitialized_copy<Point * *,Point * *>
	DD	00H
	DQ	FLAT:??$uninitialized_copy@PEAPEAUPoint@@PEAPEAU1@@std@@YAPEAPEAUPoint@@QEAPEAU1@0PEAPEAU1@@Z$rtcVarDesc
CONST	ENDS
;	COMDAT xdata
xdata	SEGMENT
$unwind$??$_Allocate_manually_vector_aligned@U_Default_allocate_traits@std@@@std@@YAPEAX_K@Z DD 020a01H
	DD	07006920aH
xdata	ENDS
;	COMDAT xdata
xdata	SEGMENT
$unwind$??$construct@UPoint@@AEBU1@@?$_Default_allocator_traits@V?$allocator@UPoint@@@std@@@std@@SAXAEAV?$allocator@UPoint@@@1@QEAUPoint@@AEBU3@@Z DD 021401H
	DD	070105214H
xdata	ENDS
;	COMDAT xdata
xdata	SEGMENT
$unwind$??$forward@AEBUPoint@@@std@@YAAEBUPoint@@AEBU1@@Z DD 010601H
	DD	07006H
xdata	ENDS
;	COMDAT xdata
xdata	SEGMENT
$unwind$??$forward@PEAU_Container_base12@std@@@std@@YA$$QEAPEAU_Container_base12@0@AEAPEAU10@@Z DD 010601H
	DD	07006H
xdata	ENDS
;	COMDAT xdata
xdata	SEGMENT
$unwind$??$_Voidify_iter@PEAU_Container_proxy@std@@@std@@YAPEAXPEAU_Container_proxy@0@@Z DD 010601H
	DD	07006H
xdata	ENDS
;	COMDAT xdata
xdata	SEGMENT
$unwind$??$addressof@U_Container_proxy@std@@@std@@YAPEAU_Container_proxy@0@AEAU10@@Z DD 010601H
	DD	07006H
xdata	ENDS
;	COMDAT xdata
xdata	SEGMENT
$ip2state$??$_Deallocate_plain@V?$allocator@U_Container_proxy@std@@@std@@@std@@YAXAEAV?$allocator@U_Container_proxy@std@@@0@QEAU_Container_proxy@0@@Z DB 02H
	DB	00H
	DB	00H
xdata	ENDS
;	COMDAT xdata
xdata	SEGMENT
$cppxdata$??$_Deallocate_plain@V?$allocator@U_Container_proxy@std@@@std@@@std@@YAXAEAV?$allocator@U_Container_proxy@std@@@0@QEAU_Container_proxy@0@@Z DB 060H
	DD	imagerel $ip2state$??$_Deallocate_plain@V?$allocator@U_Container_proxy@std@@@std@@@std@@YAXAEAV?$allocator@U_Container_proxy@std@@@0@QEAU_Container_proxy@0@@Z
xdata	ENDS
;	COMDAT xdata
xdata	SEGMENT
$unwind$??$_Deallocate_plain@V?$allocator@U_Container_proxy@std@@@std@@@std@@YAXAEAV?$allocator@U_Container_proxy@std@@@0@QEAU_Container_proxy@0@@Z DD 020f19H
	DD	0700b320fH
	DD	imagerel __CxxFrameHandler4
	DD	imagerel $cppxdata$??$_Deallocate_plain@V?$allocator@U_Container_proxy@std@@@std@@@std@@YAXAEAV?$allocator@U_Container_proxy@std@@@0@QEAU_Container_proxy@0@@Z
xdata	ENDS
;	COMDAT xdata
xdata	SEGMENT
$ip2state$??$_Deallocate@$0BA@$0A@@std@@YAXPEAX_K@Z DB 02H
	DB	00H
	DB	00H
xdata	ENDS
;	COMDAT xdata
xdata	SEGMENT
$cppxdata$??$_Deallocate@$0BA@$0A@@std@@YAXPEAX_K@Z DB 060H
	DD	imagerel $ip2state$??$_Deallocate@$0BA@$0A@@std@@YAXPEAX_K@Z
xdata	ENDS
;	COMDAT xdata
xdata	SEGMENT
$unwind$??$_Deallocate@$0BA@$0A@@std@@YAXPEAX_K@Z DD 020f19H
	DD	0700b320fH
	DD	imagerel __CxxFrameHandler4
	DD	imagerel $cppxdata$??$_Deallocate@$0BA@$0A@@std@@YAXPEAX_K@Z
xdata	ENDS
;	COMDAT xdata
xdata	SEGMENT
$unwind$??$addressof@V?$_Deque_val@U?$_Deque_simple_types@UPoint@@@std@@@std@@@std@@YAPEAV?$_Deque_val@U?$_Deque_simple_types@UPoint@@@std@@@0@AEAV10@@Z DD 010601H
	DD	07006H
xdata	ENDS
;	COMDAT xdata
xdata	SEGMENT
$unwind$??$_Allocate@$0BA@U_Default_allocate_traits@std@@$0A@@std@@YAPEAX_K@Z DD 020a01H
	DD	07006320aH
xdata	ENDS
;	COMDAT xdata
xdata	SEGMENT
$unwind$??$_Get_size_of_n@$0BA@@std@@YA_K_K@Z DD 020a01H
	DD	07006520aH
xdata	ENDS
;	COMDAT xdata
xdata	SEGMENT
$unwind$??$_Prev_iter@V?$_Deque_unchecked_iterator@V?$_Deque_val@U?$_Deque_simple_types@UPoint@@@std@@@std@@@std@@@std@@YA?AV?$_Deque_unchecked_iterator@V?$_Deque_val@U?$_Deque_simple_types@UPoint@@@std@@@std@@@0@V10@@Z DD 031001H
	DD	0700c4210H
	DD	0600bH
xdata	ENDS
;	COMDAT xdata
xdata	SEGMENT
$unwind$??0?$_Deque_unchecked_iterator@V?$_Deque_val@U?$_Deque_simple_types@UPoint@@@std@@@std@@@std@@QEAA@_KPEBU_Container_base12@1@@Z DD 021401H
	DD	070103214H
xdata	ENDS
;	COMDAT xdata
xdata	SEGMENT
$unwind$??F?$_Deque_unchecked_iterator@V?$_Deque_val@U?$_Deque_simple_types@UPoint@@@std@@@std@@@std@@QEAAAEAV01@XZ DD 020a01H
	DD	07006320aH
xdata	ENDS
;	COMDAT xdata
xdata	SEGMENT
$unwind$??D?$_Deque_unchecked_iterator@V?$_Deque_val@U?$_Deque_simple_types@UPoint@@@std@@@std@@@std@@QEBAAEAUPoint@@XZ DD 020a01H
	DD	07006320aH
xdata	ENDS
;	COMDAT xdata
xdata	SEGMENT
$unwind$??F?$_Deque_unchecked_const_iterator@V?$_Deque_val@U?$_Deque_simple_types@UPoint@@@std@@@std@@@std@@QEAAAEAV01@XZ DD 010601H
	DD	07006H
xdata	ENDS
;	COMDAT xdata
xdata	SEGMENT
$unwind$??D?$_Deque_unchecked_const_iterator@V?$_Deque_val@U?$_Deque_simple_types@UPoint@@@std@@@std@@@std@@QEBAAEBUPoint@@XZ DD 020a01H
	DD	07006520aH
xdata	ENDS
;	COMDAT xdata
xdata	SEGMENT
$unwind$??0?$_Deque_unchecked_const_iterator@V?$_Deque_val@U?$_Deque_simple_types@UPoint@@@std@@@std@@@std@@QEAA@_KPEBU_Container_base12@1@@Z DD 011001H
	DD	07010H
xdata	ENDS
;	COMDAT xdata
xdata	SEGMENT
$unwind$??$_Emplace_back_internal@AEBUPoint@@@?$deque@UPoint@@V?$allocator@UPoint@@@std@@@std@@AEAAXAEBUPoint@@@Z DD 021201H
	DD	0700bf212H
xdata	ENDS
;	COMDAT xdata
xdata	SEGMENT
$unwind$??$destroy@UPoint@@@?$_Default_allocator_traits@V?$allocator@UPoint@@@std@@@std@@SAXAEAV?$allocator@UPoint@@@1@QEAUPoint@@@Z DD 010b01H
	DD	0700bH
xdata	ENDS
;	COMDAT xdata
xdata	SEGMENT
$unwind$??$_Unfancy@UPoint@@@std@@YAPEAUPoint@@PEAU1@@Z DD 010601H
	DD	07006H
xdata	ENDS
;	COMDAT xdata
xdata	SEGMENT
$unwind$??$_Destroy_in_place@PEAUPoint@@@std@@YAXAEAPEAUPoint@@@Z DD 010601H
	DD	07006H
xdata	ENDS
;	COMDAT xdata
xdata	SEGMENT
$unwind$??$?0UPoint@@@?$allocator@PEAUPoint@@@std@@QEAA@AEBV?$allocator@UPoint@@@1@@Z DD 010b01H
	DD	0700bH
xdata	ENDS
;	COMDAT xdata
xdata	SEGMENT
$unwind$??$_Construct_in_place@U_Container_proxy@std@@PEAU_Container_base12@2@@std@@YAXAEAU_Container_proxy@0@$$QEAPEAU_Container_base12@0@@Z DD 020f01H
	DD	0700b520fH
xdata	ENDS
;	COMDAT xdata
xdata	SEGMENT
$unwind$??$_Unfancy@U_Container_proxy@std@@@std@@YAPEAU_Container_proxy@0@PEAU10@@Z DD 010601H
	DD	07006H
xdata	ENDS
;	COMDAT xdata
xdata	SEGMENT
$unwind$??$min@_K@std@@YAAEB_KAEB_K0@Z DD 020f01H
	DD	0700b120fH
xdata	ENDS
;	COMDAT xdata
xdata	SEGMENT
$unwind$??Bsentry@?$basic_ostream@DU?$char_traits@D@std@@@std@@QEBA_NXZ DD 010601H
	DD	07006H
xdata	ENDS
;	COMDAT xdata
xdata	SEGMENT
$ip2state$??1sentry@?$basic_ostream@DU?$char_traits@D@std@@@std@@QEAA@XZ DB 02H
	DB	00H
	DB	00H
xdata	ENDS
;	COMDAT xdata
xdata	SEGMENT
$cppxdata$??1sentry@?$basic_ostream@DU?$char_traits@D@std@@@std@@QEAA@XZ DB 060H
	DD	imagerel $ip2state$??1sentry@?$basic_ostream@DU?$char_traits@D@std@@@std@@QEAA@XZ
xdata	ENDS
;	COMDAT xdata
xdata	SEGMENT
$unwind$??1sentry@?$basic_ostream@DU?$char_traits@D@std@@@std@@QEAA@XZ DD 020a19H
	DD	07006520aH
	DD	imagerel __CxxFrameHandler4
	DD	imagerel $cppxdata$??1sentry@?$basic_ostream@DU?$char_traits@D@std@@@std@@QEAA@XZ
xdata	ENDS
;	COMDAT voltbl
voltbl	SEGMENT
_volmd	DB	00H
	DB	05H
voltbl	ENDS
;	COMDAT xdata
xdata	SEGMENT
$unwind$?dtor$0@?0???0sentry@?$basic_ostream@DU?$char_traits@D@std@@@std@@QEAA@AEAV12@@Z@4HA DD 031001H
	DD	0700c4210H
	DD	0500bH
xdata	ENDS
;	COMDAT xdata
xdata	SEGMENT
$ip2state$??0sentry@?$basic_ostream@DU?$char_traits@D@std@@@std@@QEAA@AEAV12@@Z DB 06H
	DB	00H
	DB	00H
	DB	'>'
	DB	02H
	DB	0a5H, 02H
	DB	00H
xdata	ENDS
;	COMDAT xdata
xdata	SEGMENT
$stateUnwindMap$??0sentry@?$basic_ostream@DU?$char_traits@D@std@@@std@@QEAA@AEAV12@@Z DB 02H
	DB	0eH
	DD	imagerel ?dtor$0@?0???0sentry@?$basic_ostream@DU?$char_traits@D@std@@@std@@QEAA@AEAV12@@Z@4HA
xdata	ENDS
;	COMDAT xdata
xdata	SEGMENT
$cppxdata$??0sentry@?$basic_ostream@DU?$char_traits@D@std@@@std@@QEAA@AEAV12@@Z DB 028H
	DD	imagerel $stateUnwindMap$??0sentry@?$basic_ostream@DU?$char_traits@D@std@@@std@@QEAA@AEAV12@@Z
	DD	imagerel $ip2state$??0sentry@?$basic_ostream@DU?$char_traits@D@std@@@std@@QEAA@AEAV12@@Z
xdata	ENDS
;	COMDAT xdata
xdata	SEGMENT
$unwind$??0sentry@?$basic_ostream@DU?$char_traits@D@std@@@std@@QEAA@AEAV12@@Z DD 020f11H
	DD	0700b520fH
	DD	imagerel __CxxFrameHandler4
	DD	imagerel $cppxdata$??0sentry@?$basic_ostream@DU?$char_traits@D@std@@@std@@QEAA@AEAV12@@Z
xdata	ENDS
;	COMDAT xdata
xdata	SEGMENT
$ip2state$??1_Sentry_base@?$basic_ostream@DU?$char_traits@D@std@@@std@@QEAA@XZ DB 02H
	DB	00H
	DB	00H
xdata	ENDS
;	COMDAT xdata
xdata	SEGMENT
$cppxdata$??1_Sentry_base@?$basic_ostream@DU?$char_traits@D@std@@@std@@QEAA@XZ DB 060H
	DD	imagerel $ip2state$??1_Sentry_base@?$basic_ostream@DU?$char_traits@D@std@@@std@@QEAA@XZ
xdata	ENDS
;	COMDAT xdata
xdata	SEGMENT
$unwind$??1_Sentry_base@?$basic_ostream@DU?$char_traits@D@std@@@std@@QEAA@XZ DD 020a19H
	DD	07006520aH
	DD	imagerel __CxxFrameHandler4
	DD	imagerel $cppxdata$??1_Sentry_base@?$basic_ostream@DU?$char_traits@D@std@@@std@@QEAA@XZ
xdata	ENDS
;	COMDAT xdata
xdata	SEGMENT
$unwind$??0_Sentry_base@?$basic_ostream@DU?$char_traits@D@std@@@std@@QEAA@AEAV12@@Z DD 020f01H
	DD	0700b520fH
xdata	ENDS
;	COMDAT xdata
xdata	SEGMENT
$unwind$??$_Alloc_proxy@V?$allocator@U_Container_proxy@std@@@std@@@_Container_base12@std@@QEAAX$$QEAV?$allocator@U_Container_proxy@std@@@1@@Z DD 020f01H
	DD	0700b520fH
xdata	ENDS
;	COMDAT xdata
xdata	SEGMENT
$unwind$??$?0$$V@?$_Compressed_pair@V?$allocator@UPoint@@@std@@V?$_Deque_val@U?$_Deque_simple_types@UPoint@@@std@@@2@$00@std@@QEAA@U_Zero_then_variadic_args_t@1@@Z DD 020e01H
	DD	0700a320eH
xdata	ENDS
;	COMDAT xdata
xdata	SEGMENT
$unwind$??$_Delete_plain_internal@V?$allocator@U_Container_proxy@std@@@std@@@std@@YAXAEAV?$allocator@U_Container_proxy@std@@@0@QEAU_Container_proxy@0@@Z DD 020f01H
	DD	0700b320fH
xdata	ENDS
;	COMDAT xdata
xdata	SEGMENT
$unwind$??$exchange@PEAU_Container_proxy@std@@$$T@std@@YAPEAU_Container_proxy@0@AEAPEAU10@$$QEA$$T@Z DD 020f01H
	DD	0700b120fH
xdata	ENDS
;	COMDAT xdata
xdata	SEGMENT
$unwind$??$?0UPoint@@@?$allocator@U_Container_proxy@std@@@std@@QEAA@AEBV?$allocator@UPoint@@@1@@Z DD 010b01H
	DD	0700bH
xdata	ENDS
;	COMDAT xdata
xdata	SEGMENT
$unwind$?allocate@?$allocator@U_Container_proxy@std@@@std@@QEAAPEAU_Container_proxy@2@_K@Z DD 020f01H
	DD	0700b320fH
xdata	ENDS
;	COMDAT xdata
xdata	SEGMENT
$unwind$??$endl@DU?$char_traits@D@std@@@std@@YAAEAV?$basic_ostream@DU?$char_traits@D@std@@@0@AEAV10@@Z DD 020a01H
	DD	07006320aH
xdata	ENDS
;	COMDAT voltbl
voltbl	SEGMENT
_volmd	DB	00H
	DB	05H
voltbl	ENDS
;	COMDAT voltbl
voltbl	SEGMENT
_volmd	DB	00H
	DB	05H
voltbl	ENDS
;	COMDAT xdata
xdata	SEGMENT
$unwind$?catch$1@?0???$?6U?$char_traits@D@std@@@std@@YAAEAV?$basic_ostream@DU?$char_traits@D@std@@@0@AEAV10@PEBD@Z@4HA DD 031001H
	DD	0700c4210H
	DD	0500bH
xdata	ENDS
;	COMDAT xdata
xdata	SEGMENT
$unwind$?dtor$0@?0???$?6U?$char_traits@D@std@@@std@@YAAEAV?$basic_ostream@DU?$char_traits@D@std@@@0@AEAV10@PEBD@Z@4HA DD 031001H
	DD	0700c4210H
	DD	0500bH
xdata	ENDS
;	COMDAT xdata
xdata	SEGMENT
$ip2state$??$?6U?$char_traits@D@std@@@std@@YAAEAV?$basic_ostream@DU?$char_traits@D@std@@@0@AEAV10@PEBD@Z DB 0aH
	DB	00H
	DB	00H
	DB	0f9H, 03H
	DB	02H
	DB	'B'
	DB	04H
	DB	019H, 0aH
	DB	02H
	DB	'x'
	DB	00H
xdata	ENDS
;	COMDAT xdata
xdata	SEGMENT
$handlerMap$??$?6U?$char_traits@D@std@@@std@@YAAEAV?$basic_ostream@DU?$char_traits@D@std@@@0@AEAV10@PEBD@Z DB 02H
	DB	01H
	DB	080H
	DD	imagerel ?catch$1@?0???$?6U?$char_traits@D@std@@@std@@YAAEAV?$basic_ostream@DU?$char_traits@D@std@@@0@AEAV10@PEBD@Z@4HA
xdata	ENDS
;	COMDAT xdata
xdata	SEGMENT
$tryMap$??$?6U?$char_traits@D@std@@@std@@YAAEAV?$basic_ostream@DU?$char_traits@D@std@@@0@AEAV10@PEBD@Z DB 02H
	DB	02H
	DB	02H
	DB	04H
	DD	imagerel $handlerMap$??$?6U?$char_traits@D@std@@@std@@YAAEAV?$basic_ostream@DU?$char_traits@D@std@@@0@AEAV10@PEBD@Z
xdata	ENDS
;	COMDAT xdata
xdata	SEGMENT
$stateUnwindMap$??$?6U?$char_traits@D@std@@@std@@YAAEAV?$basic_ostream@DU?$char_traits@D@std@@@0@AEAV10@PEBD@Z DB 06H
	DB	0eH
	DD	imagerel ?dtor$0@?0???$?6U?$char_traits@D@std@@@std@@YAAEAV?$basic_ostream@DU?$char_traits@D@std@@@0@AEAV10@PEBD@Z@4HA
	DB	028H
	DB	030H
xdata	ENDS
;	COMDAT xdata
xdata	SEGMENT
$cppxdata$??$?6U?$char_traits@D@std@@@std@@YAAEAV?$basic_ostream@DU?$char_traits@D@std@@@0@AEAV10@PEBD@Z DB 038H
	DD	imagerel $stateUnwindMap$??$?6U?$char_traits@D@std@@@std@@YAAEAV?$basic_ostream@DU?$char_traits@D@std@@@0@AEAV10@PEBD@Z
	DD	imagerel $tryMap$??$?6U?$char_traits@D@std@@@std@@YAAEAV?$basic_ostream@DU?$char_traits@D@std@@@0@AEAV10@PEBD@Z
	DD	imagerel $ip2state$??$?6U?$char_traits@D@std@@@std@@YAAEAV?$basic_ostream@DU?$char_traits@D@std@@@0@AEAV10@PEBD@Z
xdata	ENDS
;	COMDAT xdata
xdata	SEGMENT
$unwind$??$?6U?$char_traits@D@std@@@std@@YAAEAV?$basic_ostream@DU?$char_traits@D@std@@@0@AEAV10@PEBD@Z DD 032b19H
	DD	01a0112H
	DD	0700bH
	DD	imagerel __CxxFrameHandler4
	DD	imagerel $cppxdata$??$?6U?$char_traits@D@std@@@std@@YAAEAV?$basic_ostream@DU?$char_traits@D@std@@@0@AEAV10@PEBD@Z
xdata	ENDS
;	COMDAT CONST
CONST	SEGMENT
??$?6U?$char_traits@D@std@@@std@@YAAEAV?$basic_ostream@DU?$char_traits@D@std@@@0@AEAV10@PEBD@Z$rtcName$0 DB 05fH ; std::operator<<<std::char_traits<char> >
	DB	04fH
	DB	06bH
	DB	00H
	ORG $+12
??$?6U?$char_traits@D@std@@@std@@YAAEAV?$basic_ostream@DU?$char_traits@D@std@@@0@AEAV10@PEBD@Z$rtcVarDesc DD 048H ; std::operator<<<std::char_traits<char> >
	DD	010H
	DQ	FLAT:??$?6U?$char_traits@D@std@@@std@@YAAEAV?$basic_ostream@DU?$char_traits@D@std@@@0@AEAV10@PEBD@Z$rtcName$0
	ORG $+48
??$?6U?$char_traits@D@std@@@std@@YAAEAV?$basic_ostream@DU?$char_traits@D@std@@@0@AEAV10@PEBD@Z$rtcFrameData DD 01H ; std::operator<<<std::char_traits<char> >
	DD	00H
	DQ	FLAT:??$?6U?$char_traits@D@std@@@std@@YAAEAV?$basic_ostream@DU?$char_traits@D@std@@@0@AEAV10@PEBD@Z$rtcVarDesc
CONST	ENDS
;	COMDAT xdata
xdata	SEGMENT
$unwind$??1?$stack@UPoint@@V?$deque@UPoint@@V?$allocator@UPoint@@@std@@@std@@@std@@QEAA@XZ DD 020a01H
	DD	07006320aH
xdata	ENDS
;	COMDAT xdata
xdata	SEGMENT
$unwind$?pop@?$stack@UPoint@@V?$deque@UPoint@@V?$allocator@UPoint@@@std@@@std@@@std@@QEAAXXZ DD 020a01H
	DD	07006320aH
xdata	ENDS
;	COMDAT xdata
xdata	SEGMENT
$unwind$?push@?$stack@UPoint@@V?$deque@UPoint@@V?$allocator@UPoint@@@std@@@std@@@std@@QEAAXAEBUPoint@@@Z DD 020f01H
	DD	0700b320fH
xdata	ENDS
;	COMDAT xdata
xdata	SEGMENT
$unwind$?top@?$stack@UPoint@@V?$deque@UPoint@@V?$allocator@UPoint@@@std@@@std@@@std@@QEAAAEAUPoint@@XZ DD 020a01H
	DD	07006320aH
xdata	ENDS
;	COMDAT xdata
xdata	SEGMENT
$unwind$?size@?$stack@UPoint@@V?$deque@UPoint@@V?$allocator@UPoint@@@std@@@std@@@std@@QEBA_KXZ DD 020a01H
	DD	07006320aH
xdata	ENDS
;	COMDAT xdata
xdata	SEGMENT
$unwind$?empty@?$stack@UPoint@@V?$deque@UPoint@@V?$allocator@UPoint@@@std@@@std@@@std@@QEBA_NXZ DD 020a01H
	DD	07006320aH
xdata	ENDS
;	COMDAT xdata
xdata	SEGMENT
$ip2state$??0?$stack@UPoint@@V?$deque@UPoint@@V?$allocator@UPoint@@@std@@@std@@@std@@QEAA@XZ DB 02H
	DB	00H
	DB	00H
xdata	ENDS
;	COMDAT xdata
xdata	SEGMENT
$cppxdata$??0?$stack@UPoint@@V?$deque@UPoint@@V?$allocator@UPoint@@@std@@@std@@@std@@QEAA@XZ DB 060H
	DD	imagerel $ip2state$??0?$stack@UPoint@@V?$deque@UPoint@@V?$allocator@UPoint@@@std@@@std@@@std@@QEAA@XZ
xdata	ENDS
;	COMDAT xdata
xdata	SEGMENT
$unwind$??0?$stack@UPoint@@V?$deque@UPoint@@V?$allocator@UPoint@@@std@@@std@@@std@@QEAA@XZ DD 020a19H
	DD	07006320aH
	DD	imagerel __CxxFrameHandler4
	DD	imagerel $cppxdata$??0?$stack@UPoint@@V?$deque@UPoint@@V?$allocator@UPoint@@@std@@@std@@@std@@QEAA@XZ
xdata	ENDS
;	COMDAT xdata
xdata	SEGMENT
$unwind$?_Get_first@?$_Compressed_pair@V?$allocator@UPoint@@@std@@V?$_Deque_val@U?$_Deque_simple_types@UPoint@@@std@@@2@$00@std@@QEBAAEBV?$allocator@UPoint@@@2@XZ DD 010601H
	DD	07006H
xdata	ENDS
;	COMDAT xdata
xdata	SEGMENT
$unwind$?_Get_first@?$_Compressed_pair@V?$allocator@UPoint@@@std@@V?$_Deque_val@U?$_Deque_simple_types@UPoint@@@std@@@2@$00@std@@QEAAAEAV?$allocator@UPoint@@@2@XZ DD 010601H
	DD	07006H
xdata	ENDS
;	COMDAT xdata
xdata	SEGMENT
$unwind$?_Mysize@?$deque@UPoint@@V?$allocator@UPoint@@@std@@@std@@AEBAAEB_KXZ DD 020a01H
	DD	07006320aH
xdata	ENDS
;	COMDAT xdata
xdata	SEGMENT
$unwind$?_Mysize@?$deque@UPoint@@V?$allocator@UPoint@@@std@@@std@@AEAAAEA_KXZ DD 020a01H
	DD	07006320aH
xdata	ENDS
;	COMDAT xdata
xdata	SEGMENT
$unwind$?_Myoff@?$deque@UPoint@@V?$allocator@UPoint@@@std@@@std@@AEBAAEB_KXZ DD 020a01H
	DD	07006320aH
xdata	ENDS
;	COMDAT xdata
xdata	SEGMENT
$unwind$?_Myoff@?$deque@UPoint@@V?$allocator@UPoint@@@std@@@std@@AEAAAEA_KXZ DD 020a01H
	DD	07006320aH
xdata	ENDS
;	COMDAT xdata
xdata	SEGMENT
$unwind$?_Mapsize@?$deque@UPoint@@V?$allocator@UPoint@@@std@@@std@@AEAAAEA_KXZ DD 020a01H
	DD	07006320aH
xdata	ENDS
;	COMDAT xdata
xdata	SEGMENT
$unwind$?_Map@?$deque@UPoint@@V?$allocator@UPoint@@@std@@@std@@AEAAAEAPEAPEAUPoint@@XZ DD 020a01H
	DD	07006320aH
xdata	ENDS
;	COMDAT xdata
xdata	SEGMENT
$unwind$?_Get_data@?$deque@UPoint@@V?$allocator@UPoint@@@std@@@std@@AEBAAEBV?$_Deque_val@U?$_Deque_simple_types@UPoint@@@std@@@2@XZ DD 010601H
	DD	07006H
xdata	ENDS
;	COMDAT xdata
xdata	SEGMENT
$unwind$?_Get_data@?$deque@UPoint@@V?$allocator@UPoint@@@std@@@std@@AEAAAEAV?$_Deque_val@U?$_Deque_simple_types@UPoint@@@std@@@2@XZ DD 010601H
	DD	07006H
xdata	ENDS
;	COMDAT xdata
xdata	SEGMENT
$unwind$?_Getal@?$deque@UPoint@@V?$allocator@UPoint@@@std@@@std@@AEBAAEBV?$allocator@UPoint@@@2@XZ DD 020a01H
	DD	07006320aH
xdata	ENDS
;	COMDAT xdata
xdata	SEGMENT
$unwind$?_Getal@?$deque@UPoint@@V?$allocator@UPoint@@@std@@@std@@AEAAAEAV?$allocator@UPoint@@@2@XZ DD 020a01H
	DD	07006320aH
xdata	ENDS
;	COMDAT xdata
xdata	SEGMENT
$unwind$?_Orphan_all@?$deque@UPoint@@V?$allocator@UPoint@@@std@@@std@@AEAAXXZ DD 020a01H
	DD	07006320aH
xdata	ENDS
;	COMDAT xdata
xdata	SEGMENT
$unwind$?_Getblock@?$deque@UPoint@@V?$allocator@UPoint@@@std@@@std@@AEBA_K_K@Z DD 020f01H
	DD	0700b320fH
xdata	ENDS
;	COMDAT xdata
xdata	SEGMENT
$unwind$?_Orphan_off@?$deque@UPoint@@V?$allocator@UPoint@@@std@@@std@@AEBAX_K@Z DD 022801H
	DD	0700bd20fH
xdata	ENDS
;	COMDAT CONST
CONST	SEGMENT
?_Orphan_off@?$deque@UPoint@@V?$allocator@UPoint@@@std@@@std@@AEBAX_K@Z$rtcName$0 DB 05fH ; std::deque<Point,std::allocator<Point> >::_Orphan_off
	DB	04cH
	DB	06fH
	DB	063H
	DB	06bH
	DB	00H
	ORG $+10
?_Orphan_off@?$deque@UPoint@@V?$allocator@UPoint@@@std@@@std@@AEBAX_K@Z$rtcVarDesc DD 034H ; std::deque<Point,std::allocator<Point> >::_Orphan_off
	DD	04H
	DQ	FLAT:?_Orphan_off@?$deque@UPoint@@V?$allocator@UPoint@@@std@@@std@@AEBAX_K@Z$rtcName$0
	ORG $+48
?_Orphan_off@?$deque@UPoint@@V?$allocator@UPoint@@@std@@@std@@AEBAX_K@Z$rtcFrameData DD 01H ; std::deque<Point,std::allocator<Point> >::_Orphan_off
	DD	00H
	DQ	FLAT:?_Orphan_off@?$deque@UPoint@@V?$allocator@UPoint@@@std@@@std@@AEBAX_K@Z$rtcVarDesc
CONST	ENDS
;	COMDAT xdata
xdata	SEGMENT
$ip2state$?_Tidy@?$deque@UPoint@@V?$allocator@UPoint@@@std@@@std@@AEAAXXZ DB 02H
	DB	00H
	DB	00H
xdata	ENDS
;	COMDAT xdata
xdata	SEGMENT
$cppxdata$?_Tidy@?$deque@UPoint@@V?$allocator@UPoint@@@std@@@std@@AEAAXXZ DB 060H
	DD	imagerel $ip2state$?_Tidy@?$deque@UPoint@@V?$allocator@UPoint@@@std@@@std@@AEAAXXZ
xdata	ENDS
;	COMDAT xdata
xdata	SEGMENT
$unwind$?_Tidy@?$deque@UPoint@@V?$allocator@UPoint@@@std@@@std@@AEAAXXZ DD 022019H
	DD	07006920aH
	DD	imagerel __CxxFrameHandler4
	DD	imagerel $cppxdata$?_Tidy@?$deque@UPoint@@V?$allocator@UPoint@@@std@@@std@@AEAAXXZ
xdata	ENDS
;	COMDAT CONST
CONST	SEGMENT
?_Tidy@?$deque@UPoint@@V?$allocator@UPoint@@@std@@@std@@AEAAXXZ$rtcName$0 DB 05fH ; std::deque<Point,std::allocator<Point> >::_Tidy
	DB	041H
	DB	06cH
	DB	06dH
	DB	061H
	DB	070H
	DB	00H
	ORG $+9
?_Tidy@?$deque@UPoint@@V?$allocator@UPoint@@@std@@@std@@AEAAXXZ$rtcVarDesc DD 024H ; std::deque<Point,std::allocator<Point> >::_Tidy
	DD	01H
	DQ	FLAT:?_Tidy@?$deque@UPoint@@V?$allocator@UPoint@@@std@@@std@@AEAAXXZ$rtcName$0
	ORG $+48
?_Tidy@?$deque@UPoint@@V?$allocator@UPoint@@@std@@@std@@AEAAXXZ$rtcFrameData DD 01H ; std::deque<Point,std::allocator<Point> >::_Tidy
	DD	00H
	DQ	FLAT:?_Tidy@?$deque@UPoint@@V?$allocator@UPoint@@@std@@@std@@AEAAXXZ$rtcVarDesc
CONST	ENDS
;	COMDAT xdata
xdata	SEGMENT
$unwind$?_Growmap@?$deque@UPoint@@V?$allocator@UPoint@@@std@@@std@@AEAAX_K@Z DD 032b01H
	DD	0160112H
	DD	0700bH
xdata	ENDS
;	COMDAT CONST
CONST	SEGMENT
?_Growmap@?$deque@UPoint@@V?$allocator@UPoint@@@std@@@std@@AEAAX_K@Z$rtcName$0 DB 05fH ; std::deque<Point,std::allocator<Point> >::_Growmap
	DB	041H
	DB	06cH
	DB	06dH
	DB	061H
	DB	070H
	DB	00H
	ORG $+9
?_Growmap@?$deque@UPoint@@V?$allocator@UPoint@@@std@@@std@@AEAAX_K@Z$rtcVarDesc DD 024H ; std::deque<Point,std::allocator<Point> >::_Growmap
	DD	01H
	DQ	FLAT:?_Growmap@?$deque@UPoint@@V?$allocator@UPoint@@@std@@@std@@AEAAX_K@Z$rtcName$0
	ORG $+48
?_Growmap@?$deque@UPoint@@V?$allocator@UPoint@@@std@@@std@@AEAAX_K@Z$rtcFrameData DD 01H ; std::deque<Point,std::allocator<Point> >::_Growmap
	DD	00H
	DQ	FLAT:?_Growmap@?$deque@UPoint@@V?$allocator@UPoint@@@std@@@std@@AEAAX_K@Z$rtcVarDesc
CONST	ENDS
;	COMDAT xdata
xdata	SEGMENT
$unwind$?_Xlen@?$deque@UPoint@@V?$allocator@UPoint@@@std@@@std@@AEBAXXZ DD 020a01H
	DD	07006320aH
xdata	ENDS
;	COMDAT xdata
xdata	SEGMENT
$ip2state$?pop_back@?$deque@UPoint@@V?$allocator@UPoint@@@std@@@std@@QEAAXXZ DB 02H
	DB	00H
	DB	00H
xdata	ENDS
;	COMDAT xdata
xdata	SEGMENT
$cppxdata$?pop_back@?$deque@UPoint@@V?$allocator@UPoint@@@std@@@std@@QEAAXXZ DB 060H
	DD	imagerel $ip2state$?pop_back@?$deque@UPoint@@V?$allocator@UPoint@@@std@@@std@@QEAAXXZ
xdata	ENDS
;	COMDAT xdata
xdata	SEGMENT
$unwind$?pop_back@?$deque@UPoint@@V?$allocator@UPoint@@@std@@@std@@QEAAXXZ DD 020a19H
	DD	07006b20aH
	DD	imagerel __CxxFrameHandler4
	DD	imagerel $cppxdata$?pop_back@?$deque@UPoint@@V?$allocator@UPoint@@@std@@@std@@QEAAXXZ
xdata	ENDS
;	COMDAT xdata
xdata	SEGMENT
$unwind$?push_back@?$deque@UPoint@@V?$allocator@UPoint@@@std@@@std@@QEAAXAEBUPoint@@@Z DD 020f01H
	DD	0700b320fH
xdata	ENDS
;	COMDAT xdata
xdata	SEGMENT
$ip2state$?back@?$deque@UPoint@@V?$allocator@UPoint@@@std@@@std@@QEAAAEAUPoint@@XZ DB 02H
	DB	00H
	DB	00H
xdata	ENDS
;	COMDAT xdata
xdata	SEGMENT
$cppxdata$?back@?$deque@UPoint@@V?$allocator@UPoint@@@std@@@std@@QEAAAEAUPoint@@XZ DB 060H
	DD	imagerel $ip2state$?back@?$deque@UPoint@@V?$allocator@UPoint@@@std@@@std@@QEAAAEAUPoint@@XZ
xdata	ENDS
;	COMDAT xdata
xdata	SEGMENT
$unwind$?back@?$deque@UPoint@@V?$allocator@UPoint@@@std@@@std@@QEAAAEAUPoint@@XZ DD 030b19H
	DD	07007c20bH
	DD	06006H
	DD	imagerel __CxxFrameHandler4
	DD	imagerel $cppxdata$?back@?$deque@UPoint@@V?$allocator@UPoint@@@std@@@std@@QEAAAEAUPoint@@XZ
xdata	ENDS
;	COMDAT xdata
xdata	SEGMENT
$unwind$?empty@?$deque@UPoint@@V?$allocator@UPoint@@@std@@@std@@QEBA_NXZ DD 020a01H
	DD	07006520aH
xdata	ENDS
;	COMDAT xdata
xdata	SEGMENT
$unwind$?max_size@?$deque@UPoint@@V?$allocator@UPoint@@@std@@@std@@QEBA_KXZ DD 020a01H
	DD	07006520aH
xdata	ENDS
;	COMDAT xdata
xdata	SEGMENT
$unwind$?size@?$deque@UPoint@@V?$allocator@UPoint@@@std@@@std@@QEBA_KXZ DD 020a01H
	DD	07006320aH
xdata	ENDS
;	COMDAT xdata
xdata	SEGMENT
$unwind$?_Unchecked_end@?$deque@UPoint@@V?$allocator@UPoint@@@std@@@std@@QEAA?AV?$_Deque_unchecked_iterator@V?$_Deque_val@U?$_Deque_simple_types@UPoint@@@std@@@std@@@2@XZ DD 020f01H
	DD	0700b520fH
xdata	ENDS
;	COMDAT xdata
xdata	SEGMENT
$unwind$??1?$deque@UPoint@@V?$allocator@UPoint@@@std@@@std@@QEAA@XZ DD 022001H
	DD	07006720aH
xdata	ENDS
;	COMDAT CONST
CONST	SEGMENT
??1?$deque@UPoint@@V?$allocator@UPoint@@@std@@@std@@QEAA@XZ$rtcName$0 DB 05fH ; std::deque<Point,std::allocator<Point> >::~deque<Point,std::allocator<Point> >
	DB	050H
	DB	072H
	DB	06fH
	DB	078H
	DB	079H
	DB	05fH
	DB	061H
	DB	06cH
	DB	06cH
	DB	06fH
	DB	063H
	DB	061H
	DB	074H
	DB	06fH
	DB	072H
	DB	00H
	ORG $+15
??1?$deque@UPoint@@V?$allocator@UPoint@@@std@@@std@@QEAA@XZ$rtcVarDesc DD 024H ; std::deque<Point,std::allocator<Point> >::~deque<Point,std::allocator<Point> >
	DD	01H
	DQ	FLAT:??1?$deque@UPoint@@V?$allocator@UPoint@@@std@@@std@@QEAA@XZ$rtcName$0
	ORG $+48
??1?$deque@UPoint@@V?$allocator@UPoint@@@std@@@std@@QEAA@XZ$rtcFrameData DD 01H ; std::deque<Point,std::allocator<Point> >::~deque<Point,std::allocator<Point> >
	DD	00H
	DQ	FLAT:??1?$deque@UPoint@@V?$allocator@UPoint@@@std@@@std@@QEAA@XZ$rtcVarDesc
CONST	ENDS
;	COMDAT xdata
xdata	SEGMENT
$unwind$??0?$deque@UPoint@@V?$allocator@UPoint@@@std@@@std@@QEAA@XZ DD 020a01H
	DD	07006520aH
xdata	ENDS
;	COMDAT xdata
xdata	SEGMENT
$unwind$?_Getblock@?$_Deque_val@U?$_Deque_simple_types@UPoint@@@std@@@std@@QEBA_K_K@Z DD 010b01H
	DD	0700bH
xdata	ENDS
;	COMDAT xdata
xdata	SEGMENT
$unwind$??0?$_Deque_val@U?$_Deque_simple_types@UPoint@@@std@@@std@@QEAA@XZ DD 020a01H
	DD	07006320aH
xdata	ENDS
;	COMDAT xdata
xdata	SEGMENT
$unwind$?allocate@?$allocator@PEAUPoint@@@std@@QEAAPEAPEAUPoint@@_K@Z DD 020f01H
	DD	0700b320fH
xdata	ENDS
;	COMDAT xdata
xdata	SEGMENT
$unwind$?deallocate@?$allocator@PEAUPoint@@@std@@QEAAXQEAPEAUPoint@@_K@Z DD 021401H
	DD	070103214H
xdata	ENDS
;	COMDAT xdata
xdata	SEGMENT
$unwind$?max_size@?$_Default_allocator_traits@V?$allocator@UPoint@@@std@@@std@@SA_KAEBV?$allocator@UPoint@@@2@@Z DD 010601H
	DD	07006H
xdata	ENDS
;	COMDAT xdata
xdata	SEGMENT
$unwind$?allocate@?$allocator@UPoint@@@std@@QEAAPEAUPoint@@_K@Z DD 020f01H
	DD	0700b320fH
xdata	ENDS
;	COMDAT xdata
xdata	SEGMENT
$unwind$?deallocate@?$allocator@UPoint@@@std@@QEAAXQEAUPoint@@_K@Z DD 021401H
	DD	070103214H
xdata	ENDS
;	COMDAT xdata
xdata	SEGMENT
$unwind$??0?$allocator@UPoint@@@std@@QEAA@XZ DD 010601H
	DD	07006H
xdata	ENDS
;	COMDAT xdata
xdata	SEGMENT
$unwind$?eof@?$_Narrow_char_traits@DH@std@@SAHXZ DD 010201H
	DD	07002H
xdata	ENDS
;	COMDAT xdata
xdata	SEGMENT
$unwind$?eq_int_type@?$_Narrow_char_traits@DH@std@@SA_NAEBH0@Z DD 020f01H
	DD	0700b120fH
xdata	ENDS
;	COMDAT xdata
xdata	SEGMENT
$unwind$?length@?$_Narrow_char_traits@DH@std@@SA_KQEBD@Z DD 020a01H
	DD	07006320aH
xdata	ENDS
;	COMDAT xdata
xdata	SEGMENT
$unwind$??4Cmathlibrary@@QEAAAEAV0@$$QEAV0@@Z DD 010b01H
	DD	0700bH
xdata	ENDS
;	COMDAT xdata
xdata	SEGMENT
$unwind$??4Cmathlibrary@@QEAAAEAV0@AEBV0@@Z DD 010b01H
	DD	0700bH
xdata	ENDS
voltbl	SEGMENT
_volmd	DDSymXIndex: 	FLAT:?dtor$0@?0??convexHull@Cmathlibrary@@AEAAXQEAUPoint@@H@Z@4HA
	DD	00H
	DD	05H
voltbl	ENDS
voltbl	SEGMENT
_volmd	DDSymXIndex: 	FLAT:?calc_convex_hull@Cmathlibrary@@QEAAHXZ
	DD	030H
	DD	0ecH
voltbl	ENDS
xdata	SEGMENT
$unwind$?calc_convex_hull@Cmathlibrary@@QEAAHXZ DD 033819H
	DD	012010dH
	DD	07006H
	DD	imagerel __GSHandlerCheck
	DD	080H
$unwind$?nextToTop@Cmathlibrary@@AEAA?AUPoint@@AEAV?$stack@UPoint@@V?$deque@UPoint@@V?$allocator@UPoint@@@std@@@std@@@std@@@Z DD 022a01H
	DD	07010b214H
$unwind$?swap@Cmathlibrary@@AEAAXAEAUPoint@@0@Z DD 022a01H
	DD	070107214H
$unwind$?convexHull@Cmathlibrary@@AEAAXQEAUPoint@@H@Z DD 033011H
	DD	0160117H
	DD	07010H
	DD	imagerel __CxxFrameHandler4
	DD	imagerel $cppxdata$?convexHull@Cmathlibrary@@AEAAXQEAUPoint@@H@Z
$cppxdata$?convexHull@Cmathlibrary@@AEAAXQEAUPoint@@H@Z DB 028H
	DD	imagerel $stateUnwindMap$?convexHull@Cmathlibrary@@AEAAXQEAUPoint@@H@Z
	DD	imagerel $ip2state$?convexHull@Cmathlibrary@@AEAAXQEAUPoint@@H@Z
$stateUnwindMap$?convexHull@Cmathlibrary@@AEAAXQEAUPoint@@H@Z DB 02H
	DB	0eH
	DD	imagerel ?dtor$0@?0??convexHull@Cmathlibrary@@AEAAXQEAUPoint@@H@Z@4HA
$ip2state$?convexHull@Cmathlibrary@@AEAAXQEAUPoint@@H@Z DB 06H
	DB	00H
	DB	00H
	DB	0d1H, 08H
	DB	02H
	DB	'=', 07H
	DB	00H
$unwind$?dtor$0@?0??convexHull@Cmathlibrary@@AEAAXQEAUPoint@@H@Z@4HA DD 031001H
	DD	0700c4210H
	DD	0500bH
$unwind$?distSq@@YAHUPoint@@0@Z DD 010b01H
	DD	0700bH
$unwind$?orientation@@YAHUPoint@@00@Z DD 021401H
	DD	070101214H
$unwind$?compare@@YAHPEBX0@Z DD 020f01H
	DD	0700b720fH
xdata	ENDS
CONST	SEGMENT
	ORG $+2
?calc_convex_hull@Cmathlibrary@@QEAAHXZ$rtcName$0 DB 070H ; Cmathlibrary::calc_convex_hull
	DB	06fH
	DB	069H
	DB	06eH
	DB	074H
	DB	073H
	DB	00H
	ORG $+1
?calc_convex_hull@Cmathlibrary@@QEAAHXZ$rtcFrameData DD 01H ; Cmathlibrary::calc_convex_hull
	DD	00H
	DQ	FLAT:?calc_convex_hull@Cmathlibrary@@QEAAHXZ$rtcVarDesc
?nextToTop@Cmathlibrary@@AEAA?AUPoint@@AEAV?$stack@UPoint@@V?$deque@UPoint@@V?$allocator@UPoint@@@std@@@std@@@std@@@Z$rtcName$0 DB 070H ; Cmathlibrary::nextToTop
	DB	00H
	ORG $+6
?calc_convex_hull@Cmathlibrary@@QEAAHXZ$rtcVarDesc DD 030H ; Cmathlibrary::calc_convex_hull
	DD	040H
	DQ	FLAT:?calc_convex_hull@Cmathlibrary@@QEAAHXZ$rtcName$0
	ORG $+48
?nextToTop@Cmathlibrary@@AEAA?AUPoint@@AEAV?$stack@UPoint@@V?$deque@UPoint@@V?$allocator@UPoint@@@std@@@std@@@std@@@Z$rtcName$1 DB 072H ; Cmathlibrary::nextToTop
	DB	065H
	DB	073H
	DB	00H
?swap@Cmathlibrary@@AEAAXAEAUPoint@@0@Z$rtcName$0 DB 074H ; Cmathlibrary::swap
	DB	065H
	DB	06dH
	DB	070H
	DB	00H
	ORG $+7
?nextToTop@Cmathlibrary@@AEAA?AUPoint@@AEAV?$stack@UPoint@@V?$deque@UPoint@@V?$allocator@UPoint@@@std@@@std@@@std@@@Z$rtcVarDesc DD 048H ; Cmathlibrary::nextToTop
	DD	08H
	DQ	FLAT:?nextToTop@Cmathlibrary@@AEAA?AUPoint@@AEAV?$stack@UPoint@@V?$deque@UPoint@@V?$allocator@UPoint@@@std@@@std@@@std@@@Z$rtcName$1
	DD	028H
	DD	08H
	DQ	FLAT:?nextToTop@Cmathlibrary@@AEAA?AUPoint@@AEAV?$stack@UPoint@@V?$deque@UPoint@@V?$allocator@UPoint@@@std@@@std@@@std@@@Z$rtcName$0
	ORG $+96
?nextToTop@Cmathlibrary@@AEAA?AUPoint@@AEAV?$stack@UPoint@@V?$deque@UPoint@@V?$allocator@UPoint@@@std@@@std@@@std@@@Z$rtcFrameData DD 02H ; Cmathlibrary::nextToTop
	DD	00H
	DQ	FLAT:?nextToTop@Cmathlibrary@@AEAA?AUPoint@@AEAV?$stack@UPoint@@V?$deque@UPoint@@V?$allocator@UPoint@@@std@@@std@@@std@@@Z$rtcVarDesc
?swap@Cmathlibrary@@AEAAXAEAUPoint@@0@Z$rtcVarDesc DD 028H ; Cmathlibrary::swap
	DD	08H
	DQ	FLAT:?swap@Cmathlibrary@@AEAAXAEAUPoint@@0@Z$rtcName$0
	ORG $+48
?swap@Cmathlibrary@@AEAAXAEAUPoint@@0@Z$rtcFrameData DD 01H ; Cmathlibrary::swap
	DD	00H
	DQ	FLAT:?swap@Cmathlibrary@@AEAAXAEAUPoint@@0@Z$rtcVarDesc
?convexHull@Cmathlibrary@@AEAAXQEAUPoint@@H@Z$rtcName$0 DB 053H ; Cmathlibrary::convexHull
	DB	00H
	ORG $+2
?convexHull@Cmathlibrary@@AEAAXQEAUPoint@@H@Z$rtcName$1 DB 070H ; Cmathlibrary::convexHull
	DB	00H
	ORG $+2
?convexHull@Cmathlibrary@@AEAAXQEAUPoint@@H@Z$rtcFrameData DD 02H ; Cmathlibrary::convexHull
	DD	00H
	DQ	FLAT:?convexHull@Cmathlibrary@@AEAAXQEAUPoint@@H@Z$rtcVarDesc
	ORG $+8
?convexHull@Cmathlibrary@@AEAAXQEAUPoint@@H@Z$rtcVarDesc DD 088H ; Cmathlibrary::convexHull
	DD	08H
	DQ	FLAT:?convexHull@Cmathlibrary@@AEAAXQEAUPoint@@H@Z$rtcName$1
	DD	048H
	DD	028H
	DQ	FLAT:?convexHull@Cmathlibrary@@AEAAXQEAUPoint@@H@Z$rtcName$0
CONST	ENDS
;	COMDAT xdata
xdata	SEGMENT
$unwind$??0Cmathlibrary@@QEAA@XZ DD 010601H
	DD	07006H
xdata	ENDS
;	COMDAT xdata
xdata	SEGMENT
$unwind$?_Orphan_all_locked@_Container_base12@std@@AEAAXXZ DD 022001H
	DD	07006720aH
xdata	ENDS
;	COMDAT CONST
CONST	SEGMENT
?_Orphan_all_locked@_Container_base12@std@@AEAAXXZ$rtcName$0 DB 05fH ; std::_Container_base12::_Orphan_all_locked
	DB	04cH
	DB	06fH
	DB	063H
	DB	06bH
	DB	00H
	ORG $+10
?_Orphan_all_locked@_Container_base12@std@@AEAAXXZ$rtcVarDesc DD 024H ; std::_Container_base12::_Orphan_all_locked
	DD	04H
	DQ	FLAT:?_Orphan_all_locked@_Container_base12@std@@AEAAXXZ$rtcName$0
	ORG $+48
?_Orphan_all_locked@_Container_base12@std@@AEAAXXZ$rtcFrameData DD 01H ; std::_Container_base12::_Orphan_all_locked
	DD	00H
	DQ	FLAT:?_Orphan_all_locked@_Container_base12@std@@AEAAXXZ$rtcVarDesc
CONST	ENDS
;	COMDAT xdata
xdata	SEGMENT
$unwind$?_Orphan_all_unlocked@_Container_base12@std@@AEAAXXZ DD 020a01H
	DD	07006120aH
xdata	ENDS
;	COMDAT xdata
xdata	SEGMENT
$unwind$?_Orphan_all@_Container_base12@std@@QEAAXXZ DD 020a01H
	DD	07006320aH
xdata	ENDS
;	COMDAT xdata
xdata	SEGMENT
$unwind$??0_Container_base12@std@@QEAA@XZ DD 010601H
	DD	07006H
xdata	ENDS
;	COMDAT xdata
xdata	SEGMENT
$unwind$??0_Container_proxy@std@@QEAA@PEAU_Container_base12@1@@Z DD 010b01H
	DD	0700bH
xdata	ENDS
;	COMDAT xdata
xdata	SEGMENT
$unwind$?_Adjust_manually_vector_aligned@std@@YAXAEAPEAXAEA_K@Z DD 020f01H
	DD	0700b920fH
xdata	ENDS
;	COMDAT xdata
xdata	SEGMENT
$unwind$?_Allocate@_Default_allocate_traits@std@@SAPEAX_K@Z DD 020a01H
	DD	07006320aH
xdata	ENDS
;	COMDAT xdata
xdata	SEGMENT
$unwind$?_Throw_bad_array_new_length@std@@YAXXZ DD 020601H
	DD	070027206H
xdata	ENDS
;	COMDAT xdata
xdata	SEGMENT
$unwind$??_Gbad_array_new_length@std@@UEAAPEAXI@Z DD 020e01H
	DD	0700a320eH
xdata	ENDS
;	COMDAT xdata
xdata	SEGMENT
$unwind$??0bad_array_new_length@std@@QEAA@AEBV01@@Z DD 020f01H
	DD	0700b320fH
xdata	ENDS
;	COMDAT xdata
xdata	SEGMENT
$unwind$??1bad_array_new_length@std@@UEAA@XZ DD 020a01H
	DD	07006320aH
xdata	ENDS
;	COMDAT xdata
xdata	SEGMENT
$unwind$??0bad_array_new_length@std@@QEAA@XZ DD 020a01H
	DD	07006320aH
xdata	ENDS
;	COMDAT xdata
xdata	SEGMENT
$unwind$??_Gbad_alloc@std@@UEAAPEAXI@Z DD 020e01H
	DD	0700a320eH
xdata	ENDS
;	COMDAT xdata
xdata	SEGMENT
$unwind$??0bad_alloc@std@@QEAA@AEBV01@@Z DD 020f01H
	DD	0700b320fH
xdata	ENDS
;	COMDAT xdata
xdata	SEGMENT
$unwind$??1bad_alloc@std@@UEAA@XZ DD 020a01H
	DD	07006320aH
xdata	ENDS
;	COMDAT xdata
xdata	SEGMENT
$unwind$??0bad_alloc@std@@AEAA@QEBD@Z DD 020f01H
	DD	0700b320fH
xdata	ENDS
;	COMDAT xdata
xdata	SEGMENT
$unwind$??_Gexception@std@@UEAAPEAXI@Z DD 020e01H
	DD	0700a320eH
xdata	ENDS
;	COMDAT xdata
xdata	SEGMENT
$unwind$?what@exception@std@@UEBAPEBDXZ DD 020a01H
	DD	07006120aH
xdata	ENDS
;	COMDAT xdata
xdata	SEGMENT
$unwind$??1exception@std@@UEAA@XZ DD 020a01H
	DD	07006320aH
xdata	ENDS
;	COMDAT xdata
xdata	SEGMENT
$unwind$??0exception@std@@QEAA@AEBV01@@Z DD 020f01H
	DD	0700b320fH
xdata	ENDS
;	COMDAT xdata
xdata	SEGMENT
$unwind$??0exception@std@@QEAA@QEBDH@Z DD 011001H
	DD	07010H
xdata	ENDS
;	COMDAT xdata
xdata	SEGMENT
$unwind$??2@YAPEAX_KPEAX@Z DD 010b01H
	DD	0700bH
xdata	ENDS
;	COMDAT xdata
xdata	SEGMENT
$unwind$?max@?$numeric_limits@_J@std@@SA_JXZ DD 010201H
	DD	07002H
xdata	ENDS
;	COMDAT xdata
xdata	SEGMENT
$unwind$?__empty_global_delete@@YAXPEAX_K@Z DD 010b01H
	DD	0700bH
xdata	ENDS
;	COMDAT xdata
xdata	SEGMENT
$unwind$?__empty_global_delete@@YAXPEAX@Z DD 010601H
	DD	07006H
xdata	ENDS
; Function compile flags: /Odtp /RTCsu
; File C:\Program Files (x86)\Microsoft Visual Studio\2019\Community\VC\Tools\MSVC\14.29.30037\include\xutility
;	COMDAT ??$_Voidify_iter@PEAPEAUPoint@@@std@@YAPEAXPEAPEAUPoint@@@Z
_TEXT	SEGMENT
_It$ = 16
??$_Voidify_iter@PEAPEAUPoint@@@std@@YAPEAXPEAPEAUPoint@@@Z PROC ; std::_Voidify_iter<Point * *>, COMDAT

; 130  : _NODISCARD constexpr void* _Voidify_iter(_Iter _It) noexcept {

$LN3:
  00000	48 89 4c 24 08	 mov	 QWORD PTR [rsp+8], rcx
  00005	57		 push	 rdi

; 131  :     if constexpr (is_pointer_v<_Iter>) {
; 132  :         return const_cast<void*>(static_cast<const volatile void*>(_It));

  00006	48 8b 44 24 10	 mov	 rax, QWORD PTR _It$[rsp]

; 133  :     } else {
; 134  :         return const_cast<void*>(static_cast<const volatile void*>(_STD addressof(*_It)));
; 135  :     }
; 136  : }

  0000b	5f		 pop	 rdi
  0000c	c3		 ret	 0
??$_Voidify_iter@PEAPEAUPoint@@@std@@YAPEAXPEAPEAUPoint@@@Z ENDP ; std::_Voidify_iter<Point * *>
_TEXT	ENDS
; Function compile flags: /Odtp /RTCsu
; File C:\Program Files (x86)\Microsoft Visual Studio\2019\Community\VC\Tools\MSVC\14.29.30037\include\xstddef
;	COMDAT ??$addressof@PEAUPoint@@@std@@YAPEAPEAUPoint@@AEAPEAU1@@Z
_TEXT	SEGMENT
_Val$ = 16
??$addressof@PEAUPoint@@@std@@YAPEAPEAUPoint@@AEAPEAU1@@Z PROC ; std::addressof<Point *>, COMDAT

; 274  : _NODISCARD constexpr _Ty* addressof(_Ty& _Val) noexcept {

$LN3:
  00000	48 89 4c 24 08	 mov	 QWORD PTR [rsp+8], rcx
  00005	57		 push	 rdi

; 275  :     return __builtin_addressof(_Val);

  00006	48 8b 44 24 10	 mov	 rax, QWORD PTR _Val$[rsp]

; 276  : }

  0000b	5f		 pop	 rdi
  0000c	c3		 ret	 0
??$addressof@PEAUPoint@@@std@@YAPEAPEAUPoint@@AEAPEAU1@@Z ENDP ; std::addressof<Point *>
_TEXT	ENDS
; Function compile flags: /Odtp /RTCsu
; File C:\Program Files (x86)\Microsoft Visual Studio\2019\Community\VC\Tools\MSVC\14.29.30037\include\xutility
;	COMDAT ??$_Construct_in_place@PEAUPoint@@AEAPEAU1@@std@@YAXAEAPEAUPoint@@0@Z
_TEXT	SEGMENT
$T1 = 32
_Obj$ = 64
<_Args_0>$ = 72
??$_Construct_in_place@PEAUPoint@@AEAPEAU1@@std@@YAXAEAPEAUPoint@@0@Z PROC ; std::_Construct_in_place<Point *,Point * &>, COMDAT

; 151  :     is_nothrow_constructible_v<_Ty, _Types...>) {

$LN3:
  00000	48 89 54 24 10	 mov	 QWORD PTR [rsp+16], rdx
  00005	48 89 4c 24 08	 mov	 QWORD PTR [rsp+8], rcx
  0000a	57		 push	 rdi
  0000b	48 83 ec 30	 sub	 rsp, 48			; 00000030H

; 152  : #ifdef __cpp_lib_constexpr_dynamic_alloc
; 153  :     if (_STD is_constant_evaluated()) {
; 154  :         _STD construct_at(_STD addressof(_Obj), _STD forward<_Types>(_Args)...);
; 155  :     } else
; 156  : #endif // __cpp_lib_constexpr_dynamic_alloc
; 157  :     {
; 158  :         ::new (_Voidify_iter(_STD addressof(_Obj))) _Ty(_STD forward<_Types>(_Args)...);

  0000f	48 8b 4c 24 40	 mov	 rcx, QWORD PTR _Obj$[rsp]
  00014	e8 00 00 00 00	 call	 ??$addressof@PEAUPoint@@@std@@YAPEAPEAUPoint@@AEAPEAU1@@Z ; std::addressof<Point *>
  00019	48 8b c8	 mov	 rcx, rax
  0001c	e8 00 00 00 00	 call	 ??$_Voidify_iter@PEAPEAUPoint@@@std@@YAPEAXPEAPEAUPoint@@@Z ; std::_Voidify_iter<Point * *>
  00021	48 8b d0	 mov	 rdx, rax
  00024	b9 08 00 00 00	 mov	 ecx, 8
  00029	e8 00 00 00 00	 call	 ??2@YAPEAX_KPEAX@Z	; operator new
  0002e	48 89 44 24 20	 mov	 QWORD PTR $T1[rsp], rax
  00033	48 8b 4c 24 48	 mov	 rcx, QWORD PTR <_Args_0>$[rsp]
  00038	e8 00 00 00 00	 call	 ??$forward@AEAPEAUPoint@@@std@@YAAEAPEAUPoint@@AEAPEAU1@@Z ; std::forward<Point * &>
  0003d	48 8b 4c 24 20	 mov	 rcx, QWORD PTR $T1[rsp]
  00042	48 8b 00	 mov	 rax, QWORD PTR [rax]
  00045	48 89 01	 mov	 QWORD PTR [rcx], rax

; 159  :     }
; 160  : }

  00048	48 83 c4 30	 add	 rsp, 48			; 00000030H
  0004c	5f		 pop	 rdi
  0004d	c3		 ret	 0
??$_Construct_in_place@PEAUPoint@@AEAPEAU1@@std@@YAXAEAPEAUPoint@@0@Z ENDP ; std::_Construct_in_place<Point *,Point * &>
_TEXT	ENDS
; Function compile flags: /Odtp /RTCsu
; File C:\Program Files (x86)\Microsoft Visual Studio\2019\Community\VC\Tools\MSVC\14.29.30037\include\type_traits
;	COMDAT ??$forward@AEAPEAUPoint@@@std@@YAAEAPEAUPoint@@AEAPEAU1@@Z
_TEXT	SEGMENT
_Arg$ = 16
??$forward@AEAPEAUPoint@@@std@@YAAEAPEAUPoint@@AEAPEAU1@@Z PROC ; std::forward<Point * &>, COMDAT

; 1443 :     remove_reference_t<_Ty>& _Arg) noexcept { // forward an lvalue as either an lvalue or an rvalue

$LN3:
  00000	48 89 4c 24 08	 mov	 QWORD PTR [rsp+8], rcx
  00005	57		 push	 rdi

; 1444 :     return static_cast<_Ty&&>(_Arg);

  00006	48 8b 44 24 10	 mov	 rax, QWORD PTR _Arg$[rsp]

; 1445 : }

  0000b	5f		 pop	 rdi
  0000c	c3		 ret	 0
??$forward@AEAPEAUPoint@@@std@@YAAEAPEAUPoint@@AEAPEAU1@@Z ENDP ; std::forward<Point * &>
_TEXT	ENDS
; Function compile flags: /Odtp /RTCsu
; File C:\Program Files (x86)\Microsoft Visual Studio\2019\Community\VC\Tools\MSVC\14.29.30037\include\xutility
;	COMDAT ??$_To_address@PEAPEAUPoint@@@std@@YA?A_PAEBQEAPEAUPoint@@@Z
_TEXT	SEGMENT
_Val$ = 16
??$_To_address@PEAPEAUPoint@@@std@@YA?A_PAEBQEAPEAUPoint@@@Z PROC ; std::_To_address<Point * *>, COMDAT

; 4074 : _NODISCARD constexpr auto _To_address(const _Iter& _Val) noexcept {

$LN3:
  00000	48 89 4c 24 08	 mov	 QWORD PTR [rsp+8], rcx
  00005	57		 push	 rdi

; 4075 :     _STL_INTERNAL_STATIC_ASSERT(is_pointer_v<_Iter>);
; 4076 :     return _Val;

  00006	48 8b 44 24 10	 mov	 rax, QWORD PTR _Val$[rsp]
  0000b	48 8b 00	 mov	 rax, QWORD PTR [rax]

; 4077 : }

  0000e	5f		 pop	 rdi
  0000f	c3		 ret	 0
??$_To_address@PEAPEAUPoint@@@std@@YA?A_PAEBQEAPEAUPoint@@@Z ENDP ; std::_To_address<Point * *>
_TEXT	ENDS
; Function compile flags: /Odtp /RTCsu
; File C:\Program Files (x86)\Microsoft Visual Studio\2019\Community\VC\Tools\MSVC\14.29.30037\include\type_traits
;	COMDAT ??$forward@PEAPEAUPoint@@@std@@YA$$QEAPEAPEAUPoint@@AEAPEAPEAU1@@Z
_TEXT	SEGMENT
_Arg$ = 16
??$forward@PEAPEAUPoint@@@std@@YA$$QEAPEAPEAUPoint@@AEAPEAPEAU1@@Z PROC ; std::forward<Point * *>, COMDAT

; 1443 :     remove_reference_t<_Ty>& _Arg) noexcept { // forward an lvalue as either an lvalue or an rvalue

$LN3:
  00000	48 89 4c 24 08	 mov	 QWORD PTR [rsp+8], rcx
  00005	57		 push	 rdi

; 1444 :     return static_cast<_Ty&&>(_Arg);

  00006	48 8b 44 24 10	 mov	 rax, QWORD PTR _Arg$[rsp]

; 1445 : }

  0000b	5f		 pop	 rdi
  0000c	c3		 ret	 0
??$forward@PEAPEAUPoint@@@std@@YA$$QEAPEAPEAUPoint@@AEAPEAPEAU1@@Z ENDP ; std::forward<Point * *>
_TEXT	ENDS
; Function compile flags: /Odtp /RTCsu
; File C:\Program Files (x86)\Microsoft Visual Studio\2019\Community\VC\Tools\MSVC\14.29.30037\include\xmemory
;	COMDAT ??$_Emplace_back@AEAPEAUPoint@@@?$_Uninitialized_backout@PEAPEAUPoint@@@std@@QEAAXAEAPEAUPoint@@@Z
_TEXT	SEGMENT
this$ = 48
<_Vals_0>$ = 56
??$_Emplace_back@AEAPEAUPoint@@@?$_Uninitialized_backout@PEAPEAUPoint@@@std@@QEAAXAEAPEAUPoint@@@Z PROC ; std::_Uninitialized_backout<Point * *>::_Emplace_back<Point * &>, COMDAT

; 1472 :     _CONSTEXPR20_DYNALLOC void _Emplace_back(_Types&&... _Vals) {

$LN3:
  00000	48 89 54 24 10	 mov	 QWORD PTR [rsp+16], rdx
  00005	48 89 4c 24 08	 mov	 QWORD PTR [rsp+8], rcx
  0000a	57		 push	 rdi
  0000b	48 83 ec 20	 sub	 rsp, 32			; 00000020H

; 1473 :         // construct a new element at *_Last and increment
; 1474 :         _Construct_in_place(*_Last, _STD forward<_Types>(_Vals)...);

  0000f	48 8b 4c 24 38	 mov	 rcx, QWORD PTR <_Vals_0>$[rsp]
  00014	e8 00 00 00 00	 call	 ??$forward@AEAPEAUPoint@@@std@@YAAEAPEAUPoint@@AEAPEAU1@@Z ; std::forward<Point * &>
  00019	48 8b d0	 mov	 rdx, rax
  0001c	48 8b 44 24 30	 mov	 rax, QWORD PTR this$[rsp]
  00021	48 8b 48 08	 mov	 rcx, QWORD PTR [rax+8]
  00025	e8 00 00 00 00	 call	 ??$_Construct_in_place@PEAUPoint@@AEAPEAU1@@std@@YAXAEAPEAUPoint@@0@Z ; std::_Construct_in_place<Point *,Point * &>

; 1475 :         ++_Last;

  0002a	48 8b 44 24 30	 mov	 rax, QWORD PTR this$[rsp]
  0002f	48 8b 40 08	 mov	 rax, QWORD PTR [rax+8]
  00033	48 83 c0 08	 add	 rax, 8
  00037	48 8b 4c 24 30	 mov	 rcx, QWORD PTR this$[rsp]
  0003c	48 89 41 08	 mov	 QWORD PTR [rcx+8], rax

; 1476 :     }

  00040	48 83 c4 20	 add	 rsp, 32			; 00000020H
  00044	5f		 pop	 rdi
  00045	c3		 ret	 0
??$_Emplace_back@AEAPEAUPoint@@@?$_Uninitialized_backout@PEAPEAUPoint@@@std@@QEAAXAEAPEAUPoint@@@Z ENDP ; std::_Uninitialized_backout<Point * *>::_Emplace_back<Point * &>
_TEXT	ENDS
; Function compile flags: /Odtp /RTCsu
; File C:\Program Files (x86)\Microsoft Visual Studio\2019\Community\VC\Tools\MSVC\14.29.30037\include\xmemory
;	COMDAT ?_Release@?$_Uninitialized_backout@PEAPEAUPoint@@@std@@QEAAPEAPEAUPoint@@XZ
_TEXT	SEGMENT
this$ = 16
?_Release@?$_Uninitialized_backout@PEAPEAUPoint@@@std@@QEAAPEAPEAUPoint@@XZ PROC ; std::_Uninitialized_backout<Point * *>::_Release, COMDAT

; 1478 :     constexpr _NoThrowFwdIt _Release() { // suppress any exception handling backout and return _Last

$LN3:
  00000	48 89 4c 24 08	 mov	 QWORD PTR [rsp+8], rcx
  00005	57		 push	 rdi

; 1479 :         _First = _Last;

  00006	48 8b 44 24 10	 mov	 rax, QWORD PTR this$[rsp]
  0000b	48 8b 4c 24 10	 mov	 rcx, QWORD PTR this$[rsp]
  00010	48 8b 49 08	 mov	 rcx, QWORD PTR [rcx+8]
  00014	48 89 08	 mov	 QWORD PTR [rax], rcx

; 1480 :         return _Last;

  00017	48 8b 44 24 10	 mov	 rax, QWORD PTR this$[rsp]
  0001c	48 8b 40 08	 mov	 rax, QWORD PTR [rax+8]

; 1481 :     }

  00020	5f		 pop	 rdi
  00021	c3		 ret	 0
?_Release@?$_Uninitialized_backout@PEAPEAUPoint@@@std@@QEAAPEAPEAUPoint@@XZ ENDP ; std::_Uninitialized_backout<Point * *>::_Release
_TEXT	ENDS
; Function compile flags: /Odtp /RTCsu
; File C:\Program Files (x86)\Microsoft Visual Studio\2019\Community\VC\Tools\MSVC\14.29.30037\include\xmemory
;	COMDAT ??1?$_Uninitialized_backout@PEAPEAUPoint@@@std@@QEAA@XZ
_TEXT	SEGMENT
this$ = 48
??1?$_Uninitialized_backout@PEAPEAUPoint@@@std@@QEAA@XZ PROC ; std::_Uninitialized_backout<Point * *>::~_Uninitialized_backout<Point * *>, COMDAT

; 1467 :     _CONSTEXPR20_DYNALLOC ~_Uninitialized_backout() {

$LN3:
  00000	48 89 4c 24 08	 mov	 QWORD PTR [rsp+8], rcx
  00005	57		 push	 rdi
  00006	48 83 ec 20	 sub	 rsp, 32			; 00000020H

; 1468 :         _Destroy_range(_First, _Last);

  0000a	48 8b 44 24 30	 mov	 rax, QWORD PTR this$[rsp]
  0000f	48 8b 50 08	 mov	 rdx, QWORD PTR [rax+8]
  00013	48 8b 44 24 30	 mov	 rax, QWORD PTR this$[rsp]
  00018	48 8b 08	 mov	 rcx, QWORD PTR [rax]
  0001b	e8 00 00 00 00	 call	 ??$_Destroy_range@PEAPEAUPoint@@PEAPEAU1@@std@@YAXPEAPEAUPoint@@QEAPEAU1@@Z ; std::_Destroy_range<Point * *,Point * *>

; 1469 :     }

  00020	48 83 c4 20	 add	 rsp, 32			; 00000020H
  00024	5f		 pop	 rdi
  00025	c3		 ret	 0
??1?$_Uninitialized_backout@PEAPEAUPoint@@@std@@QEAA@XZ ENDP ; std::_Uninitialized_backout<Point * *>::~_Uninitialized_backout<Point * *>
_TEXT	ENDS
; Function compile flags: /Odtp /RTCsu
; File C:\Program Files (x86)\Microsoft Visual Studio\2019\Community\VC\Tools\MSVC\14.29.30037\include\xmemory
;	COMDAT ??0?$_Uninitialized_backout@PEAPEAUPoint@@@std@@QEAA@PEAPEAUPoint@@@Z
_TEXT	SEGMENT
this$ = 16
_Dest$ = 24
??0?$_Uninitialized_backout@PEAPEAUPoint@@@std@@QEAA@PEAPEAUPoint@@@Z PROC ; std::_Uninitialized_backout<Point * *>::_Uninitialized_backout<Point * *>, COMDAT

; 1460 :     constexpr explicit _Uninitialized_backout(_NoThrowFwdIt _Dest) : _First(_Dest), _Last(_Dest) {}

$LN3:
  00000	48 89 54 24 10	 mov	 QWORD PTR [rsp+16], rdx
  00005	48 89 4c 24 08	 mov	 QWORD PTR [rsp+8], rcx
  0000a	57		 push	 rdi
  0000b	48 8b 44 24 10	 mov	 rax, QWORD PTR this$[rsp]
  00010	48 8b 4c 24 18	 mov	 rcx, QWORD PTR _Dest$[rsp]
  00015	48 89 08	 mov	 QWORD PTR [rax], rcx
  00018	48 8b 44 24 10	 mov	 rax, QWORD PTR this$[rsp]
  0001d	48 8b 4c 24 18	 mov	 rcx, QWORD PTR _Dest$[rsp]
  00022	48 89 48 08	 mov	 QWORD PTR [rax+8], rcx
  00026	48 8b 44 24 10	 mov	 rax, QWORD PTR this$[rsp]
  0002b	5f		 pop	 rdi
  0002c	c3		 ret	 0
??0?$_Uninitialized_backout@PEAPEAUPoint@@@std@@QEAA@PEAPEAUPoint@@@Z ENDP ; std::_Uninitialized_backout<Point * *>::_Uninitialized_backout<Point * *>
_TEXT	ENDS
; Function compile flags: /Odtp /RTCsu
; File C:\Program Files (x86)\Microsoft Visual Studio\2019\Community\VC\Tools\MSVC\14.29.30037\include\xutility
;	COMDAT ??$_Copy_memmove@PEAPEAUPoint@@PEAPEAU1@@std@@YAPEAPEAUPoint@@PEAPEAU1@00@Z
_TEXT	SEGMENT
_FirstPtr$ = 32
_LastPtr$ = 40
_DestPtr$ = 48
_First_ch$ = 56
_Last_ch$ = 64
_Dest_ch$ = 72
_Count$ = 80
_First$ = 112
_Last$ = 120
_Dest$ = 128
??$_Copy_memmove@PEAPEAUPoint@@PEAPEAU1@@std@@YAPEAPEAUPoint@@PEAPEAU1@00@Z PROC ; std::_Copy_memmove<Point * *,Point * *>, COMDAT

; 4153 : _OutCtgIt _Copy_memmove(_CtgIt _First, _CtgIt _Last, _OutCtgIt _Dest) {

$LN3:
  00000	4c 89 44 24 18	 mov	 QWORD PTR [rsp+24], r8
  00005	48 89 54 24 10	 mov	 QWORD PTR [rsp+16], rdx
  0000a	48 89 4c 24 08	 mov	 QWORD PTR [rsp+8], rcx
  0000f	57		 push	 rdi
  00010	48 83 ec 60	 sub	 rsp, 96			; 00000060H

; 4154 :     auto _FirstPtr              = _To_address(_First);

  00014	48 8d 4c 24 70	 lea	 rcx, QWORD PTR _First$[rsp]
  00019	e8 00 00 00 00	 call	 ??$_To_address@PEAPEAUPoint@@@std@@YA?A_PAEBQEAPEAUPoint@@@Z ; std::_To_address<Point * *>
  0001e	48 89 44 24 20	 mov	 QWORD PTR _FirstPtr$[rsp], rax

; 4155 :     auto _LastPtr               = _To_address(_Last);

  00023	48 8d 4c 24 78	 lea	 rcx, QWORD PTR _Last$[rsp]
  00028	e8 00 00 00 00	 call	 ??$_To_address@PEAPEAUPoint@@@std@@YA?A_PAEBQEAPEAUPoint@@@Z ; std::_To_address<Point * *>
  0002d	48 89 44 24 28	 mov	 QWORD PTR _LastPtr$[rsp], rax

; 4156 :     auto _DestPtr               = _To_address(_Dest);

  00032	48 8d 8c 24 80
	00 00 00	 lea	 rcx, QWORD PTR _Dest$[rsp]
  0003a	e8 00 00 00 00	 call	 ??$_To_address@PEAPEAUPoint@@@std@@YA?A_PAEBQEAPEAUPoint@@@Z ; std::_To_address<Point * *>
  0003f	48 89 44 24 30	 mov	 QWORD PTR _DestPtr$[rsp], rax

; 4157 :     const char* const _First_ch = const_cast<const char*>(reinterpret_cast<const volatile char*>(_FirstPtr));

  00044	48 8b 44 24 20	 mov	 rax, QWORD PTR _FirstPtr$[rsp]
  00049	48 89 44 24 38	 mov	 QWORD PTR _First_ch$[rsp], rax

; 4158 :     const char* const _Last_ch  = const_cast<const char*>(reinterpret_cast<const volatile char*>(_LastPtr));

  0004e	48 8b 44 24 28	 mov	 rax, QWORD PTR _LastPtr$[rsp]
  00053	48 89 44 24 40	 mov	 QWORD PTR _Last_ch$[rsp], rax

; 4159 :     char* const _Dest_ch        = const_cast<char*>(reinterpret_cast<const volatile char*>(_DestPtr));

  00058	48 8b 44 24 30	 mov	 rax, QWORD PTR _DestPtr$[rsp]
  0005d	48 89 44 24 48	 mov	 QWORD PTR _Dest_ch$[rsp], rax

; 4160 :     const auto _Count           = static_cast<size_t>(_Last_ch - _First_ch);

  00062	48 8b 44 24 38	 mov	 rax, QWORD PTR _First_ch$[rsp]
  00067	48 8b 4c 24 40	 mov	 rcx, QWORD PTR _Last_ch$[rsp]
  0006c	48 2b c8	 sub	 rcx, rax
  0006f	48 8b c1	 mov	 rax, rcx
  00072	48 89 44 24 50	 mov	 QWORD PTR _Count$[rsp], rax

; 4161 :     _CSTD memmove(_Dest_ch, _First_ch, _Count);

  00077	4c 8b 44 24 50	 mov	 r8, QWORD PTR _Count$[rsp]
  0007c	48 8b 54 24 38	 mov	 rdx, QWORD PTR _First_ch$[rsp]
  00081	48 8b 4c 24 48	 mov	 rcx, QWORD PTR _Dest_ch$[rsp]
  00086	e8 00 00 00 00	 call	 memmove

; 4162 :     if constexpr (is_pointer_v<_OutCtgIt>) {
; 4163 :         return reinterpret_cast<_OutCtgIt>(_Dest_ch + _Count);

  0008b	48 8b 44 24 50	 mov	 rax, QWORD PTR _Count$[rsp]
  00090	48 8b 4c 24 48	 mov	 rcx, QWORD PTR _Dest_ch$[rsp]
  00095	48 03 c8	 add	 rcx, rax
  00098	48 8b c1	 mov	 rax, rcx

; 4164 :     } else {
; 4165 :         return _Dest + (_LastPtr - _FirstPtr);
; 4166 :     }
; 4167 : }

  0009b	48 83 c4 60	 add	 rsp, 96			; 00000060H
  0009f	5f		 pop	 rdi
  000a0	c3		 ret	 0
??$_Copy_memmove@PEAPEAUPoint@@PEAPEAU1@@std@@YAPEAPEAUPoint@@PEAPEAU1@00@Z ENDP ; std::_Copy_memmove<Point * *,Point * *>
_TEXT	ENDS
; Function compile flags: /Odtp /RTCsu
; File C:\Program Files (x86)\Microsoft Visual Studio\2019\Community\VC\Tools\MSVC\14.29.30037\include\xutility
;	COMDAT ??$_Verify_range@PEAUPoint@@@std@@YAXQEBQEAUPoint@@0@Z
_TEXT	SEGMENT
_First$ = 64
_Last$ = 72
??$_Verify_range@PEAUPoint@@@std@@YAXQEBQEAUPoint@@0@Z PROC ; std::_Verify_range<Point *>, COMDAT

; 1285 : constexpr void _Verify_range(const _Ty* const _First, const _Ty* const _Last) noexcept {

$LN12:
  00000	48 89 54 24 10	 mov	 QWORD PTR [rsp+16], rdx
  00005	48 89 4c 24 08	 mov	 QWORD PTR [rsp+8], rcx
  0000a	57		 push	 rdi
  0000b	48 83 ec 30	 sub	 rsp, 48			; 00000030H
$LN4@Verify_ran:

; 1286 :     // special case range verification for pointers
; 1287 :     _STL_VERIFY(_First <= _Last, "transposed pointer range");

  0000f	48 8b 44 24 48	 mov	 rax, QWORD PTR _Last$[rsp]
  00014	48 39 44 24 40	 cmp	 QWORD PTR _First$[rsp], rax
  00019	77 02		 ja	 SHORT $LN7@Verify_ran
  0001b	eb 6b		 jmp	 SHORT $LN9@Verify_ran
$LN7@Verify_ran:
  0001d	48 8d 05 00 00
	00 00		 lea	 rax, OFFSET FLAT:??_C@_0BJ@HAJGEHKO@transposed?5pointer?5range@
  00024	48 89 44 24 28	 mov	 QWORD PTR [rsp+40], rax
  00029	48 8d 05 00 00
	00 00		 lea	 rax, OFFSET FLAT:??_C@_02DKCKIIND@?$CFs@
  00030	48 89 44 24 20	 mov	 QWORD PTR [rsp+32], rax
  00035	45 33 c9	 xor	 r9d, r9d
  00038	41 b8 07 05 00
	00		 mov	 r8d, 1287		; 00000507H
  0003e	48 8d 15 00 00
	00 00		 lea	 rdx, OFFSET FLAT:??_C@_0GJ@LJDCNNIF@C?3?2Program?5Files?5?$CIx86?$CJ?2Microsof@
  00045	b9 02 00 00 00	 mov	 ecx, 2
  0004a	ff 15 00 00 00
	00		 call	 QWORD PTR __imp__CrtDbgReport
  00050	83 f8 01	 cmp	 eax, 1
  00053	75 03		 jne	 SHORT $LN11@Verify_ran
  00055	cc		 int	 3
  00056	33 c0		 xor	 eax, eax
$LN11@Verify_ran:
  00058	48 c7 44 24 20
	00 00 00 00	 mov	 QWORD PTR [rsp+32], 0
  00061	41 b9 07 05 00
	00		 mov	 r9d, 1287		; 00000507H
  00067	4c 8d 05 00 00
	00 00		 lea	 r8, OFFSET FLAT:??_C@_1NC@HPCGBKBF@?$AAC?$AA?3?$AA?2?$AAP?$AAr?$AAo?$AAg?$AAr?$AAa?$AAm?$AA?5?$AAF?$AAi?$AAl?$AAe@
  0006e	48 8d 15 00 00
	00 00		 lea	 rdx, OFFSET FLAT:??_C@_1CG@LJCPDKEJ@?$AAs?$AAt?$AAd?$AA?3?$AA?3?$AA_?$AAV?$AAe?$AAr?$AAi?$AAf?$AAy?$AA_?$AAr?$AAa@
  00075	48 8d 0d 00 00
	00 00		 lea	 rcx, OFFSET FLAT:??_C@_1DG@FJIKMGFD@?$AA?$CC?$AAt?$AAr?$AAa?$AAn?$AAs?$AAp?$AAo?$AAs?$AAe?$AAd?$AA?5?$AAp?$AAo?$AAi@
  0007c	ff 15 00 00 00
	00		 call	 QWORD PTR __imp__invalid_parameter
  00082	33 c0		 xor	 eax, eax
  00084	85 c0		 test	 eax, eax
  00086	75 95		 jne	 SHORT $LN7@Verify_ran
$LN9@Verify_ran:
  00088	33 c0		 xor	 eax, eax
  0008a	85 c0		 test	 eax, eax
  0008c	75 81		 jne	 SHORT $LN4@Verify_ran

; 1288 : }

  0008e	48 83 c4 30	 add	 rsp, 48			; 00000030H
  00092	5f		 pop	 rdi
  00093	c3		 ret	 0
??$_Verify_range@PEAUPoint@@@std@@YAXQEBQEAUPoint@@0@Z ENDP ; std::_Verify_range<Point *>
_TEXT	ENDS
; Function compile flags: /Odtp /RTCsu
; File C:\Program Files (x86)\Microsoft Visual Studio\2019\Community\VC\Tools\MSVC\14.29.30037\include\xmemory
;	COMDAT ??$_Zero_range@PEAPEAUPoint@@@std@@YAPEAPEAUPoint@@QEAPEAU1@0@Z
_TEXT	SEGMENT
_First_ch$ = 32
_Last_ch$ = 40
_First$ = 64
_Last$ = 72
??$_Zero_range@PEAPEAUPoint@@@std@@YAPEAPEAUPoint@@QEAPEAU1@0@Z PROC ; std::_Zero_range<Point * *>, COMDAT

; 1786 : _Ptr _Zero_range(const _Ptr _First, const _Ptr _Last) { // fill [_First, _Last) with zeroes

$LN3:
  00000	48 89 54 24 10	 mov	 QWORD PTR [rsp+16], rdx
  00005	48 89 4c 24 08	 mov	 QWORD PTR [rsp+8], rcx
  0000a	57		 push	 rdi
  0000b	48 83 ec 30	 sub	 rsp, 48			; 00000030H

; 1787 :     char* const _First_ch = reinterpret_cast<char*>(_To_address(_First));

  0000f	48 8d 4c 24 40	 lea	 rcx, QWORD PTR _First$[rsp]
  00014	e8 00 00 00 00	 call	 ??$_To_address@PEAPEAUPoint@@@std@@YA?A_PAEBQEAPEAUPoint@@@Z ; std::_To_address<Point * *>
  00019	48 89 44 24 20	 mov	 QWORD PTR _First_ch$[rsp], rax

; 1788 :     char* const _Last_ch  = reinterpret_cast<char*>(_To_address(_Last));

  0001e	48 8d 4c 24 48	 lea	 rcx, QWORD PTR _Last$[rsp]
  00023	e8 00 00 00 00	 call	 ??$_To_address@PEAPEAUPoint@@@std@@YA?A_PAEBQEAPEAUPoint@@@Z ; std::_To_address<Point * *>
  00028	48 89 44 24 28	 mov	 QWORD PTR _Last_ch$[rsp], rax

; 1789 :     _CSTD memset(_First_ch, 0, static_cast<size_t>(_Last_ch - _First_ch));

  0002d	48 8b 44 24 20	 mov	 rax, QWORD PTR _First_ch$[rsp]
  00032	48 8b 4c 24 28	 mov	 rcx, QWORD PTR _Last_ch$[rsp]
  00037	48 2b c8	 sub	 rcx, rax
  0003a	48 8b c1	 mov	 rax, rcx
  0003d	4c 8b c0	 mov	 r8, rax
  00040	33 d2		 xor	 edx, edx
  00042	48 8b 4c 24 20	 mov	 rcx, QWORD PTR _First_ch$[rsp]
  00047	e8 00 00 00 00	 call	 memset

; 1790 :     return _Last;

  0004c	48 8b 44 24 48	 mov	 rax, QWORD PTR _Last$[rsp]

; 1791 : }

  00051	48 83 c4 30	 add	 rsp, 48			; 00000030H
  00055	5f		 pop	 rdi
  00056	c3		 ret	 0
??$_Zero_range@PEAPEAUPoint@@@std@@YAPEAPEAUPoint@@QEAPEAU1@0@Z ENDP ; std::_Zero_range<Point * *>
_TEXT	ENDS
; Function compile flags: /Odtp /RTCsu
; File C:\Program Files (x86)\Microsoft Visual Studio\2019\Community\VC\Tools\MSVC\14.29.30037\include\xutility
;	COMDAT ??$_Seek_wrapped@PEAPEAUPoint@@PEAPEAU1@@std@@YAXAEAPEAPEAUPoint@@$$QEAPEAPEAU1@@Z
_TEXT	SEGMENT
_It$ = 48
_UIt$ = 56
??$_Seek_wrapped@PEAPEAUPoint@@PEAPEAU1@@std@@YAXAEAPEAPEAUPoint@@$$QEAPEAPEAU1@@Z PROC ; std::_Seek_wrapped<Point * *,Point * *>, COMDAT

; 1427 : constexpr void _Seek_wrapped(_Iter& _It, _UIter&& _UIt) {

$LN3:
  00000	48 89 54 24 10	 mov	 QWORD PTR [rsp+16], rdx
  00005	48 89 4c 24 08	 mov	 QWORD PTR [rsp+8], rcx
  0000a	57		 push	 rdi
  0000b	48 83 ec 20	 sub	 rsp, 32			; 00000020H

; 1428 :     if constexpr (_Wrapped_seekable_v<_Iter, _UIter>) {
; 1429 :         _It._Seek_to(_STD forward<_UIter>(_UIt));
; 1430 :     } else {
; 1431 :         _It = _STD forward<_UIter>(_UIt);

  0000f	48 8b 4c 24 38	 mov	 rcx, QWORD PTR _UIt$[rsp]
  00014	e8 00 00 00 00	 call	 ??$forward@PEAPEAUPoint@@@std@@YA$$QEAPEAPEAUPoint@@AEAPEAPEAU1@@Z ; std::forward<Point * *>
  00019	48 8b 4c 24 30	 mov	 rcx, QWORD PTR _It$[rsp]
  0001e	48 8b 00	 mov	 rax, QWORD PTR [rax]
  00021	48 89 01	 mov	 QWORD PTR [rcx], rax

; 1432 :     }
; 1433 : }

  00024	48 83 c4 20	 add	 rsp, 32			; 00000020H
  00028	5f		 pop	 rdi
  00029	c3		 ret	 0
??$_Seek_wrapped@PEAPEAUPoint@@PEAPEAU1@@std@@YAXAEAPEAPEAUPoint@@$$QEAPEAPEAU1@@Z ENDP ; std::_Seek_wrapped<Point * *,Point * *>
_TEXT	ENDS
; Function compile flags: /Odtp /RTCsu
; File C:\Program Files (x86)\Microsoft Visual Studio\2019\Community\VC\Tools\MSVC\14.29.30037\include\xmemory
;	COMDAT ??$_Uninitialized_copy_unchecked@PEAPEAUPoint@@PEAPEAU1@@std@@YAPEAPEAUPoint@@PEAPEAU1@QEAPEAU1@0@Z
_TEXT	SEGMENT
_Backout$ = 40
$T4 = 72
_First$ = 96
_Last$ = 104
_Dest$ = 112
??$_Uninitialized_copy_unchecked@PEAPEAUPoint@@PEAPEAU1@@std@@YAPEAPEAUPoint@@PEAPEAU1@QEAPEAU1@0@Z PROC ; std::_Uninitialized_copy_unchecked<Point * *,Point * *>, COMDAT

; 1660 :     _InIt _First, const _InIt _Last, _NoThrowFwdIt _Dest) {

$LN7:
  00000	4c 89 44 24 18	 mov	 QWORD PTR [rsp+24], r8
  00005	48 89 54 24 10	 mov	 QWORD PTR [rsp+16], rdx
  0000a	48 89 4c 24 08	 mov	 QWORD PTR [rsp+8], rcx
  0000f	57		 push	 rdi
  00010	48 83 ec 50	 sub	 rsp, 80			; 00000050H
  00014	48 8d 7c 24 20	 lea	 rdi, QWORD PTR [rsp+32]
  00019	b9 0c 00 00 00	 mov	 ecx, 12
  0001e	b8 cc cc cc cc	 mov	 eax, -858993460		; ccccccccH
  00023	f3 ab		 rep stosd
  00025	48 8b 4c 24 60	 mov	 rcx, QWORD PTR [rsp+96]

; 1661 :     // copy [_First, _Last) to raw [_Dest, ...)
; 1662 :     if constexpr (_Ptr_copy_cat<_InIt, _NoThrowFwdIt>::_Really_trivial) {
; 1663 : #ifdef __cpp_lib_constexpr_dynamic_alloc
; 1664 :         if (!_STD is_constant_evaluated())
; 1665 : #endif // __cpp_lib_constexpr_dynamic_alloc
; 1666 :         {
; 1667 :             return _Copy_memmove(_First, _Last, _Dest);

  0002a	4c 8b 44 24 70	 mov	 r8, QWORD PTR _Dest$[rsp]
  0002f	48 8b 54 24 68	 mov	 rdx, QWORD PTR _Last$[rsp]
  00034	48 8b 4c 24 60	 mov	 rcx, QWORD PTR _First$[rsp]
  00039	e8 00 00 00 00	 call	 ??$_Copy_memmove@PEAPEAUPoint@@PEAPEAU1@@std@@YAPEAPEAUPoint@@PEAPEAU1@00@Z ; std::_Copy_memmove<Point * *,Point * *>
  0003e	eb 5a		 jmp	 SHORT $LN1@Uninitiali

; 1668 :         }
; 1669 :     }
; 1670 : 
; 1671 :     _Uninitialized_backout<_NoThrowFwdIt> _Backout{_Dest};

  00040	48 8b 54 24 70	 mov	 rdx, QWORD PTR _Dest$[rsp]
  00045	48 8d 4c 24 28	 lea	 rcx, QWORD PTR _Backout$[rsp]
  0004a	e8 00 00 00 00	 call	 ??0?$_Uninitialized_backout@PEAPEAUPoint@@@std@@QEAA@PEAPEAUPoint@@@Z ; std::_Uninitialized_backout<Point * *>::_Uninitialized_backout<Point * *>

; 1672 :     for (; _First != _Last; ++_First) {

  0004f	eb 0e		 jmp	 SHORT $LN4@Uninitiali
$LN2@Uninitiali:
  00051	48 8b 44 24 60	 mov	 rax, QWORD PTR _First$[rsp]
  00056	48 83 c0 08	 add	 rax, 8
  0005a	48 89 44 24 60	 mov	 QWORD PTR _First$[rsp], rax
$LN4@Uninitiali:
  0005f	48 8b 44 24 68	 mov	 rax, QWORD PTR _Last$[rsp]
  00064	48 39 44 24 60	 cmp	 QWORD PTR _First$[rsp], rax
  00069	74 11		 je	 SHORT $LN3@Uninitiali

; 1673 :         _Backout._Emplace_back(*_First);

  0006b	48 8b 54 24 60	 mov	 rdx, QWORD PTR _First$[rsp]
  00070	48 8d 4c 24 28	 lea	 rcx, QWORD PTR _Backout$[rsp]
  00075	e8 00 00 00 00	 call	 ??$_Emplace_back@AEAPEAUPoint@@@?$_Uninitialized_backout@PEAPEAUPoint@@@std@@QEAAXAEAPEAUPoint@@@Z ; std::_Uninitialized_backout<Point * *>::_Emplace_back<Point * &>

; 1674 :     }

  0007a	eb d5		 jmp	 SHORT $LN2@Uninitiali
$LN3@Uninitiali:

; 1675 : 
; 1676 :     return _Backout._Release();

  0007c	48 8d 4c 24 28	 lea	 rcx, QWORD PTR _Backout$[rsp]
  00081	e8 00 00 00 00	 call	 ?_Release@?$_Uninitialized_backout@PEAPEAUPoint@@@std@@QEAAPEAPEAUPoint@@XZ ; std::_Uninitialized_backout<Point * *>::_Release
  00086	48 89 44 24 48	 mov	 QWORD PTR $T4[rsp], rax
  0008b	48 8d 4c 24 28	 lea	 rcx, QWORD PTR _Backout$[rsp]
  00090	e8 00 00 00 00	 call	 ??1?$_Uninitialized_backout@PEAPEAUPoint@@@std@@QEAA@XZ ; std::_Uninitialized_backout<Point * *>::~_Uninitialized_backout<Point * *>
  00095	48 8b 44 24 48	 mov	 rax, QWORD PTR $T4[rsp]
$LN1@Uninitiali:

; 1677 : }

  0009a	48 8b f8	 mov	 rdi, rax
  0009d	48 8b cc	 mov	 rcx, rsp
  000a0	48 8d 15 00 00
	00 00		 lea	 rdx, OFFSET FLAT:??$_Uninitialized_copy_unchecked@PEAPEAUPoint@@PEAPEAU1@@std@@YAPEAPEAUPoint@@PEAPEAU1@QEAPEAU1@0@Z$rtcFrameData
  000a7	e8 00 00 00 00	 call	 _RTC_CheckStackVars
  000ac	48 8b c7	 mov	 rax, rdi
  000af	48 83 c4 50	 add	 rsp, 80			; 00000050H
  000b3	5f		 pop	 rdi
  000b4	c3		 ret	 0
??$_Uninitialized_copy_unchecked@PEAPEAUPoint@@PEAPEAU1@@std@@YAPEAPEAUPoint@@PEAPEAU1@QEAPEAU1@0@Z ENDP ; std::_Uninitialized_copy_unchecked<Point * *,Point * *>
_TEXT	ENDS
;	COMDAT text$x
text$x	SEGMENT
_Backout$ = 40
$T4 = 72
_First$ = 96
_Last$ = 104
_Dest$ = 112
?dtor$0@?0???$_Uninitialized_copy_unchecked@PEAPEAUPoint@@PEAPEAU1@@std@@YAPEAPEAUPoint@@PEAPEAU1@QEAPEAU1@0@Z@4HA PROC ; `std::_Uninitialized_copy_unchecked<Point * *,Point * *>'::`1'::dtor$0
  00000	48 89 4c 24 08	 mov	 QWORD PTR [rsp+8], rcx
  00005	48 89 54 24 10	 mov	 QWORD PTR [rsp+16], rdx
  0000a	55		 push	 rbp
  0000b	57		 push	 rdi
  0000c	48 83 ec 28	 sub	 rsp, 40			; 00000028H
  00010	48 8b ea	 mov	 rbp, rdx
  00013	48 8d 4d 28	 lea	 rcx, QWORD PTR _Backout$[rbp]
  00017	e8 00 00 00 00	 call	 ??1?$_Uninitialized_backout@PEAPEAUPoint@@@std@@QEAA@XZ ; std::_Uninitialized_backout<Point * *>::~_Uninitialized_backout<Point * *>
  0001c	48 83 c4 28	 add	 rsp, 40			; 00000028H
  00020	5f		 pop	 rdi
  00021	5d		 pop	 rbp
  00022	c3		 ret	 0
?dtor$0@?0???$_Uninitialized_copy_unchecked@PEAPEAUPoint@@PEAPEAU1@@std@@YAPEAPEAUPoint@@PEAPEAU1@QEAPEAU1@0@Z@4HA ENDP ; `std::_Uninitialized_copy_unchecked<Point * *,Point * *>'::`1'::dtor$0
text$x	ENDS
; Function compile flags: /Odtp /RTCsu
;	COMDAT text$x
text$x	SEGMENT
_Backout$ = 40
$T4 = 72
_First$ = 96
_Last$ = 104
_Dest$ = 112
?dtor$0@?0???$_Uninitialized_copy_unchecked@PEAPEAUPoint@@PEAPEAU1@@std@@YAPEAPEAUPoint@@PEAPEAU1@QEAPEAU1@0@Z@4HA PROC ; `std::_Uninitialized_copy_unchecked<Point * *,Point * *>'::`1'::dtor$0
  00000	48 89 4c 24 08	 mov	 QWORD PTR [rsp+8], rcx
  00005	48 89 54 24 10	 mov	 QWORD PTR [rsp+16], rdx
  0000a	55		 push	 rbp
  0000b	57		 push	 rdi
  0000c	48 83 ec 28	 sub	 rsp, 40			; 00000028H
  00010	48 8b ea	 mov	 rbp, rdx
  00013	48 8d 4d 28	 lea	 rcx, QWORD PTR _Backout$[rbp]
  00017	e8 00 00 00 00	 call	 ??1?$_Uninitialized_backout@PEAPEAUPoint@@@std@@QEAA@XZ ; std::_Uninitialized_backout<Point * *>::~_Uninitialized_backout<Point * *>
  0001c	48 83 c4 28	 add	 rsp, 40			; 00000028H
  00020	5f		 pop	 rdi
  00021	5d		 pop	 rbp
  00022	c3		 ret	 0
?dtor$0@?0???$_Uninitialized_copy_unchecked@PEAPEAUPoint@@PEAPEAU1@@std@@YAPEAPEAUPoint@@PEAPEAU1@QEAPEAU1@0@Z@4HA ENDP ; `std::_Uninitialized_copy_unchecked<Point * *,Point * *>'::`1'::dtor$0
text$x	ENDS
; Function compile flags: /Odtp /RTCsu
; File C:\Program Files (x86)\Microsoft Visual Studio\2019\Community\VC\Tools\MSVC\14.29.30037\include\xutility
;	COMDAT ??$_Get_unwrapped_n@AEAPEAPEAUPoint@@_J@std@@YA?A_TAEAPEAPEAUPoint@@_J@Z
_TEXT	SEGMENT
_It$ = 16
_Off$ = 24
??$_Get_unwrapped_n@AEAPEAPEAUPoint@@_J@std@@YA?A_TAEAPEAPEAUPoint@@_J@Z PROC ; std::_Get_unwrapped_n<Point * * &,__int64>, COMDAT

; 1392 : _NODISCARD constexpr decltype(auto) _Get_unwrapped_n(_Iter&& _It, const _Diff _Off) {

$LN3:
  00000	48 89 54 24 10	 mov	 QWORD PTR [rsp+16], rdx
  00005	48 89 4c 24 08	 mov	 QWORD PTR [rsp+8], rcx
  0000a	57		 push	 rdi

; 1393 :     if constexpr (is_pointer_v<decay_t<_Iter>>) {
; 1394 :         return _It + 0;

  0000b	48 8b 44 24 10	 mov	 rax, QWORD PTR _It$[rsp]
  00010	48 8b 00	 mov	 rax, QWORD PTR [rax]

; 1395 :     } else if constexpr (_Unwrappable_for_offset_v<_Iter> && is_integral_v<_Diff>) {
; 1396 :         // ask an iterator to assert that the iterator moved _Off positions is valid, and unwrap
; 1397 :         using _IDiff     = _Iter_diff_t<_Remove_cvref_t<_Iter>>;
; 1398 :         using _CDiff     = common_type_t<_Diff, _IDiff>;
; 1399 :         const auto _COff = static_cast<_CDiff>(_Off);
; 1400 : 
; 1401 :         _STL_ASSERT(_COff <= static_cast<_CDiff>(_Max_possible_v<_IDiff>)
; 1402 :                         && (is_unsigned_v<_Diff> || static_cast<_CDiff>(_Min_possible_v<_IDiff>) <= _COff),
; 1403 :             "integer overflow");
; 1404 :         (void) _COff;
; 1405 : 
; 1406 :         _It._Verify_offset(static_cast<_IDiff>(_Off));
; 1407 :         return static_cast<_Iter&&>(_It)._Unwrapped();
; 1408 :     } else if constexpr (_Unwrappable_for_unverified_v<_Iter>) {
; 1409 :         // iterator doesn't support offset-based asserts, or offset unknown; defer to unverified unwrap
; 1410 :         return static_cast<_Iter&&>(_It)._Unwrapped();
; 1411 :     } else {
; 1412 :         // pass through iterator that doesn't participate in checking
; 1413 :         return static_cast<_Iter&&>(_It);
; 1414 :     }
; 1415 : }

  00013	5f		 pop	 rdi
  00014	c3		 ret	 0
??$_Get_unwrapped_n@AEAPEAPEAUPoint@@_J@std@@YA?A_TAEAPEAPEAUPoint@@_J@Z ENDP ; std::_Get_unwrapped_n<Point * * &,__int64>
_TEXT	ENDS
; Function compile flags: /Odtp /RTCsu
; File C:\Program Files (x86)\Microsoft Visual Studio\2019\Community\VC\Tools\MSVC\14.29.30037\include\xutility
;	COMDAT ??$_Idl_distance@PEAPEAUPoint@@PEAPEAU1@@std@@YA?A_PAEBQEAPEAUPoint@@0@Z
_TEXT	SEGMENT
_First$ = 16
_Last$ = 24
??$_Idl_distance@PEAPEAUPoint@@PEAPEAU1@@std@@YA?A_PAEBQEAPEAUPoint@@0@Z PROC ; std::_Idl_distance<Point * *,Point * *>, COMDAT

; 1476 : _NODISCARD constexpr auto _Idl_distance(const _Iter& _First, const _Iter& _Last) {

$LN3:
  00000	48 89 54 24 10	 mov	 QWORD PTR [rsp+16], rdx
  00005	48 89 4c 24 08	 mov	 QWORD PTR [rsp+8], rcx
  0000a	57		 push	 rdi

; 1477 :     // tries to get the distance between _First and _Last if they are random-access iterators
; 1478 :     if constexpr (_Is_random_iter_v<_Iter>) {
; 1479 :         return static_cast<_Iter_diff_t<_Checked>>(_Last - _First);

  0000b	48 8b 44 24 18	 mov	 rax, QWORD PTR _Last$[rsp]
  00010	48 8b 4c 24 10	 mov	 rcx, QWORD PTR _First$[rsp]
  00015	48 8b 09	 mov	 rcx, QWORD PTR [rcx]
  00018	48 8b 00	 mov	 rax, QWORD PTR [rax]
  0001b	48 2b c1	 sub	 rax, rcx
  0001e	48 c1 f8 03	 sar	 rax, 3

; 1480 :     } else {
; 1481 :         return _Distance_unknown{};
; 1482 :     }
; 1483 : }

  00022	5f		 pop	 rdi
  00023	c3		 ret	 0
??$_Idl_distance@PEAPEAUPoint@@PEAPEAU1@@std@@YA?A_PAEBQEAPEAUPoint@@0@Z ENDP ; std::_Idl_distance<Point * *,Point * *>
_TEXT	ENDS
; Function compile flags: /Odtp /RTCsu
; File C:\Program Files (x86)\Microsoft Visual Studio\2019\Community\VC\Tools\MSVC\14.29.30037\include\xutility
;	COMDAT ??$_Get_unwrapped@AEBQEAPEAUPoint@@@std@@YA?A_TAEBQEAPEAUPoint@@@Z
_TEXT	SEGMENT
_It$ = 16
??$_Get_unwrapped@AEBQEAPEAUPoint@@@std@@YA?A_TAEBQEAPEAUPoint@@@Z PROC ; std::_Get_unwrapped<Point * * const &>, COMDAT

; 1324 : _NODISCARD constexpr decltype(auto) _Get_unwrapped(_Iter&& _It) {

$LN3:
  00000	48 89 4c 24 08	 mov	 QWORD PTR [rsp+8], rcx
  00005	57		 push	 rdi

; 1325 :     // unwrap an iterator previously subjected to _Adl_verify_range or otherwise validated
; 1326 :     if constexpr (is_pointer_v<decay_t<_Iter>>) { // special-case pointers and arrays
; 1327 :         return _It + 0;

  00006	48 8b 44 24 10	 mov	 rax, QWORD PTR _It$[rsp]
  0000b	48 8b 00	 mov	 rax, QWORD PTR [rax]

; 1328 :     } else if constexpr (_Unwrappable_v<_Iter>) {
; 1329 :         return static_cast<_Iter&&>(_It)._Unwrapped();
; 1330 :     } else {
; 1331 :         return static_cast<_Iter&&>(_It);
; 1332 :     }
; 1333 : }

  0000e	5f		 pop	 rdi
  0000f	c3		 ret	 0
??$_Get_unwrapped@AEBQEAPEAUPoint@@@std@@YA?A_TAEBQEAPEAUPoint@@@Z ENDP ; std::_Get_unwrapped<Point * * const &>
_TEXT	ENDS
; Function compile flags: /Odtp /RTCsu
; File C:\Program Files (x86)\Microsoft Visual Studio\2019\Community\VC\Tools\MSVC\14.29.30037\include\xutility
;	COMDAT ??$_Adl_verify_range@PEAPEAUPoint@@PEAPEAU1@@std@@YAXAEBQEAPEAUPoint@@0@Z
_TEXT	SEGMENT
_First$ = 48
_Last$ = 56
??$_Adl_verify_range@PEAPEAUPoint@@PEAPEAU1@@std@@YAXAEBQEAPEAUPoint@@0@Z PROC ; std::_Adl_verify_range<Point * *,Point * *>, COMDAT

; 1307 : constexpr void _Adl_verify_range(const _Iter& _First, const _Sentinel& _Last) {

$LN3:
  00000	48 89 54 24 10	 mov	 QWORD PTR [rsp+16], rdx
  00005	48 89 4c 24 08	 mov	 QWORD PTR [rsp+8], rcx
  0000a	57		 push	 rdi
  0000b	48 83 ec 20	 sub	 rsp, 32			; 00000020H

; 1308 :     // check that [_First, _Last) forms an iterator range
; 1309 :     if constexpr (_Range_verifiable_v<_Iter, _Sentinel>) {
; 1310 :         _Verify_range(_First, _Last);

  0000f	48 8b 44 24 38	 mov	 rax, QWORD PTR _Last$[rsp]
  00014	48 8b 10	 mov	 rdx, QWORD PTR [rax]
  00017	48 8b 44 24 30	 mov	 rax, QWORD PTR _First$[rsp]
  0001c	48 8b 08	 mov	 rcx, QWORD PTR [rax]
  0001f	e8 00 00 00 00	 call	 ??$_Verify_range@PEAUPoint@@@std@@YAXQEBQEAUPoint@@0@Z ; std::_Verify_range<Point *>

; 1311 :     }
; 1312 : }

  00024	48 83 c4 20	 add	 rsp, 32			; 00000020H
  00028	5f		 pop	 rdi
  00029	c3		 ret	 0
??$_Adl_verify_range@PEAPEAUPoint@@PEAPEAU1@@std@@YAXAEBQEAPEAUPoint@@0@Z ENDP ; std::_Adl_verify_range<Point * *,Point * *>
_TEXT	ENDS
; Function compile flags: /Odtp /RTCsu
; File C:\Program Files (x86)\Microsoft Visual Studio\2019\Community\VC\Tools\MSVC\14.29.30037\include\xutility
;	COMDAT ??$_Voidify_iter@PEAUPoint@@@std@@YAPEAXPEAUPoint@@@Z
_TEXT	SEGMENT
_It$ = 16
??$_Voidify_iter@PEAUPoint@@@std@@YAPEAXPEAUPoint@@@Z PROC ; std::_Voidify_iter<Point *>, COMDAT

; 130  : _NODISCARD constexpr void* _Voidify_iter(_Iter _It) noexcept {

$LN3:
  00000	48 89 4c 24 08	 mov	 QWORD PTR [rsp+8], rcx
  00005	57		 push	 rdi

; 131  :     if constexpr (is_pointer_v<_Iter>) {
; 132  :         return const_cast<void*>(static_cast<const volatile void*>(_It));

  00006	48 8b 44 24 10	 mov	 rax, QWORD PTR _It$[rsp]

; 133  :     } else {
; 134  :         return const_cast<void*>(static_cast<const volatile void*>(_STD addressof(*_It)));
; 135  :     }
; 136  : }

  0000b	5f		 pop	 rdi
  0000c	c3		 ret	 0
??$_Voidify_iter@PEAUPoint@@@std@@YAPEAXPEAUPoint@@@Z ENDP ; std::_Voidify_iter<Point *>
_TEXT	ENDS
; Function compile flags: /Odtp /RTCsu
; File C:\Program Files (x86)\Microsoft Visual Studio\2019\Community\VC\Tools\MSVC\14.29.30037\include\xmemory
;	COMDAT ?deallocate@?$_Default_allocator_traits@V?$allocator@U_Container_proxy@std@@@std@@@std@@SAXAEAV?$allocator@U_Container_proxy@std@@@2@QEAU_Container_proxy@2@_K@Z
_TEXT	SEGMENT
_Al$ = 48
_Ptr$ = 56
_Count$ = 64
?deallocate@?$_Default_allocator_traits@V?$allocator@U_Container_proxy@std@@@std@@@std@@SAXAEAV?$allocator@U_Container_proxy@std@@@2@QEAU_Container_proxy@2@_K@Z PROC ; std::_Default_allocator_traits<std::allocator<std::_Container_proxy> >::deallocate, COMDAT

; 693  :     static _CONSTEXPR20_DYNALLOC void deallocate(_Alloc& _Al, const pointer _Ptr, const size_type _Count) {

$LN3:
  00000	4c 89 44 24 18	 mov	 QWORD PTR [rsp+24], r8
  00005	48 89 54 24 10	 mov	 QWORD PTR [rsp+16], rdx
  0000a	48 89 4c 24 08	 mov	 QWORD PTR [rsp+8], rcx
  0000f	57		 push	 rdi
  00010	48 83 ec 20	 sub	 rsp, 32			; 00000020H

; 694  :         // no overflow check on the following multiply; we assume _Allocate did that check
; 695  : #ifdef __cpp_lib_constexpr_dynamic_alloc // TRANSITION, GH-1532
; 696  :         if (_STD is_constant_evaluated()) {
; 697  :             _Al.deallocate(_Ptr, _Count);
; 698  :         } else
; 699  : #endif // __cpp_lib_constexpr_dynamic_alloc
; 700  :         {
; 701  :             (void) _Al;
; 702  :             _Deallocate<_New_alignof<value_type>>(_Ptr, sizeof(value_type) * _Count);

  00014	48 6b 44 24 40
	10		 imul	 rax, QWORD PTR _Count$[rsp], 16
  0001a	48 8b d0	 mov	 rdx, rax
  0001d	48 8b 4c 24 38	 mov	 rcx, QWORD PTR _Ptr$[rsp]
  00022	e8 00 00 00 00	 call	 ??$_Deallocate@$0BA@$0A@@std@@YAXPEAX_K@Z ; std::_Deallocate<16,0>

; 703  :         }
; 704  :     }

  00027	48 83 c4 20	 add	 rsp, 32			; 00000020H
  0002b	5f		 pop	 rdi
  0002c	c3		 ret	 0
?deallocate@?$_Default_allocator_traits@V?$allocator@U_Container_proxy@std@@@std@@@std@@SAXAEAV?$allocator@U_Container_proxy@std@@@2@QEAU_Container_proxy@2@_K@Z ENDP ; std::_Default_allocator_traits<std::allocator<std::_Container_proxy> >::deallocate
_TEXT	ENDS
; Function compile flags: /Odtp /RTCsu
; File C:\Program Files (x86)\Microsoft Visual Studio\2019\Community\VC\Tools\MSVC\14.29.30037\include\xmemory
;	COMDAT ??$_Get_size_of_n@$07@std@@YA_K_K@Z
_TEXT	SEGMENT
_Overflow_is_possible$ = 32
_Max_possible$1 = 40
_Count$ = 64
??$_Get_size_of_n@$07@std@@YA_K_K@Z PROC		; std::_Get_size_of_n<8>, COMDAT

; 59   : _NODISCARD constexpr size_t _Get_size_of_n(const size_t _Count) {

$LN4:
  00000	48 89 4c 24 08	 mov	 QWORD PTR [rsp+8], rcx
  00005	57		 push	 rdi
  00006	48 83 ec 30	 sub	 rsp, 48			; 00000030H

; 60   :     constexpr bool _Overflow_is_possible = _Ty_size > 1;

  0000a	c6 44 24 20 01	 mov	 BYTE PTR _Overflow_is_possible$[rsp], 1

; 61   : 
; 62   :     if constexpr (_Overflow_is_possible) {
; 63   :         constexpr size_t _Max_possible = static_cast<size_t>(-1) / _Ty_size;

  0000f	48 b8 ff ff ff
	ff ff ff ff 1f	 mov	 rax, 2305843009213693951 ; 1fffffffffffffffH
  00019	48 89 44 24 28	 mov	 QWORD PTR _Max_possible$1[rsp], rax

; 64   :         if (_Count > _Max_possible) {

  0001e	48 b8 ff ff ff
	ff ff ff ff 1f	 mov	 rax, 2305843009213693951 ; 1fffffffffffffffH
  00028	48 39 44 24 40	 cmp	 QWORD PTR _Count$[rsp], rax
  0002d	76 05		 jbe	 SHORT $LN2@Get_size_o

; 65   :             _Throw_bad_array_new_length(); // multiply overflow

  0002f	e8 00 00 00 00	 call	 ?_Throw_bad_array_new_length@std@@YAXXZ ; std::_Throw_bad_array_new_length
$LN2@Get_size_o:

; 66   :         }
; 67   :     }
; 68   : 
; 69   :     return _Count * _Ty_size;

  00034	48 8b 44 24 40	 mov	 rax, QWORD PTR _Count$[rsp]
  00039	48 c1 e0 03	 shl	 rax, 3
$LN3@Get_size_o:

; 70   : }

  0003d	48 83 c4 30	 add	 rsp, 48			; 00000030H
  00041	5f		 pop	 rdi
  00042	c3		 ret	 0
??$_Get_size_of_n@$07@std@@YA_K_K@Z ENDP		; std::_Get_size_of_n<8>
_TEXT	ENDS
; Function compile flags: /Odtp /RTCsu
; File C:\Program Files (x86)\Microsoft Visual Studio\2019\Community\VC\Tools\MSVC\14.29.30037\include\xmemory
;	COMDAT ??$_Destroy_range@PEAPEAUPoint@@PEAPEAU1@@std@@YAXPEAPEAUPoint@@QEAPEAU1@@Z
_TEXT	SEGMENT
_First$ = 16
_Last$ = 24
??$_Destroy_range@PEAPEAUPoint@@PEAPEAU1@@std@@YAXPEAPEAUPoint@@QEAPEAU1@@Z PROC ; std::_Destroy_range<Point * *,Point * *>, COMDAT

; 957  : _CONSTEXPR20_DYNALLOC void _Destroy_range(_NoThrowFwdIt _First, const _NoThrowSentinel _Last) noexcept {

$LN3:
  00000	48 89 54 24 10	 mov	 QWORD PTR [rsp+16], rdx
  00005	48 89 4c 24 08	 mov	 QWORD PTR [rsp+8], rcx
  0000a	57		 push	 rdi

; 958  :     // note that this is an optimization for debug mode codegen; in release mode the BE removes all of this
; 959  :     if constexpr (!is_trivially_destructible_v<_Iter_value_t<_NoThrowFwdIt>>) {
; 960  :         for (; _First != _Last; ++_First) {
; 961  :             _Destroy_in_place(*_First);
; 962  :         }
; 963  :     }
; 964  : }

  0000b	5f		 pop	 rdi
  0000c	c3		 ret	 0
??$_Destroy_range@PEAPEAUPoint@@PEAPEAU1@@std@@YAXPEAPEAUPoint@@QEAPEAU1@@Z ENDP ; std::_Destroy_range<Point * *,Point * *>
_TEXT	ENDS
; Function compile flags: /Odtp /RTCsu
; File C:\Program Files (x86)\Microsoft Visual Studio\2019\Community\VC\Tools\MSVC\14.29.30037\include\xmemory
;	COMDAT ??$_Uninitialized_value_construct_n_unchecked1@PEAPEAUPoint@@_K@std@@YAPEAPEAUPoint@@PEAPEAU1@_K@Z
_TEXT	SEGMENT
_UFirst$ = 48
_Count$ = 56
??$_Uninitialized_value_construct_n_unchecked1@PEAPEAUPoint@@_K@std@@YAPEAPEAUPoint@@PEAPEAU1@_K@Z PROC ; std::_Uninitialized_value_construct_n_unchecked1<Point * *,unsigned __int64>, COMDAT

; 1818 : _NoThrowFwdIt _Uninitialized_value_construct_n_unchecked1(_NoThrowFwdIt _UFirst, _Diff _Count) {

$LN3:
  00000	48 89 54 24 10	 mov	 QWORD PTR [rsp+16], rdx
  00005	48 89 4c 24 08	 mov	 QWORD PTR [rsp+8], rcx
  0000a	57		 push	 rdi
  0000b	48 83 ec 20	 sub	 rsp, 32			; 00000020H

; 1819 :     // value-initialize all elements in [_UFirst, _UFirst + _Count_raw)
; 1820 :     _STL_INTERNAL_CHECK(_Count >= 0);
; 1821 :     if constexpr (_Use_memset_value_construct_v<_NoThrowFwdIt>) {
; 1822 :         return _Zero_range(_UFirst, _UFirst + _Count);

  0000f	48 8b 44 24 30	 mov	 rax, QWORD PTR _UFirst$[rsp]
  00014	48 8b 4c 24 38	 mov	 rcx, QWORD PTR _Count$[rsp]
  00019	48 8d 04 c8	 lea	 rax, QWORD PTR [rax+rcx*8]
  0001d	48 8b d0	 mov	 rdx, rax
  00020	48 8b 4c 24 30	 mov	 rcx, QWORD PTR _UFirst$[rsp]
  00025	e8 00 00 00 00	 call	 ??$_Zero_range@PEAPEAUPoint@@@std@@YAPEAPEAUPoint@@QEAPEAU1@0@Z ; std::_Zero_range<Point * *>

; 1823 :     } else {
; 1824 :         _Uninitialized_backout<_NoThrowFwdIt> _Backout{_UFirst};
; 1825 :         for (; 0 < _Count; --_Count) {
; 1826 :             _Backout._Emplace_back();
; 1827 :         }
; 1828 : 
; 1829 :         return _Backout._Release();
; 1830 :     }
; 1831 : }

  0002a	48 83 c4 20	 add	 rsp, 32			; 00000020H
  0002e	5f		 pop	 rdi
  0002f	c3		 ret	 0
??$_Uninitialized_value_construct_n_unchecked1@PEAPEAUPoint@@_K@std@@YAPEAPEAUPoint@@PEAPEAU1@_K@Z ENDP ; std::_Uninitialized_value_construct_n_unchecked1<Point * *,unsigned __int64>
_TEXT	ENDS
; Function compile flags: /Odtp /RTCsu
; File C:\Program Files (x86)\Microsoft Visual Studio\2019\Community\VC\Tools\MSVC\14.29.30037\include\xmemory
;	COMDAT ??$uninitialized_copy@PEAPEAUPoint@@PEAPEAU1@@std@@YAPEAPEAUPoint@@QEAPEAU1@0PEAPEAU1@@Z
_TEXT	SEGMENT
_UFirst$ = 40
_ULast$ = 72
_UDest$ = 88
$T5 = 96
_First$ = 128
_Last$ = 136
_Dest$ = 144
??$uninitialized_copy@PEAPEAUPoint@@PEAPEAU1@@std@@YAPEAPEAUPoint@@QEAPEAU1@0PEAPEAU1@@Z PROC ; std::uninitialized_copy<Point * *,Point * *>, COMDAT

; 1680 : _NoThrowFwdIt uninitialized_copy(const _InIt _First, const _InIt _Last, _NoThrowFwdIt _Dest) {

$LN3:
  00000	4c 89 44 24 18	 mov	 QWORD PTR [rsp+24], r8
  00005	48 89 54 24 10	 mov	 QWORD PTR [rsp+16], rdx
  0000a	48 89 4c 24 08	 mov	 QWORD PTR [rsp+8], rcx
  0000f	57		 push	 rdi
  00010	48 83 ec 70	 sub	 rsp, 112		; 00000070H
  00014	48 8d 7c 24 20	 lea	 rdi, QWORD PTR [rsp+32]
  00019	b9 14 00 00 00	 mov	 ecx, 20
  0001e	b8 cc cc cc cc	 mov	 eax, -858993460		; ccccccccH
  00023	f3 ab		 rep stosd
  00025	48 8b 8c 24 80
	00 00 00	 mov	 rcx, QWORD PTR [rsp+128]

; 1681 :     // copy [_First, _Last) to raw [_Dest, ...)
; 1682 :     _Adl_verify_range(_First, _Last);

  0002d	48 8d 94 24 88
	00 00 00	 lea	 rdx, QWORD PTR _Last$[rsp]
  00035	48 8d 8c 24 80
	00 00 00	 lea	 rcx, QWORD PTR _First$[rsp]
  0003d	e8 00 00 00 00	 call	 ??$_Adl_verify_range@PEAPEAUPoint@@PEAPEAU1@@std@@YAXAEBQEAPEAUPoint@@0@Z ; std::_Adl_verify_range<Point * *,Point * *>

; 1683 :     auto _UFirst      = _Get_unwrapped(_First);

  00042	48 8d 8c 24 80
	00 00 00	 lea	 rcx, QWORD PTR _First$[rsp]
  0004a	e8 00 00 00 00	 call	 ??$_Get_unwrapped@AEBQEAPEAUPoint@@@std@@YA?A_TAEBQEAPEAUPoint@@@Z ; std::_Get_unwrapped<Point * * const &>
  0004f	48 89 44 24 28	 mov	 QWORD PTR _UFirst$[rsp], rax

; 1684 :     const auto _ULast = _Get_unwrapped(_Last);

  00054	48 8d 8c 24 88
	00 00 00	 lea	 rcx, QWORD PTR _Last$[rsp]
  0005c	e8 00 00 00 00	 call	 ??$_Get_unwrapped@AEBQEAPEAUPoint@@@std@@YA?A_TAEBQEAPEAUPoint@@@Z ; std::_Get_unwrapped<Point * * const &>
  00061	48 89 44 24 48	 mov	 QWORD PTR _ULast$[rsp], rax

; 1685 :     auto _UDest       = _Get_unwrapped_n(_Dest, _Idl_distance<_InIt>(_UFirst, _ULast));

  00066	48 8d 54 24 48	 lea	 rdx, QWORD PTR _ULast$[rsp]
  0006b	48 8d 4c 24 28	 lea	 rcx, QWORD PTR _UFirst$[rsp]
  00070	e8 00 00 00 00	 call	 ??$_Idl_distance@PEAPEAUPoint@@PEAPEAU1@@std@@YA?A_PAEBQEAPEAUPoint@@0@Z ; std::_Idl_distance<Point * *,Point * *>
  00075	48 8b d0	 mov	 rdx, rax
  00078	48 8d 8c 24 90
	00 00 00	 lea	 rcx, QWORD PTR _Dest$[rsp]
  00080	e8 00 00 00 00	 call	 ??$_Get_unwrapped_n@AEAPEAPEAUPoint@@_J@std@@YA?A_TAEAPEAPEAUPoint@@_J@Z ; std::_Get_unwrapped_n<Point * * &,__int64>
  00085	48 89 44 24 58	 mov	 QWORD PTR _UDest$[rsp], rax

; 1686 :     _Seek_wrapped(_Dest, _Uninitialized_copy_unchecked(_UFirst, _ULast, _UDest));

  0008a	4c 8b 44 24 58	 mov	 r8, QWORD PTR _UDest$[rsp]
  0008f	48 8b 54 24 48	 mov	 rdx, QWORD PTR _ULast$[rsp]
  00094	48 8b 4c 24 28	 mov	 rcx, QWORD PTR _UFirst$[rsp]
  00099	e8 00 00 00 00	 call	 ??$_Uninitialized_copy_unchecked@PEAPEAUPoint@@PEAPEAU1@@std@@YAPEAPEAUPoint@@PEAPEAU1@QEAPEAU1@0@Z ; std::_Uninitialized_copy_unchecked<Point * *,Point * *>
  0009e	48 89 44 24 60	 mov	 QWORD PTR $T5[rsp], rax
  000a3	48 8d 54 24 60	 lea	 rdx, QWORD PTR $T5[rsp]
  000a8	48 8d 8c 24 90
	00 00 00	 lea	 rcx, QWORD PTR _Dest$[rsp]
  000b0	e8 00 00 00 00	 call	 ??$_Seek_wrapped@PEAPEAUPoint@@PEAPEAU1@@std@@YAXAEAPEAPEAUPoint@@$$QEAPEAPEAU1@@Z ; std::_Seek_wrapped<Point * *,Point * *>

; 1687 :     return _Dest;

  000b5	48 8b 84 24 90
	00 00 00	 mov	 rax, QWORD PTR _Dest$[rsp]

; 1688 : }

  000bd	48 8b f8	 mov	 rdi, rax
  000c0	48 8b cc	 mov	 rcx, rsp
  000c3	48 8d 15 00 00
	00 00		 lea	 rdx, OFFSET FLAT:??$uninitialized_copy@PEAPEAUPoint@@PEAPEAU1@@std@@YAPEAPEAUPoint@@QEAPEAU1@0PEAPEAU1@@Z$rtcFrameData
  000ca	e8 00 00 00 00	 call	 _RTC_CheckStackVars
  000cf	48 8b c7	 mov	 rax, rdi
  000d2	48 83 c4 70	 add	 rsp, 112		; 00000070H
  000d6	5f		 pop	 rdi
  000d7	c3		 ret	 0
??$uninitialized_copy@PEAPEAUPoint@@PEAPEAU1@@std@@YAPEAPEAUPoint@@QEAPEAU1@0PEAPEAU1@@Z ENDP ; std::uninitialized_copy<Point * *,Point * *>
_TEXT	ENDS
; Function compile flags: /Odtp /RTCsu
; File C:\Program Files (x86)\Microsoft Visual Studio\2019\Community\VC\Tools\MSVC\14.29.30037\include\xmemory
;	COMDAT ??$_Allocate_manually_vector_aligned@U_Default_allocate_traits@std@@@std@@YAPEAX_K@Z
_TEXT	SEGMENT
_Block_size$ = 48
_Ptr_container$ = 56
_Ptr$ = 64
_Bytes$ = 96
??$_Allocate_manually_vector_aligned@U_Default_allocate_traits@std@@@std@@YAPEAX_K@Z PROC ; std::_Allocate_manually_vector_aligned<std::_Default_allocate_traits>, COMDAT

; 134  : __declspec(allocator) void* _Allocate_manually_vector_aligned(const size_t _Bytes) {

$LN13:
  00000	48 89 4c 24 08	 mov	 QWORD PTR [rsp+8], rcx
  00005	57		 push	 rdi
  00006	48 83 ec 50	 sub	 rsp, 80			; 00000050H

; 135  :     // allocate _Bytes manually aligned to at least _Big_allocation_alignment
; 136  :     const size_t _Block_size = _Non_user_size + _Bytes;

  0000a	48 8b 44 24 60	 mov	 rax, QWORD PTR _Bytes$[rsp]
  0000f	48 83 c0 2f	 add	 rax, 47			; 0000002fH
  00013	48 89 44 24 30	 mov	 QWORD PTR _Block_size$[rsp], rax

; 137  :     if (_Block_size <= _Bytes) {

  00018	48 8b 44 24 60	 mov	 rax, QWORD PTR _Bytes$[rsp]
  0001d	48 39 44 24 30	 cmp	 QWORD PTR _Block_size$[rsp], rax
  00022	77 05		 ja	 SHORT $LN8@Allocate_m

; 138  :         _Throw_bad_array_new_length(); // add overflow

  00024	e8 00 00 00 00	 call	 ?_Throw_bad_array_new_length@std@@YAXXZ ; std::_Throw_bad_array_new_length
$LN8@Allocate_m:

; 139  :     }
; 140  : 
; 141  :     const uintptr_t _Ptr_container = reinterpret_cast<uintptr_t>(_Traits::_Allocate(_Block_size));

  00029	48 8b 4c 24 30	 mov	 rcx, QWORD PTR _Block_size$[rsp]
  0002e	e8 00 00 00 00	 call	 ?_Allocate@_Default_allocate_traits@std@@SAPEAX_K@Z ; std::_Default_allocate_traits::_Allocate
  00033	48 89 44 24 38	 mov	 QWORD PTR _Ptr_container$[rsp], rax
$LN4@Allocate_m:

; 142  :     _STL_VERIFY(_Ptr_container != 0, "invalid argument"); // validate even in release since we're doing p[-1]

  00038	48 83 7c 24 38
	00		 cmp	 QWORD PTR _Ptr_container$[rsp], 0
  0003e	74 02		 je	 SHORT $LN9@Allocate_m
  00040	eb 6b		 jmp	 SHORT $LN10@Allocate_m
$LN9@Allocate_m:
$LN7@Allocate_m:
  00042	48 8d 05 00 00
	00 00		 lea	 rax, OFFSET FLAT:$SG44700
  00049	48 89 44 24 28	 mov	 QWORD PTR [rsp+40], rax
  0004e	48 8d 05 00 00
	00 00		 lea	 rax, OFFSET FLAT:$SG44701
  00055	48 89 44 24 20	 mov	 QWORD PTR [rsp+32], rax
  0005a	45 33 c9	 xor	 r9d, r9d
  0005d	41 b8 8e 00 00
	00		 mov	 r8d, 142		; 0000008eH
  00063	48 8d 15 00 00
	00 00		 lea	 rdx, OFFSET FLAT:$SG44702
  0006a	b9 02 00 00 00	 mov	 ecx, 2
  0006f	ff 15 00 00 00
	00		 call	 QWORD PTR __imp__CrtDbgReport
  00075	83 f8 01	 cmp	 eax, 1
  00078	75 03		 jne	 SHORT $LN12@Allocate_m
  0007a	cc		 int	 3
  0007b	33 c0		 xor	 eax, eax
$LN12@Allocate_m:
  0007d	48 c7 44 24 20
	00 00 00 00	 mov	 QWORD PTR [rsp+32], 0
  00086	41 b9 8e 00 00
	00		 mov	 r9d, 142		; 0000008eH
  0008c	4c 8d 05 00 00
	00 00		 lea	 r8, OFFSET FLAT:$SG44703
  00093	48 8d 15 00 00
	00 00		 lea	 rdx, OFFSET FLAT:$SG44704
  0009a	48 8d 0d 00 00
	00 00		 lea	 rcx, OFFSET FLAT:$SG44705
  000a1	ff 15 00 00 00
	00		 call	 QWORD PTR __imp__invalid_parameter
  000a7	33 c0		 xor	 eax, eax
  000a9	85 c0		 test	 eax, eax
  000ab	75 95		 jne	 SHORT $LN7@Allocate_m
$LN10@Allocate_m:
  000ad	33 c0		 xor	 eax, eax
  000af	85 c0		 test	 eax, eax
  000b1	75 85		 jne	 SHORT $LN4@Allocate_m

; 143  :     void* const _Ptr = reinterpret_cast<void*>((_Ptr_container + _Non_user_size) & ~(_Big_allocation_alignment - 1));

  000b3	48 8b 44 24 38	 mov	 rax, QWORD PTR _Ptr_container$[rsp]
  000b8	48 83 c0 2f	 add	 rax, 47			; 0000002fH
  000bc	48 83 e0 e0	 and	 rax, -32		; ffffffffffffffe0H
  000c0	48 89 44 24 40	 mov	 QWORD PTR _Ptr$[rsp], rax

; 144  :     static_cast<uintptr_t*>(_Ptr)[-1] = _Ptr_container;

  000c5	b8 08 00 00 00	 mov	 eax, 8
  000ca	48 6b c0 ff	 imul	 rax, rax, -1
  000ce	48 8b 4c 24 40	 mov	 rcx, QWORD PTR _Ptr$[rsp]
  000d3	48 8b 54 24 38	 mov	 rdx, QWORD PTR _Ptr_container$[rsp]
  000d8	48 89 14 01	 mov	 QWORD PTR [rcx+rax], rdx

; 145  : 
; 146  : #ifdef _DEBUG
; 147  :     static_cast<uintptr_t*>(_Ptr)[-2] = _Big_allocation_sentinel;

  000dc	b8 08 00 00 00	 mov	 eax, 8
  000e1	48 6b c0 fe	 imul	 rax, rax, -2
  000e5	48 8b 4c 24 40	 mov	 rcx, QWORD PTR _Ptr$[rsp]
  000ea	48 ba fa fa fa
	fa fa fa fa fa	 mov	 rdx, -361700864190383366 ; fafafafafafafafaH
  000f4	48 89 14 01	 mov	 QWORD PTR [rcx+rax], rdx

; 148  : #endif // _DEBUG
; 149  :     return _Ptr;

  000f8	48 8b 44 24 40	 mov	 rax, QWORD PTR _Ptr$[rsp]
$LN11@Allocate_m:

; 150  : }

  000fd	48 83 c4 50	 add	 rsp, 80			; 00000050H
  00101	5f		 pop	 rdi
  00102	c3		 ret	 0
??$_Allocate_manually_vector_aligned@U_Default_allocate_traits@std@@@std@@YAPEAX_K@Z ENDP ; std::_Allocate_manually_vector_aligned<std::_Default_allocate_traits>
_TEXT	ENDS
; Function compile flags: /Odtp /RTCsu
; File C:\Program Files (x86)\Microsoft Visual Studio\2019\Community\VC\Tools\MSVC\14.29.30037\include\xmemory
;	COMDAT ??$construct@UPoint@@AEBU1@@?$_Default_allocator_traits@V?$allocator@UPoint@@@std@@@std@@SAXAEAV?$allocator@UPoint@@@1@QEAUPoint@@AEBU3@@Z
_TEXT	SEGMENT
$T1 = 32
__formal$ = 64
_Ptr$ = 72
<_Args_0>$ = 80
??$construct@UPoint@@AEBU1@@?$_Default_allocator_traits@V?$allocator@UPoint@@@std@@@std@@SAXAEAV?$allocator@UPoint@@@1@QEAUPoint@@AEBU3@@Z PROC ; std::_Default_allocator_traits<std::allocator<Point> >::construct<Point,Point const &>, COMDAT

; 707  :     static _CONSTEXPR20_DYNALLOC void construct(_Alloc&, _Objty* const _Ptr, _Types&&... _Args) {

$LN3:
  00000	4c 89 44 24 18	 mov	 QWORD PTR [rsp+24], r8
  00005	48 89 54 24 10	 mov	 QWORD PTR [rsp+16], rdx
  0000a	48 89 4c 24 08	 mov	 QWORD PTR [rsp+8], rcx
  0000f	57		 push	 rdi
  00010	48 83 ec 30	 sub	 rsp, 48			; 00000030H

; 708  : #ifdef __cpp_lib_constexpr_dynamic_alloc
; 709  :         if (_STD is_constant_evaluated()) {
; 710  :             _STD construct_at(_Ptr, _STD forward<_Types>(_Args)...);
; 711  :         } else
; 712  : #endif // __cpp_lib_constexpr_dynamic_alloc
; 713  :         {
; 714  :             ::new (_Voidify_iter(_Ptr)) _Objty(_STD forward<_Types>(_Args)...);

  00014	48 8b 4c 24 48	 mov	 rcx, QWORD PTR _Ptr$[rsp]
  00019	e8 00 00 00 00	 call	 ??$_Voidify_iter@PEAUPoint@@@std@@YAPEAXPEAUPoint@@@Z ; std::_Voidify_iter<Point *>
  0001e	48 8b d0	 mov	 rdx, rax
  00021	b9 08 00 00 00	 mov	 ecx, 8
  00026	e8 00 00 00 00	 call	 ??2@YAPEAX_KPEAX@Z	; operator new
  0002b	48 89 44 24 20	 mov	 QWORD PTR $T1[rsp], rax
  00030	48 8b 4c 24 50	 mov	 rcx, QWORD PTR <_Args_0>$[rsp]
  00035	e8 00 00 00 00	 call	 ??$forward@AEBUPoint@@@std@@YAAEBUPoint@@AEBU1@@Z ; std::forward<Point const &>
  0003a	48 8b 00	 mov	 rax, QWORD PTR [rax]
  0003d	48 8b 4c 24 20	 mov	 rcx, QWORD PTR $T1[rsp]
  00042	48 89 01	 mov	 QWORD PTR [rcx], rax

; 715  :         }
; 716  :     }

  00045	48 83 c4 30	 add	 rsp, 48			; 00000030H
  00049	5f		 pop	 rdi
  0004a	c3		 ret	 0
??$construct@UPoint@@AEBU1@@?$_Default_allocator_traits@V?$allocator@UPoint@@@std@@@std@@SAXAEAV?$allocator@UPoint@@@1@QEAUPoint@@AEBU3@@Z ENDP ; std::_Default_allocator_traits<std::allocator<Point> >::construct<Point,Point const &>
_TEXT	ENDS
; Function compile flags: /Odtp /RTCsu
; File C:\Program Files (x86)\Microsoft Visual Studio\2019\Community\VC\Tools\MSVC\14.29.30037\include\type_traits
;	COMDAT ??$forward@AEBUPoint@@@std@@YAAEBUPoint@@AEBU1@@Z
_TEXT	SEGMENT
_Arg$ = 16
??$forward@AEBUPoint@@@std@@YAAEBUPoint@@AEBU1@@Z PROC	; std::forward<Point const &>, COMDAT

; 1443 :     remove_reference_t<_Ty>& _Arg) noexcept { // forward an lvalue as either an lvalue or an rvalue

$LN3:
  00000	48 89 4c 24 08	 mov	 QWORD PTR [rsp+8], rcx
  00005	57		 push	 rdi

; 1444 :     return static_cast<_Ty&&>(_Arg);

  00006	48 8b 44 24 10	 mov	 rax, QWORD PTR _Arg$[rsp]

; 1445 : }

  0000b	5f		 pop	 rdi
  0000c	c3		 ret	 0
??$forward@AEBUPoint@@@std@@YAAEBUPoint@@AEBU1@@Z ENDP	; std::forward<Point const &>
_TEXT	ENDS
; Function compile flags: /Odtp /RTCsu
; File C:\Program Files (x86)\Microsoft Visual Studio\2019\Community\VC\Tools\MSVC\14.29.30037\include\type_traits
;	COMDAT ??$forward@PEAU_Container_base12@std@@@std@@YA$$QEAPEAU_Container_base12@0@AEAPEAU10@@Z
_TEXT	SEGMENT
_Arg$ = 16
??$forward@PEAU_Container_base12@std@@@std@@YA$$QEAPEAU_Container_base12@0@AEAPEAU10@@Z PROC ; std::forward<std::_Container_base12 *>, COMDAT

; 1443 :     remove_reference_t<_Ty>& _Arg) noexcept { // forward an lvalue as either an lvalue or an rvalue

$LN3:
  00000	48 89 4c 24 08	 mov	 QWORD PTR [rsp+8], rcx
  00005	57		 push	 rdi

; 1444 :     return static_cast<_Ty&&>(_Arg);

  00006	48 8b 44 24 10	 mov	 rax, QWORD PTR _Arg$[rsp]

; 1445 : }

  0000b	5f		 pop	 rdi
  0000c	c3		 ret	 0
??$forward@PEAU_Container_base12@std@@@std@@YA$$QEAPEAU_Container_base12@0@AEAPEAU10@@Z ENDP ; std::forward<std::_Container_base12 *>
_TEXT	ENDS
; Function compile flags: /Odtp /RTCsu
; File C:\Program Files (x86)\Microsoft Visual Studio\2019\Community\VC\Tools\MSVC\14.29.30037\include\xutility
;	COMDAT ??$_Voidify_iter@PEAU_Container_proxy@std@@@std@@YAPEAXPEAU_Container_proxy@0@@Z
_TEXT	SEGMENT
_It$ = 16
??$_Voidify_iter@PEAU_Container_proxy@std@@@std@@YAPEAXPEAU_Container_proxy@0@@Z PROC ; std::_Voidify_iter<std::_Container_proxy *>, COMDAT

; 130  : _NODISCARD constexpr void* _Voidify_iter(_Iter _It) noexcept {

$LN3:
  00000	48 89 4c 24 08	 mov	 QWORD PTR [rsp+8], rcx
  00005	57		 push	 rdi

; 131  :     if constexpr (is_pointer_v<_Iter>) {
; 132  :         return const_cast<void*>(static_cast<const volatile void*>(_It));

  00006	48 8b 44 24 10	 mov	 rax, QWORD PTR _It$[rsp]

; 133  :     } else {
; 134  :         return const_cast<void*>(static_cast<const volatile void*>(_STD addressof(*_It)));
; 135  :     }
; 136  : }

  0000b	5f		 pop	 rdi
  0000c	c3		 ret	 0
??$_Voidify_iter@PEAU_Container_proxy@std@@@std@@YAPEAXPEAU_Container_proxy@0@@Z ENDP ; std::_Voidify_iter<std::_Container_proxy *>
_TEXT	ENDS
; Function compile flags: /Odtp /RTCsu
; File C:\Program Files (x86)\Microsoft Visual Studio\2019\Community\VC\Tools\MSVC\14.29.30037\include\xstddef
;	COMDAT ??$addressof@U_Container_proxy@std@@@std@@YAPEAU_Container_proxy@0@AEAU10@@Z
_TEXT	SEGMENT
_Val$ = 16
??$addressof@U_Container_proxy@std@@@std@@YAPEAU_Container_proxy@0@AEAU10@@Z PROC ; std::addressof<std::_Container_proxy>, COMDAT

; 274  : _NODISCARD constexpr _Ty* addressof(_Ty& _Val) noexcept {

$LN3:
  00000	48 89 4c 24 08	 mov	 QWORD PTR [rsp+8], rcx
  00005	57		 push	 rdi

; 275  :     return __builtin_addressof(_Val);

  00006	48 8b 44 24 10	 mov	 rax, QWORD PTR _Val$[rsp]

; 276  : }

  0000b	5f		 pop	 rdi
  0000c	c3		 ret	 0
??$addressof@U_Container_proxy@std@@@std@@YAPEAU_Container_proxy@0@AEAU10@@Z ENDP ; std::addressof<std::_Container_proxy>
_TEXT	ENDS
; Function compile flags: /Odtp /RTCsu
; File C:\Program Files (x86)\Microsoft Visual Studio\2019\Community\VC\Tools\MSVC\14.29.30037\include\xmemory
;	COMDAT ??$_Deallocate_plain@V?$allocator@U_Container_proxy@std@@@std@@@std@@YAXAEAV?$allocator@U_Container_proxy@std@@@0@QEAU_Container_proxy@0@@Z
_TEXT	SEGMENT
_Al$ = 48
_Ptr$ = 56
??$_Deallocate_plain@V?$allocator@U_Container_proxy@std@@@std@@@std@@YAXAEAV?$allocator@U_Container_proxy@std@@@0@QEAU_Container_proxy@0@@Z PROC ; std::_Deallocate_plain<std::allocator<std::_Container_proxy> >, COMDAT

; 985  : _CONSTEXPR20_DYNALLOC void _Deallocate_plain(_Alloc& _Al, typename _Alloc::value_type* const _Ptr) noexcept {

$LN3:
  00000	48 89 54 24 10	 mov	 QWORD PTR [rsp+16], rdx
  00005	48 89 4c 24 08	 mov	 QWORD PTR [rsp+8], rcx
  0000a	57		 push	 rdi
  0000b	48 83 ec 20	 sub	 rsp, 32			; 00000020H

; 986  :     // deallocate a plain pointer using an allocator
; 987  :     using _Alloc_traits = allocator_traits<_Alloc>;
; 988  :     if constexpr (is_same_v<_Alloc_ptr_t<_Alloc>, typename _Alloc::value_type*>) {
; 989  :         _Alloc_traits::deallocate(_Al, _Ptr, 1);

  0000f	41 b8 01 00 00
	00		 mov	 r8d, 1
  00015	48 8b 54 24 38	 mov	 rdx, QWORD PTR _Ptr$[rsp]
  0001a	48 8b 4c 24 30	 mov	 rcx, QWORD PTR _Al$[rsp]
  0001f	e8 00 00 00 00	 call	 ?deallocate@?$_Default_allocator_traits@V?$allocator@U_Container_proxy@std@@@std@@@std@@SAXAEAV?$allocator@U_Container_proxy@std@@@2@QEAU_Container_proxy@2@_K@Z ; std::_Default_allocator_traits<std::allocator<std::_Container_proxy> >::deallocate
  00024	90		 npad	 1

; 990  :     } else {
; 991  :         using _Ptr_traits = pointer_traits<_Alloc_ptr_t<_Alloc>>;
; 992  :         _Alloc_traits::deallocate(_Al, _Ptr_traits::pointer_to(*_Ptr), 1);
; 993  :     }
; 994  : }

  00025	48 83 c4 20	 add	 rsp, 32			; 00000020H
  00029	5f		 pop	 rdi
  0002a	c3		 ret	 0
??$_Deallocate_plain@V?$allocator@U_Container_proxy@std@@@std@@@std@@YAXAEAV?$allocator@U_Container_proxy@std@@@0@QEAU_Container_proxy@0@@Z ENDP ; std::_Deallocate_plain<std::allocator<std::_Container_proxy> >
_TEXT	ENDS
; Function compile flags: /Odtp /RTCsu
; File C:\Program Files (x86)\Microsoft Visual Studio\2019\Community\VC\Tools\MSVC\14.29.30037\include\xmemory
;	COMDAT ??$_Deallocate@$0BA@$0A@@std@@YAXPEAX_K@Z
_TEXT	SEGMENT
_Ptr$ = 48
_Bytes$ = 56
??$_Deallocate@$0BA@$0A@@std@@YAXPEAX_K@Z PROC		; std::_Deallocate<16,0>, COMDAT

; 251  : _CONSTEXPR20_DYNALLOC void _Deallocate(void* _Ptr, size_t _Bytes) noexcept {

$LN4:
  00000	48 89 54 24 10	 mov	 QWORD PTR [rsp+16], rdx
  00005	48 89 4c 24 08	 mov	 QWORD PTR [rsp+8], rcx
  0000a	57		 push	 rdi
  0000b	48 83 ec 20	 sub	 rsp, 32			; 00000020H

; 252  :     // deallocate storage allocated by _Allocate when !_HAS_ALIGNED_NEW || _Align <= __STDCPP_DEFAULT_NEW_ALIGNMENT__
; 253  : #ifdef __cpp_lib_constexpr_dynamic_alloc // TRANSITION, GH-1532
; 254  :     if (_STD is_constant_evaluated()) {
; 255  :         ::operator delete(_Ptr);
; 256  :     } else
; 257  : #endif // __cpp_lib_constexpr_dynamic_alloc
; 258  :     {
; 259  : #if defined(_M_IX86) || defined(_M_X64)
; 260  :         if (_Bytes >= _Big_allocation_threshold) { // boost the alignment of big allocations to help autovectorization

  0000f	48 81 7c 24 38
	00 10 00 00	 cmp	 QWORD PTR _Bytes$[rsp], 4096 ; 00001000H
  00018	72 0f		 jb	 SHORT $LN2@Deallocate

; 261  :             _Adjust_manually_vector_aligned(_Ptr, _Bytes);

  0001a	48 8d 54 24 38	 lea	 rdx, QWORD PTR _Bytes$[rsp]
  0001f	48 8d 4c 24 30	 lea	 rcx, QWORD PTR _Ptr$[rsp]
  00024	e8 00 00 00 00	 call	 ?_Adjust_manually_vector_aligned@std@@YAXAEAPEAXAEA_K@Z ; std::_Adjust_manually_vector_aligned
$LN2@Deallocate:

; 262  :         }
; 263  : #endif // defined(_M_IX86) || defined(_M_X64)
; 264  :         ::operator delete(_Ptr, _Bytes);

  00029	48 8b 54 24 38	 mov	 rdx, QWORD PTR _Bytes$[rsp]
  0002e	48 8b 4c 24 30	 mov	 rcx, QWORD PTR _Ptr$[rsp]
  00033	e8 00 00 00 00	 call	 ??3@YAXPEAX_K@Z		; operator delete
  00038	90		 npad	 1

; 265  :     }
; 266  : }

  00039	48 83 c4 20	 add	 rsp, 32			; 00000020H
  0003d	5f		 pop	 rdi
  0003e	c3		 ret	 0
??$_Deallocate@$0BA@$0A@@std@@YAXPEAX_K@Z ENDP		; std::_Deallocate<16,0>
_TEXT	ENDS
; Function compile flags: /Odtp /RTCsu
; File C:\Program Files (x86)\Microsoft Visual Studio\2019\Community\VC\Tools\MSVC\14.29.30037\include\xstddef
;	COMDAT ??$addressof@V?$_Deque_val@U?$_Deque_simple_types@UPoint@@@std@@@std@@@std@@YAPEAV?$_Deque_val@U?$_Deque_simple_types@UPoint@@@std@@@0@AEAV10@@Z
_TEXT	SEGMENT
_Val$ = 16
??$addressof@V?$_Deque_val@U?$_Deque_simple_types@UPoint@@@std@@@std@@@std@@YAPEAV?$_Deque_val@U?$_Deque_simple_types@UPoint@@@std@@@0@AEAV10@@Z PROC ; std::addressof<std::_Deque_val<std::_Deque_simple_types<Point> > >, COMDAT

; 274  : _NODISCARD constexpr _Ty* addressof(_Ty& _Val) noexcept {

$LN3:
  00000	48 89 4c 24 08	 mov	 QWORD PTR [rsp+8], rcx
  00005	57		 push	 rdi

; 275  :     return __builtin_addressof(_Val);

  00006	48 8b 44 24 10	 mov	 rax, QWORD PTR _Val$[rsp]

; 276  : }

  0000b	5f		 pop	 rdi
  0000c	c3		 ret	 0
??$addressof@V?$_Deque_val@U?$_Deque_simple_types@UPoint@@@std@@@std@@@std@@YAPEAV?$_Deque_val@U?$_Deque_simple_types@UPoint@@@std@@@0@AEAV10@@Z ENDP ; std::addressof<std::_Deque_val<std::_Deque_simple_types<Point> > >
_TEXT	ENDS
; Function compile flags: /Odtp /RTCsu
; File C:\Program Files (x86)\Microsoft Visual Studio\2019\Community\VC\Tools\MSVC\14.29.30037\include\xmemory
;	COMDAT ??$_Allocate@$0BA@U_Default_allocate_traits@std@@$0A@@std@@YAPEAX_K@Z
_TEXT	SEGMENT
_Bytes$ = 48
??$_Allocate@$0BA@U_Default_allocate_traits@std@@$0A@@std@@YAPEAX_K@Z PROC ; std::_Allocate<16,std::_Default_allocate_traits,0>, COMDAT

; 230  : __declspec(allocator) _CONSTEXPR20_DYNALLOC void* _Allocate(const size_t _Bytes) {

$LN5:
  00000	48 89 4c 24 08	 mov	 QWORD PTR [rsp+8], rcx
  00005	57		 push	 rdi
  00006	48 83 ec 20	 sub	 rsp, 32			; 00000020H

; 231  :     // allocate _Bytes when !_HAS_ALIGNED_NEW || _Align <= __STDCPP_DEFAULT_NEW_ALIGNMENT__
; 232  : #if defined(_M_IX86) || defined(_M_X64)
; 233  : #ifdef __cpp_lib_constexpr_dynamic_alloc // TRANSITION, GH-1532
; 234  :     if (!_STD is_constant_evaluated())
; 235  : #endif // __cpp_lib_constexpr_dynamic_alloc
; 236  :     {
; 237  :         if (_Bytes >= _Big_allocation_threshold) { // boost the alignment of big allocations to help autovectorization

  0000a	48 81 7c 24 30
	00 10 00 00	 cmp	 QWORD PTR _Bytes$[rsp], 4096 ; 00001000H
  00013	72 0c		 jb	 SHORT $LN2@Allocate

; 238  :             return _Allocate_manually_vector_aligned<_Traits>(_Bytes);

  00015	48 8b 4c 24 30	 mov	 rcx, QWORD PTR _Bytes$[rsp]
  0001a	e8 00 00 00 00	 call	 ??$_Allocate_manually_vector_aligned@U_Default_allocate_traits@std@@@std@@YAPEAX_K@Z ; std::_Allocate_manually_vector_aligned<std::_Default_allocate_traits>
  0001f	eb 16		 jmp	 SHORT $LN1@Allocate
$LN2@Allocate:

; 239  :         }
; 240  :     }
; 241  : #endif // defined(_M_IX86) || defined(_M_X64)
; 242  : 
; 243  :     if (_Bytes != 0) {

  00021	48 83 7c 24 30
	00		 cmp	 QWORD PTR _Bytes$[rsp], 0
  00027	74 0c		 je	 SHORT $LN3@Allocate

; 244  :         return _Traits::_Allocate(_Bytes);

  00029	48 8b 4c 24 30	 mov	 rcx, QWORD PTR _Bytes$[rsp]
  0002e	e8 00 00 00 00	 call	 ?_Allocate@_Default_allocate_traits@std@@SAPEAX_K@Z ; std::_Default_allocate_traits::_Allocate
  00033	eb 02		 jmp	 SHORT $LN1@Allocate
$LN3@Allocate:

; 245  :     }
; 246  : 
; 247  :     return nullptr;

  00035	33 c0		 xor	 eax, eax
$LN1@Allocate:

; 248  : }

  00037	48 83 c4 20	 add	 rsp, 32			; 00000020H
  0003b	5f		 pop	 rdi
  0003c	c3		 ret	 0
??$_Allocate@$0BA@U_Default_allocate_traits@std@@$0A@@std@@YAPEAX_K@Z ENDP ; std::_Allocate<16,std::_Default_allocate_traits,0>
_TEXT	ENDS
; Function compile flags: /Odtp /RTCsu
; File C:\Program Files (x86)\Microsoft Visual Studio\2019\Community\VC\Tools\MSVC\14.29.30037\include\xmemory
;	COMDAT ??$_Get_size_of_n@$0BA@@std@@YA_K_K@Z
_TEXT	SEGMENT
_Overflow_is_possible$ = 32
_Max_possible$1 = 40
_Count$ = 64
??$_Get_size_of_n@$0BA@@std@@YA_K_K@Z PROC		; std::_Get_size_of_n<16>, COMDAT

; 59   : _NODISCARD constexpr size_t _Get_size_of_n(const size_t _Count) {

$LN4:
  00000	48 89 4c 24 08	 mov	 QWORD PTR [rsp+8], rcx
  00005	57		 push	 rdi
  00006	48 83 ec 30	 sub	 rsp, 48			; 00000030H

; 60   :     constexpr bool _Overflow_is_possible = _Ty_size > 1;

  0000a	c6 44 24 20 01	 mov	 BYTE PTR _Overflow_is_possible$[rsp], 1

; 61   : 
; 62   :     if constexpr (_Overflow_is_possible) {
; 63   :         constexpr size_t _Max_possible = static_cast<size_t>(-1) / _Ty_size;

  0000f	48 b8 ff ff ff
	ff ff ff ff 0f	 mov	 rax, 1152921504606846975 ; 0fffffffffffffffH
  00019	48 89 44 24 28	 mov	 QWORD PTR _Max_possible$1[rsp], rax

; 64   :         if (_Count > _Max_possible) {

  0001e	48 b8 ff ff ff
	ff ff ff ff 0f	 mov	 rax, 1152921504606846975 ; 0fffffffffffffffH
  00028	48 39 44 24 40	 cmp	 QWORD PTR _Count$[rsp], rax
  0002d	76 05		 jbe	 SHORT $LN2@Get_size_o

; 65   :             _Throw_bad_array_new_length(); // multiply overflow

  0002f	e8 00 00 00 00	 call	 ?_Throw_bad_array_new_length@std@@YAXXZ ; std::_Throw_bad_array_new_length
$LN2@Get_size_o:

; 66   :         }
; 67   :     }
; 68   : 
; 69   :     return _Count * _Ty_size;

  00034	48 6b 44 24 40
	10		 imul	 rax, QWORD PTR _Count$[rsp], 16
$LN3@Get_size_o:

; 70   : }

  0003a	48 83 c4 30	 add	 rsp, 48			; 00000030H
  0003e	5f		 pop	 rdi
  0003f	c3		 ret	 0
??$_Get_size_of_n@$0BA@@std@@YA_K_K@Z ENDP		; std::_Get_size_of_n<16>
_TEXT	ENDS
; Function compile flags: /Odtp /RTCsu
; File C:\Program Files (x86)\Microsoft Visual Studio\2019\Community\VC\Tools\MSVC\14.29.30037\include\xutility
;	COMDAT ??$_Prev_iter@V?$_Deque_unchecked_iterator@V?$_Deque_val@U?$_Deque_simple_types@UPoint@@@std@@@std@@@std@@@std@@YA?AV?$_Deque_unchecked_iterator@V?$_Deque_val@U?$_Deque_simple_types@UPoint@@@std@@@std@@@0@V10@@Z
_TEXT	SEGMENT
__$ReturnUdt$ = 64
_First$ = 72
??$_Prev_iter@V?$_Deque_unchecked_iterator@V?$_Deque_val@U?$_Deque_simple_types@UPoint@@@std@@@std@@@std@@@std@@YA?AV?$_Deque_unchecked_iterator@V?$_Deque_val@U?$_Deque_simple_types@UPoint@@@std@@@std@@@0@V10@@Z PROC ; std::_Prev_iter<std::_Deque_unchecked_iterator<std::_Deque_val<std::_Deque_simple_types<Point> > > >, COMDAT

; 1621 : constexpr _BidIt _Prev_iter(_BidIt _First) { // decrement iterator

$LN3:
  00000	48 89 54 24 10	 mov	 QWORD PTR [rsp+16], rdx
  00005	48 89 4c 24 08	 mov	 QWORD PTR [rsp+8], rcx
  0000a	56		 push	 rsi
  0000b	57		 push	 rdi
  0000c	48 83 ec 28	 sub	 rsp, 40			; 00000028H

; 1622 :     return --_First;

  00010	48 8b 4c 24 48	 mov	 rcx, QWORD PTR _First$[rsp]
  00015	e8 00 00 00 00	 call	 ??F?$_Deque_unchecked_iterator@V?$_Deque_val@U?$_Deque_simple_types@UPoint@@@std@@@std@@@std@@QEAAAEAV01@XZ ; std::_Deque_unchecked_iterator<std::_Deque_val<std::_Deque_simple_types<Point> > >::operator--
  0001a	48 8b 7c 24 40	 mov	 rdi, QWORD PTR __$ReturnUdt$[rsp]
  0001f	48 8b f0	 mov	 rsi, rax
  00022	b9 10 00 00 00	 mov	 ecx, 16
  00027	f3 a4		 rep movsb
  00029	48 8b 44 24 40	 mov	 rax, QWORD PTR __$ReturnUdt$[rsp]

; 1623 : }

  0002e	48 83 c4 28	 add	 rsp, 40			; 00000028H
  00032	5f		 pop	 rdi
  00033	5e		 pop	 rsi
  00034	c3		 ret	 0
??$_Prev_iter@V?$_Deque_unchecked_iterator@V?$_Deque_val@U?$_Deque_simple_types@UPoint@@@std@@@std@@@std@@@std@@YA?AV?$_Deque_unchecked_iterator@V?$_Deque_val@U?$_Deque_simple_types@UPoint@@@std@@@std@@@0@V10@@Z ENDP ; std::_Prev_iter<std::_Deque_unchecked_iterator<std::_Deque_val<std::_Deque_simple_types<Point> > > >
_TEXT	ENDS
; Function compile flags: /Odtp /RTCsu
;	COMDAT ??0?$_Deque_unchecked_iterator@V?$_Deque_val@U?$_Deque_simple_types@UPoint@@@std@@@std@@@std@@QEAA@_KPEBU_Container_base12@1@@Z
_TEXT	SEGMENT
this$ = 48
__param0$ = 56
__param1$ = 64
??0?$_Deque_unchecked_iterator@V?$_Deque_val@U?$_Deque_simple_types@UPoint@@@std@@@std@@@std@@QEAA@_KPEBU_Container_base12@1@@Z PROC ; std::_Deque_unchecked_iterator<std::_Deque_val<std::_Deque_simple_types<Point> > >::_Deque_unchecked_iterator<std::_Deque_val<std::_Deque_simple_types<Point> > >, COMDAT
$LN3:
  00000	4c 89 44 24 18	 mov	 QWORD PTR [rsp+24], r8
  00005	48 89 54 24 10	 mov	 QWORD PTR [rsp+16], rdx
  0000a	48 89 4c 24 08	 mov	 QWORD PTR [rsp+8], rcx
  0000f	57		 push	 rdi
  00010	48 83 ec 20	 sub	 rsp, 32			; 00000020H
  00014	4c 8b 44 24 40	 mov	 r8, QWORD PTR __param1$[rsp]
  00019	48 8b 54 24 38	 mov	 rdx, QWORD PTR __param0$[rsp]
  0001e	48 8b 4c 24 30	 mov	 rcx, QWORD PTR this$[rsp]
  00023	e8 00 00 00 00	 call	 ??0?$_Deque_unchecked_const_iterator@V?$_Deque_val@U?$_Deque_simple_types@UPoint@@@std@@@std@@@std@@QEAA@_KPEBU_Container_base12@1@@Z ; std::_Deque_unchecked_const_iterator<std::_Deque_val<std::_Deque_simple_types<Point> > >::_Deque_unchecked_const_iterator<std::_Deque_val<std::_Deque_simple_types<Point> > >
  00028	48 8b 44 24 30	 mov	 rax, QWORD PTR this$[rsp]
  0002d	48 83 c4 20	 add	 rsp, 32			; 00000020H
  00031	5f		 pop	 rdi
  00032	c3		 ret	 0
??0?$_Deque_unchecked_iterator@V?$_Deque_val@U?$_Deque_simple_types@UPoint@@@std@@@std@@@std@@QEAA@_KPEBU_Container_base12@1@@Z ENDP ; std::_Deque_unchecked_iterator<std::_Deque_val<std::_Deque_simple_types<Point> > >::_Deque_unchecked_iterator<std::_Deque_val<std::_Deque_simple_types<Point> > >
_TEXT	ENDS
; Function compile flags: /Odtp /RTCsu
; File C:\Program Files (x86)\Microsoft Visual Studio\2019\Community\VC\Tools\MSVC\14.29.30037\include\deque
;	COMDAT ??F?$_Deque_unchecked_iterator@V?$_Deque_val@U?$_Deque_simple_types@UPoint@@@std@@@std@@@std@@QEAAAEAV01@XZ
_TEXT	SEGMENT
this$ = 48
??F?$_Deque_unchecked_iterator@V?$_Deque_val@U?$_Deque_simple_types@UPoint@@@std@@@std@@@std@@QEAAAEAV01@XZ PROC ; std::_Deque_unchecked_iterator<std::_Deque_val<std::_Deque_simple_types<Point> > >::operator--, COMDAT

; 187  :     _Deque_unchecked_iterator& operator--() noexcept {

$LN3:
  00000	48 89 4c 24 08	 mov	 QWORD PTR [rsp+8], rcx
  00005	57		 push	 rdi
  00006	48 83 ec 20	 sub	 rsp, 32			; 00000020H

; 188  :         _Mybase::operator--();

  0000a	48 8b 4c 24 30	 mov	 rcx, QWORD PTR this$[rsp]
  0000f	e8 00 00 00 00	 call	 ??F?$_Deque_unchecked_const_iterator@V?$_Deque_val@U?$_Deque_simple_types@UPoint@@@std@@@std@@@std@@QEAAAEAV01@XZ ; std::_Deque_unchecked_const_iterator<std::_Deque_val<std::_Deque_simple_types<Point> > >::operator--

; 189  :         return *this;

  00014	48 8b 44 24 30	 mov	 rax, QWORD PTR this$[rsp]

; 190  :     }

  00019	48 83 c4 20	 add	 rsp, 32			; 00000020H
  0001d	5f		 pop	 rdi
  0001e	c3		 ret	 0
??F?$_Deque_unchecked_iterator@V?$_Deque_val@U?$_Deque_simple_types@UPoint@@@std@@@std@@@std@@QEAAAEAV01@XZ ENDP ; std::_Deque_unchecked_iterator<std::_Deque_val<std::_Deque_simple_types<Point> > >::operator--
_TEXT	ENDS
; Function compile flags: /Odtp /RTCsu
; File C:\Program Files (x86)\Microsoft Visual Studio\2019\Community\VC\Tools\MSVC\14.29.30037\include\deque
;	COMDAT ??D?$_Deque_unchecked_iterator@V?$_Deque_val@U?$_Deque_simple_types@UPoint@@@std@@@std@@@std@@QEBAAEAUPoint@@XZ
_TEXT	SEGMENT
this$ = 48
??D?$_Deque_unchecked_iterator@V?$_Deque_val@U?$_Deque_simple_types@UPoint@@@std@@@std@@@std@@QEBAAEAUPoint@@XZ PROC ; std::_Deque_unchecked_iterator<std::_Deque_val<std::_Deque_simple_types<Point> > >::operator*, COMDAT

; 168  :     _NODISCARD reference operator*() const noexcept {

$LN3:
  00000	48 89 4c 24 08	 mov	 QWORD PTR [rsp+8], rcx
  00005	57		 push	 rdi
  00006	48 83 ec 20	 sub	 rsp, 32			; 00000020H

; 169  :         return const_cast<reference>(_Mybase::operator*());

  0000a	48 8b 4c 24 30	 mov	 rcx, QWORD PTR this$[rsp]
  0000f	e8 00 00 00 00	 call	 ??D?$_Deque_unchecked_const_iterator@V?$_Deque_val@U?$_Deque_simple_types@UPoint@@@std@@@std@@@std@@QEBAAEBUPoint@@XZ ; std::_Deque_unchecked_const_iterator<std::_Deque_val<std::_Deque_simple_types<Point> > >::operator*

; 170  :     }

  00014	48 83 c4 20	 add	 rsp, 32			; 00000020H
  00018	5f		 pop	 rdi
  00019	c3		 ret	 0
??D?$_Deque_unchecked_iterator@V?$_Deque_val@U?$_Deque_simple_types@UPoint@@@std@@@std@@@std@@QEBAAEAUPoint@@XZ ENDP ; std::_Deque_unchecked_iterator<std::_Deque_val<std::_Deque_simple_types<Point> > >::operator*
_TEXT	ENDS
; Function compile flags: /Odtp /RTCsu
; File C:\Program Files (x86)\Microsoft Visual Studio\2019\Community\VC\Tools\MSVC\14.29.30037\include\deque
;	COMDAT ??F?$_Deque_unchecked_const_iterator@V?$_Deque_val@U?$_Deque_simple_types@UPoint@@@std@@@std@@@std@@QEAAAEAV01@XZ
_TEXT	SEGMENT
this$ = 16
??F?$_Deque_unchecked_const_iterator@V?$_Deque_val@U?$_Deque_simple_types@UPoint@@@std@@@std@@@std@@QEAAAEAV01@XZ PROC ; std::_Deque_unchecked_const_iterator<std::_Deque_val<std::_Deque_simple_types<Point> > >::operator--, COMDAT

; 67   :     _Deque_unchecked_const_iterator& operator--() noexcept {

$LN3:
  00000	48 89 4c 24 08	 mov	 QWORD PTR [rsp+8], rcx
  00005	57		 push	 rdi

; 68   :         --_Myoff;

  00006	48 8b 44 24 10	 mov	 rax, QWORD PTR this$[rsp]
  0000b	48 8b 40 08	 mov	 rax, QWORD PTR [rax+8]
  0000f	48 ff c8	 dec	 rax
  00012	48 8b 4c 24 10	 mov	 rcx, QWORD PTR this$[rsp]
  00017	48 89 41 08	 mov	 QWORD PTR [rcx+8], rax

; 69   :         return *this;

  0001b	48 8b 44 24 10	 mov	 rax, QWORD PTR this$[rsp]

; 70   :     }

  00020	5f		 pop	 rdi
  00021	c3		 ret	 0
??F?$_Deque_unchecked_const_iterator@V?$_Deque_val@U?$_Deque_simple_types@UPoint@@@std@@@std@@@std@@QEAAAEAV01@XZ ENDP ; std::_Deque_unchecked_const_iterator<std::_Deque_val<std::_Deque_simple_types<Point> > >::operator--
_TEXT	ENDS
; Function compile flags: /Odtp /RTCsu
; File C:\Program Files (x86)\Microsoft Visual Studio\2019\Community\VC\Tools\MSVC\14.29.30037\include\deque
;	COMDAT ??D?$_Deque_unchecked_const_iterator@V?$_Deque_val@U?$_Deque_simple_types@UPoint@@@std@@@std@@@std@@QEBAAEBUPoint@@XZ
_TEXT	SEGMENT
_Block$ = 32
_Off$ = 40
this$ = 64
??D?$_Deque_unchecked_const_iterator@V?$_Deque_val@U?$_Deque_simple_types@UPoint@@@std@@@std@@@std@@QEBAAEBUPoint@@XZ PROC ; std::_Deque_unchecked_const_iterator<std::_Deque_val<std::_Deque_simple_types<Point> > >::operator*, COMDAT

; 46   :     _NODISCARD reference operator*() const noexcept {

$LN3:
  00000	48 89 4c 24 08	 mov	 QWORD PTR [rsp+8], rcx
  00005	57		 push	 rdi
  00006	48 83 ec 30	 sub	 rsp, 48			; 00000030H

; 47   :         _Size_type _Block = _Mycont->_Getblock(_Myoff);

  0000a	48 8b 44 24 40	 mov	 rax, QWORD PTR this$[rsp]
  0000f	48 8b 50 08	 mov	 rdx, QWORD PTR [rax+8]
  00013	48 8b 44 24 40	 mov	 rax, QWORD PTR this$[rsp]
  00018	48 8b 08	 mov	 rcx, QWORD PTR [rax]
  0001b	e8 00 00 00 00	 call	 ?_Getblock@?$_Deque_val@U?$_Deque_simple_types@UPoint@@@std@@@std@@QEBA_K_K@Z ; std::_Deque_val<std::_Deque_simple_types<Point> >::_Getblock
  00020	48 89 44 24 20	 mov	 QWORD PTR _Block$[rsp], rax

; 48   :         _Size_type _Off   = _Myoff % _Block_size;

  00025	33 d2		 xor	 edx, edx
  00027	48 8b 44 24 40	 mov	 rax, QWORD PTR this$[rsp]
  0002c	48 8b 40 08	 mov	 rax, QWORD PTR [rax+8]
  00030	b9 02 00 00 00	 mov	 ecx, 2
  00035	48 f7 f1	 div	 rcx
  00038	48 8b c2	 mov	 rax, rdx
  0003b	48 89 44 24 28	 mov	 QWORD PTR _Off$[rsp], rax

; 49   :         return _Mycont->_Map[_Block][_Off];

  00040	48 8b 44 24 40	 mov	 rax, QWORD PTR this$[rsp]
  00045	48 8b 00	 mov	 rax, QWORD PTR [rax]
  00048	48 8b 40 08	 mov	 rax, QWORD PTR [rax+8]
  0004c	48 8b 4c 24 20	 mov	 rcx, QWORD PTR _Block$[rsp]
  00051	48 8b 04 c8	 mov	 rax, QWORD PTR [rax+rcx*8]
  00055	48 8b 4c 24 28	 mov	 rcx, QWORD PTR _Off$[rsp]
  0005a	48 8d 04 c8	 lea	 rax, QWORD PTR [rax+rcx*8]

; 50   :     }

  0005e	48 83 c4 30	 add	 rsp, 48			; 00000030H
  00062	5f		 pop	 rdi
  00063	c3		 ret	 0
??D?$_Deque_unchecked_const_iterator@V?$_Deque_val@U?$_Deque_simple_types@UPoint@@@std@@@std@@@std@@QEBAAEBUPoint@@XZ ENDP ; std::_Deque_unchecked_const_iterator<std::_Deque_val<std::_Deque_simple_types<Point> > >::operator*
_TEXT	ENDS
; Function compile flags: /Odtp /RTCsu
; File C:\Program Files (x86)\Microsoft Visual Studio\2019\Community\VC\Tools\MSVC\14.29.30037\include\deque
;	COMDAT ??0?$_Deque_unchecked_const_iterator@V?$_Deque_val@U?$_Deque_simple_types@UPoint@@@std@@@std@@@std@@QEAA@_KPEBU_Container_base12@1@@Z
_TEXT	SEGMENT
this$ = 16
_Off$ = 24
_Pdeque$ = 32
??0?$_Deque_unchecked_const_iterator@V?$_Deque_val@U?$_Deque_simple_types@UPoint@@@std@@@std@@@std@@QEAA@_KPEBU_Container_base12@1@@Z PROC ; std::_Deque_unchecked_const_iterator<std::_Deque_val<std::_Deque_simple_types<Point> > >::_Deque_unchecked_const_iterator<std::_Deque_val<std::_Deque_simple_types<Point> > >, COMDAT

; 44   :         : _Mycont(static_cast<const _Mydeque*>(_Pdeque)), _Myoff(_Off) {}

$LN3:
  00000	4c 89 44 24 18	 mov	 QWORD PTR [rsp+24], r8
  00005	48 89 54 24 10	 mov	 QWORD PTR [rsp+16], rdx
  0000a	48 89 4c 24 08	 mov	 QWORD PTR [rsp+8], rcx
  0000f	57		 push	 rdi
  00010	48 8b 44 24 10	 mov	 rax, QWORD PTR this$[rsp]
  00015	48 8b 4c 24 20	 mov	 rcx, QWORD PTR _Pdeque$[rsp]
  0001a	48 89 08	 mov	 QWORD PTR [rax], rcx
  0001d	48 8b 44 24 10	 mov	 rax, QWORD PTR this$[rsp]
  00022	48 8b 4c 24 18	 mov	 rcx, QWORD PTR _Off$[rsp]
  00027	48 89 48 08	 mov	 QWORD PTR [rax+8], rcx
  0002b	48 8b 44 24 10	 mov	 rax, QWORD PTR this$[rsp]
  00030	5f		 pop	 rdi
  00031	c3		 ret	 0
??0?$_Deque_unchecked_const_iterator@V?$_Deque_val@U?$_Deque_simple_types@UPoint@@@std@@@std@@@std@@QEAA@_KPEBU_Container_base12@1@@Z ENDP ; std::_Deque_unchecked_const_iterator<std::_Deque_val<std::_Deque_simple_types<Point> > >::_Deque_unchecked_const_iterator<std::_Deque_val<std::_Deque_simple_types<Point> > >
_TEXT	ENDS
; Function compile flags: /Odtp /RTCsu
; File C:\Program Files (x86)\Microsoft Visual Studio\2019\Community\VC\Tools\MSVC\14.29.30037\include\deque
;	COMDAT ??$_Emplace_back_internal@AEBUPoint@@@?$deque@UPoint@@V?$allocator@UPoint@@@std@@@std@@AEAAXAEBUPoint@@@Z
_TEXT	SEGMENT
_Newoff$ = 32
_Block$ = 40
tv65 = 48
tv72 = 56
tv86 = 64
tv89 = 72
tv137 = 80
tv145 = 88
tv167 = 96
tv148 = 104
tv163 = 112
this$ = 144
<_Vals_0>$ = 152
??$_Emplace_back_internal@AEBUPoint@@@?$deque@UPoint@@V?$allocator@UPoint@@@std@@@std@@AEAAXAEBUPoint@@@Z PROC ; std::deque<Point,std::allocator<Point> >::_Emplace_back_internal<Point const &>, COMDAT

; 1112 :     void _Emplace_back_internal(_Tys&&... _Vals) {

$LN5:
  00000	48 89 54 24 10	 mov	 QWORD PTR [rsp+16], rdx
  00005	48 89 4c 24 08	 mov	 QWORD PTR [rsp+8], rcx
  0000a	57		 push	 rdi
  0000b	48 81 ec 80 00
	00 00		 sub	 rsp, 128		; 00000080H

; 1113 :         if ((_Myoff() + _Mysize()) % _Block_size == 0 && _Mapsize() <= (_Mysize() + _Block_size) / _Block_size) {

  00012	48 8b 8c 24 90
	00 00 00	 mov	 rcx, QWORD PTR this$[rsp]
  0001a	e8 00 00 00 00	 call	 ?_Myoff@?$deque@UPoint@@V?$allocator@UPoint@@@std@@@std@@AEAAAEA_KXZ ; std::deque<Point,std::allocator<Point> >::_Myoff
  0001f	48 89 44 24 30	 mov	 QWORD PTR tv65[rsp], rax
  00024	48 8b 8c 24 90
	00 00 00	 mov	 rcx, QWORD PTR this$[rsp]
  0002c	e8 00 00 00 00	 call	 ?_Mysize@?$deque@UPoint@@V?$allocator@UPoint@@@std@@@std@@AEAAAEA_KXZ ; std::deque<Point,std::allocator<Point> >::_Mysize
  00031	48 8b 4c 24 30	 mov	 rcx, QWORD PTR tv65[rsp]
  00036	48 8b 09	 mov	 rcx, QWORD PTR [rcx]
  00039	48 03 08	 add	 rcx, QWORD PTR [rax]
  0003c	48 8b c1	 mov	 rax, rcx
  0003f	33 d2		 xor	 edx, edx
  00041	b9 02 00 00 00	 mov	 ecx, 2
  00046	48 f7 f1	 div	 rcx
  00049	48 8b c2	 mov	 rax, rdx
  0004c	48 85 c0	 test	 rax, rax
  0004f	75 4c		 jne	 SHORT $LN2@Emplace_ba
  00051	48 8b 8c 24 90
	00 00 00	 mov	 rcx, QWORD PTR this$[rsp]
  00059	e8 00 00 00 00	 call	 ?_Mapsize@?$deque@UPoint@@V?$allocator@UPoint@@@std@@@std@@AEAAAEA_KXZ ; std::deque<Point,std::allocator<Point> >::_Mapsize
  0005e	48 89 44 24 38	 mov	 QWORD PTR tv72[rsp], rax
  00063	48 8b 8c 24 90
	00 00 00	 mov	 rcx, QWORD PTR this$[rsp]
  0006b	e8 00 00 00 00	 call	 ?_Mysize@?$deque@UPoint@@V?$allocator@UPoint@@@std@@@std@@AEAAAEA_KXZ ; std::deque<Point,std::allocator<Point> >::_Mysize
  00070	48 8b 00	 mov	 rax, QWORD PTR [rax]
  00073	48 83 c0 02	 add	 rax, 2
  00077	33 d2		 xor	 edx, edx
  00079	b9 02 00 00 00	 mov	 ecx, 2
  0007e	48 f7 f1	 div	 rcx
  00081	48 8b 4c 24 38	 mov	 rcx, QWORD PTR tv72[rsp]
  00086	48 39 01	 cmp	 QWORD PTR [rcx], rax
  00089	77 12		 ja	 SHORT $LN2@Emplace_ba

; 1114 :             _Growmap(1);

  0008b	ba 01 00 00 00	 mov	 edx, 1
  00090	48 8b 8c 24 90
	00 00 00	 mov	 rcx, QWORD PTR this$[rsp]
  00098	e8 00 00 00 00	 call	 ?_Growmap@?$deque@UPoint@@V?$allocator@UPoint@@@std@@@std@@AEAAX_K@Z ; std::deque<Point,std::allocator<Point> >::_Growmap
$LN2@Emplace_ba:

; 1115 :         }
; 1116 :         _Myoff() &= _Mapsize() * _Block_size - 1;

  0009d	48 8b 8c 24 90
	00 00 00	 mov	 rcx, QWORD PTR this$[rsp]
  000a5	e8 00 00 00 00	 call	 ?_Myoff@?$deque@UPoint@@V?$allocator@UPoint@@@std@@@std@@AEAAAEA_KXZ ; std::deque<Point,std::allocator<Point> >::_Myoff
  000aa	48 89 44 24 40	 mov	 QWORD PTR tv86[rsp], rax
  000af	48 8b 8c 24 90
	00 00 00	 mov	 rcx, QWORD PTR this$[rsp]
  000b7	e8 00 00 00 00	 call	 ?_Mapsize@?$deque@UPoint@@V?$allocator@UPoint@@@std@@@std@@AEAAAEA_KXZ ; std::deque<Point,std::allocator<Point> >::_Mapsize
  000bc	48 8b 00	 mov	 rax, QWORD PTR [rax]
  000bf	48 8d 44 00 ff	 lea	 rax, QWORD PTR [rax+rax-1]
  000c4	48 8b 4c 24 40	 mov	 rcx, QWORD PTR tv86[rsp]
  000c9	48 8b 09	 mov	 rcx, QWORD PTR [rcx]
  000cc	48 23 c8	 and	 rcx, rax
  000cf	48 8b c1	 mov	 rax, rcx
  000d2	48 8b 4c 24 40	 mov	 rcx, QWORD PTR tv86[rsp]
  000d7	48 89 01	 mov	 QWORD PTR [rcx], rax

; 1117 :         size_type _Newoff = _Myoff() + _Mysize();

  000da	48 8b 8c 24 90
	00 00 00	 mov	 rcx, QWORD PTR this$[rsp]
  000e2	e8 00 00 00 00	 call	 ?_Myoff@?$deque@UPoint@@V?$allocator@UPoint@@@std@@@std@@AEAAAEA_KXZ ; std::deque<Point,std::allocator<Point> >::_Myoff
  000e7	48 89 44 24 48	 mov	 QWORD PTR tv89[rsp], rax
  000ec	48 8b 8c 24 90
	00 00 00	 mov	 rcx, QWORD PTR this$[rsp]
  000f4	e8 00 00 00 00	 call	 ?_Mysize@?$deque@UPoint@@V?$allocator@UPoint@@@std@@@std@@AEAAAEA_KXZ ; std::deque<Point,std::allocator<Point> >::_Mysize
  000f9	48 8b 4c 24 48	 mov	 rcx, QWORD PTR tv89[rsp]
  000fe	48 8b 09	 mov	 rcx, QWORD PTR [rcx]
  00101	48 03 08	 add	 rcx, QWORD PTR [rax]
  00104	48 8b c1	 mov	 rax, rcx
  00107	48 89 44 24 20	 mov	 QWORD PTR _Newoff$[rsp], rax

; 1118 :         size_type _Block  = _Getblock(_Newoff);

  0010c	48 8b 54 24 20	 mov	 rdx, QWORD PTR _Newoff$[rsp]
  00111	48 8b 8c 24 90
	00 00 00	 mov	 rcx, QWORD PTR this$[rsp]
  00119	e8 00 00 00 00	 call	 ?_Getblock@?$deque@UPoint@@V?$allocator@UPoint@@@std@@@std@@AEBA_K_K@Z ; std::deque<Point,std::allocator<Point> >::_Getblock
  0011e	48 89 44 24 28	 mov	 QWORD PTR _Block$[rsp], rax

; 1119 :         if (_Map()[_Block] == nullptr) {

  00123	48 8b 8c 24 90
	00 00 00	 mov	 rcx, QWORD PTR this$[rsp]
  0012b	e8 00 00 00 00	 call	 ?_Map@?$deque@UPoint@@V?$allocator@UPoint@@@std@@@std@@AEAAAEAPEAPEAUPoint@@XZ ; std::deque<Point,std::allocator<Point> >::_Map
  00130	48 8b 00	 mov	 rax, QWORD PTR [rax]
  00133	48 8b 4c 24 28	 mov	 rcx, QWORD PTR _Block$[rsp]
  00138	48 83 3c c8 00	 cmp	 QWORD PTR [rax+rcx*8], 0
  0013d	75 3d		 jne	 SHORT $LN3@Emplace_ba

; 1120 :             _Map()[_Block] = _Getal().allocate(_Block_size);

  0013f	48 8b 8c 24 90
	00 00 00	 mov	 rcx, QWORD PTR this$[rsp]
  00147	e8 00 00 00 00	 call	 ?_Getal@?$deque@UPoint@@V?$allocator@UPoint@@@std@@@std@@AEAAAEAV?$allocator@UPoint@@@2@XZ ; std::deque<Point,std::allocator<Point> >::_Getal
  0014c	ba 02 00 00 00	 mov	 edx, 2
  00151	48 8b c8	 mov	 rcx, rax
  00154	e8 00 00 00 00	 call	 ?allocate@?$allocator@UPoint@@@std@@QEAAPEAUPoint@@_K@Z ; std::allocator<Point>::allocate
  00159	48 89 44 24 50	 mov	 QWORD PTR tv137[rsp], rax
  0015e	48 8b 8c 24 90
	00 00 00	 mov	 rcx, QWORD PTR this$[rsp]
  00166	e8 00 00 00 00	 call	 ?_Map@?$deque@UPoint@@V?$allocator@UPoint@@@std@@@std@@AEAAAEAPEAPEAUPoint@@XZ ; std::deque<Point,std::allocator<Point> >::_Map
  0016b	48 8b 00	 mov	 rax, QWORD PTR [rax]
  0016e	48 8b 4c 24 28	 mov	 rcx, QWORD PTR _Block$[rsp]
  00173	48 8b 54 24 50	 mov	 rdx, QWORD PTR tv137[rsp]
  00178	48 89 14 c8	 mov	 QWORD PTR [rax+rcx*8], rdx
$LN3@Emplace_ba:

; 1121 :         }
; 1122 : 
; 1123 :         _Alty_traits::construct(

  0017c	48 8b 8c 24 98
	00 00 00	 mov	 rcx, QWORD PTR <_Vals_0>$[rsp]
  00184	e8 00 00 00 00	 call	 ??$forward@AEBUPoint@@@std@@YAAEBUPoint@@AEBU1@@Z ; std::forward<Point const &>
  00189	48 89 44 24 58	 mov	 QWORD PTR tv145[rsp], rax
  0018e	48 8b 8c 24 90
	00 00 00	 mov	 rcx, QWORD PTR this$[rsp]
  00196	e8 00 00 00 00	 call	 ?_Map@?$deque@UPoint@@V?$allocator@UPoint@@@std@@@std@@AEAAAEAPEAPEAUPoint@@XZ ; std::deque<Point,std::allocator<Point> >::_Map
  0019b	48 8b 00	 mov	 rax, QWORD PTR [rax]
  0019e	48 89 44 24 60	 mov	 QWORD PTR tv167[rsp], rax
  001a3	33 d2		 xor	 edx, edx
  001a5	48 8b 44 24 20	 mov	 rax, QWORD PTR _Newoff$[rsp]
  001aa	b9 02 00 00 00	 mov	 ecx, 2
  001af	48 f7 f1	 div	 rcx
  001b2	48 8b c2	 mov	 rax, rdx
  001b5	48 8b 4c 24 28	 mov	 rcx, QWORD PTR _Block$[rsp]
  001ba	48 8b 54 24 60	 mov	 rdx, QWORD PTR tv167[rsp]
  001bf	48 8b 0c ca	 mov	 rcx, QWORD PTR [rdx+rcx*8]
  001c3	48 8d 04 c1	 lea	 rax, QWORD PTR [rcx+rax*8]
  001c7	48 8b c8	 mov	 rcx, rax
  001ca	e8 00 00 00 00	 call	 ??$_Unfancy@UPoint@@@std@@YAPEAUPoint@@PEAU1@@Z ; std::_Unfancy<Point>
  001cf	48 89 44 24 68	 mov	 QWORD PTR tv148[rsp], rax
  001d4	48 8b 8c 24 90
	00 00 00	 mov	 rcx, QWORD PTR this$[rsp]
  001dc	e8 00 00 00 00	 call	 ?_Getal@?$deque@UPoint@@V?$allocator@UPoint@@@std@@@std@@AEAAAEAV?$allocator@UPoint@@@2@XZ ; std::deque<Point,std::allocator<Point> >::_Getal
  001e1	48 8b 4c 24 58	 mov	 rcx, QWORD PTR tv145[rsp]
  001e6	4c 8b c1	 mov	 r8, rcx
  001e9	48 8b 4c 24 68	 mov	 rcx, QWORD PTR tv148[rsp]
  001ee	48 8b d1	 mov	 rdx, rcx
  001f1	48 8b c8	 mov	 rcx, rax
  001f4	e8 00 00 00 00	 call	 ??$construct@UPoint@@AEBU1@@?$_Default_allocator_traits@V?$allocator@UPoint@@@std@@@std@@SAXAEAV?$allocator@UPoint@@@1@QEAUPoint@@AEBU3@@Z ; std::_Default_allocator_traits<std::allocator<Point> >::construct<Point,Point const &>

; 1124 :             _Getal(), _Unfancy(_Map()[_Block] + _Newoff % _Block_size), _STD forward<_Tys>(_Vals)...);
; 1125 : 
; 1126 :         ++_Mysize();

  001f9	48 8b 8c 24 90
	00 00 00	 mov	 rcx, QWORD PTR this$[rsp]
  00201	e8 00 00 00 00	 call	 ?_Mysize@?$deque@UPoint@@V?$allocator@UPoint@@@std@@@std@@AEAAAEA_KXZ ; std::deque<Point,std::allocator<Point> >::_Mysize
  00206	48 89 44 24 70	 mov	 QWORD PTR tv163[rsp], rax
  0020b	48 8b 44 24 70	 mov	 rax, QWORD PTR tv163[rsp]
  00210	48 8b 00	 mov	 rax, QWORD PTR [rax]
  00213	48 ff c0	 inc	 rax
  00216	48 8b 4c 24 70	 mov	 rcx, QWORD PTR tv163[rsp]
  0021b	48 89 01	 mov	 QWORD PTR [rcx], rax

; 1127 :     }

  0021e	48 81 c4 80 00
	00 00		 add	 rsp, 128		; 00000080H
  00225	5f		 pop	 rdi
  00226	c3		 ret	 0
??$_Emplace_back_internal@AEBUPoint@@@?$deque@UPoint@@V?$allocator@UPoint@@@std@@@std@@AEAAXAEBUPoint@@@Z ENDP ; std::deque<Point,std::allocator<Point> >::_Emplace_back_internal<Point const &>
_TEXT	ENDS
; Function compile flags: /Odtp /RTCsu
; File C:\Program Files (x86)\Microsoft Visual Studio\2019\Community\VC\Tools\MSVC\14.29.30037\include\xmemory
;	COMDAT ??$destroy@UPoint@@@?$_Default_allocator_traits@V?$allocator@UPoint@@@std@@@std@@SAXAEAV?$allocator@UPoint@@@1@QEAUPoint@@@Z
_TEXT	SEGMENT
__formal$ = 16
_Ptr$ = 24
??$destroy@UPoint@@@?$_Default_allocator_traits@V?$allocator@UPoint@@@std@@@std@@SAXAEAV?$allocator@UPoint@@@1@QEAUPoint@@@Z PROC ; std::_Default_allocator_traits<std::allocator<Point> >::destroy<Point>, COMDAT

; 719  :     static _CONSTEXPR20_DYNALLOC void destroy(_Alloc&, _Uty* const _Ptr) {

$LN3:
  00000	48 89 54 24 10	 mov	 QWORD PTR [rsp+16], rdx
  00005	48 89 4c 24 08	 mov	 QWORD PTR [rsp+8], rcx
  0000a	57		 push	 rdi

; 720  : #ifdef __cpp_lib_constexpr_dynamic_alloc
; 721  :         _STD destroy_at(_Ptr);
; 722  : #else // __cpp_lib_constexpr_dynamic_alloc
; 723  :         _Ptr->~_Uty();
; 724  : #endif // __cpp_lib_constexpr_dynamic_alloc
; 725  :     }

  0000b	5f		 pop	 rdi
  0000c	c3		 ret	 0
??$destroy@UPoint@@@?$_Default_allocator_traits@V?$allocator@UPoint@@@std@@@std@@SAXAEAV?$allocator@UPoint@@@1@QEAUPoint@@@Z ENDP ; std::_Default_allocator_traits<std::allocator<Point> >::destroy<Point>
_TEXT	ENDS
; Function compile flags: /Odtp /RTCsu
; File C:\Program Files (x86)\Microsoft Visual Studio\2019\Community\VC\Tools\MSVC\14.29.30037\include\xstddef
;	COMDAT ??$_Unfancy@UPoint@@@std@@YAPEAUPoint@@PEAU1@@Z
_TEXT	SEGMENT
_Ptr$ = 16
??$_Unfancy@UPoint@@@std@@YAPEAUPoint@@PEAU1@@Z PROC	; std::_Unfancy<Point>, COMDAT

; 288  : _NODISCARD constexpr _Ty* _Unfancy(_Ty* _Ptr) noexcept { // do nothing for plain pointers

$LN3:
  00000	48 89 4c 24 08	 mov	 QWORD PTR [rsp+8], rcx
  00005	57		 push	 rdi

; 289  :     return _Ptr;

  00006	48 8b 44 24 10	 mov	 rax, QWORD PTR _Ptr$[rsp]

; 290  : }

  0000b	5f		 pop	 rdi
  0000c	c3		 ret	 0
??$_Unfancy@UPoint@@@std@@YAPEAUPoint@@PEAU1@@Z ENDP	; std::_Unfancy<Point>
_TEXT	ENDS
; Function compile flags: /Odtp /RTCsu
; File C:\Program Files (x86)\Microsoft Visual Studio\2019\Community\VC\Tools\MSVC\14.29.30037\include\xmemory
;	COMDAT ??$_Destroy_in_place@PEAUPoint@@@std@@YAXAEAPEAUPoint@@@Z
_TEXT	SEGMENT
_Obj$ = 16
??$_Destroy_in_place@PEAUPoint@@@std@@YAXAEAPEAUPoint@@@Z PROC ; std::_Destroy_in_place<Point *>, COMDAT

; 307  : _CONSTEXPR20_DYNALLOC void _Destroy_in_place(_Ty& _Obj) noexcept {

$LN3:
  00000	48 89 4c 24 08	 mov	 QWORD PTR [rsp+8], rcx
  00005	57		 push	 rdi

; 308  :     if constexpr (is_array_v<_Ty>) {
; 309  :         _Destroy_range(_Obj, _Obj + extent_v<_Ty>);
; 310  :     } else {
; 311  :         _Obj.~_Ty();
; 312  :     }
; 313  : }

  00006	5f		 pop	 rdi
  00007	c3		 ret	 0
??$_Destroy_in_place@PEAUPoint@@@std@@YAXAEAPEAUPoint@@@Z ENDP ; std::_Destroy_in_place<Point *>
_TEXT	ENDS
; Function compile flags: /Odtp /RTCsu
; File C:\Program Files (x86)\Microsoft Visual Studio\2019\Community\VC\Tools\MSVC\14.29.30037\include\xmemory
;	COMDAT ??$?0UPoint@@@?$allocator@PEAUPoint@@@std@@QEAA@AEBV?$allocator@UPoint@@@1@@Z
_TEXT	SEGMENT
this$ = 16
__formal$ = 24
??$?0UPoint@@@?$allocator@PEAUPoint@@@std@@QEAA@AEBV?$allocator@UPoint@@@1@@Z PROC ; std::allocator<Point *>::allocator<Point *><Point>, COMDAT

; 829  :     constexpr allocator(const allocator<_Other>&) noexcept {}

$LN3:
  00000	48 89 54 24 10	 mov	 QWORD PTR [rsp+16], rdx
  00005	48 89 4c 24 08	 mov	 QWORD PTR [rsp+8], rcx
  0000a	57		 push	 rdi
  0000b	48 8b 44 24 10	 mov	 rax, QWORD PTR this$[rsp]
  00010	5f		 pop	 rdi
  00011	c3		 ret	 0
??$?0UPoint@@@?$allocator@PEAUPoint@@@std@@QEAA@AEBV?$allocator@UPoint@@@1@@Z ENDP ; std::allocator<Point *>::allocator<Point *><Point>
_TEXT	ENDS
; Function compile flags: /Odtp /RTCsu
; File C:\Program Files (x86)\Microsoft Visual Studio\2019\Community\VC\Tools\MSVC\14.29.30037\include\xutility
;	COMDAT ??$_Construct_in_place@U_Container_proxy@std@@PEAU_Container_base12@2@@std@@YAXAEAU_Container_proxy@0@$$QEAPEAU_Container_base12@0@@Z
_TEXT	SEGMENT
$T1 = 32
_Obj$ = 64
<_Args_0>$ = 72
??$_Construct_in_place@U_Container_proxy@std@@PEAU_Container_base12@2@@std@@YAXAEAU_Container_proxy@0@$$QEAPEAU_Container_base12@0@@Z PROC ; std::_Construct_in_place<std::_Container_proxy,std::_Container_base12 *>, COMDAT

; 151  :     is_nothrow_constructible_v<_Ty, _Types...>) {

$LN3:
  00000	48 89 54 24 10	 mov	 QWORD PTR [rsp+16], rdx
  00005	48 89 4c 24 08	 mov	 QWORD PTR [rsp+8], rcx
  0000a	57		 push	 rdi
  0000b	48 83 ec 30	 sub	 rsp, 48			; 00000030H

; 152  : #ifdef __cpp_lib_constexpr_dynamic_alloc
; 153  :     if (_STD is_constant_evaluated()) {
; 154  :         _STD construct_at(_STD addressof(_Obj), _STD forward<_Types>(_Args)...);
; 155  :     } else
; 156  : #endif // __cpp_lib_constexpr_dynamic_alloc
; 157  :     {
; 158  :         ::new (_Voidify_iter(_STD addressof(_Obj))) _Ty(_STD forward<_Types>(_Args)...);

  0000f	48 8b 4c 24 40	 mov	 rcx, QWORD PTR _Obj$[rsp]
  00014	e8 00 00 00 00	 call	 ??$addressof@U_Container_proxy@std@@@std@@YAPEAU_Container_proxy@0@AEAU10@@Z ; std::addressof<std::_Container_proxy>
  00019	48 8b c8	 mov	 rcx, rax
  0001c	e8 00 00 00 00	 call	 ??$_Voidify_iter@PEAU_Container_proxy@std@@@std@@YAPEAXPEAU_Container_proxy@0@@Z ; std::_Voidify_iter<std::_Container_proxy *>
  00021	48 8b d0	 mov	 rdx, rax
  00024	b9 10 00 00 00	 mov	 ecx, 16
  00029	e8 00 00 00 00	 call	 ??2@YAPEAX_KPEAX@Z	; operator new
  0002e	48 89 44 24 20	 mov	 QWORD PTR $T1[rsp], rax
  00033	48 8b 4c 24 48	 mov	 rcx, QWORD PTR <_Args_0>$[rsp]
  00038	e8 00 00 00 00	 call	 ??$forward@PEAU_Container_base12@std@@@std@@YA$$QEAPEAU_Container_base12@0@AEAPEAU10@@Z ; std::forward<std::_Container_base12 *>
  0003d	48 8b 10	 mov	 rdx, QWORD PTR [rax]
  00040	48 8b 4c 24 20	 mov	 rcx, QWORD PTR $T1[rsp]
  00045	e8 00 00 00 00	 call	 ??0_Container_proxy@std@@QEAA@PEAU_Container_base12@1@@Z ; std::_Container_proxy::_Container_proxy

; 159  :     }
; 160  : }

  0004a	48 83 c4 30	 add	 rsp, 48			; 00000030H
  0004e	5f		 pop	 rdi
  0004f	c3		 ret	 0
??$_Construct_in_place@U_Container_proxy@std@@PEAU_Container_base12@2@@std@@YAXAEAU_Container_proxy@0@$$QEAPEAU_Container_base12@0@@Z ENDP ; std::_Construct_in_place<std::_Container_proxy,std::_Container_base12 *>
_TEXT	ENDS
; Function compile flags: /Odtp /RTCsu
; File C:\Program Files (x86)\Microsoft Visual Studio\2019\Community\VC\Tools\MSVC\14.29.30037\include\xstddef
;	COMDAT ??$_Unfancy@U_Container_proxy@std@@@std@@YAPEAU_Container_proxy@0@PEAU10@@Z
_TEXT	SEGMENT
_Ptr$ = 16
??$_Unfancy@U_Container_proxy@std@@@std@@YAPEAU_Container_proxy@0@PEAU10@@Z PROC ; std::_Unfancy<std::_Container_proxy>, COMDAT

; 288  : _NODISCARD constexpr _Ty* _Unfancy(_Ty* _Ptr) noexcept { // do nothing for plain pointers

$LN3:
  00000	48 89 4c 24 08	 mov	 QWORD PTR [rsp+8], rcx
  00005	57		 push	 rdi

; 289  :     return _Ptr;

  00006	48 8b 44 24 10	 mov	 rax, QWORD PTR _Ptr$[rsp]

; 290  : }

  0000b	5f		 pop	 rdi
  0000c	c3		 ret	 0
??$_Unfancy@U_Container_proxy@std@@@std@@YAPEAU_Container_proxy@0@PEAU10@@Z ENDP ; std::_Unfancy<std::_Container_proxy>
_TEXT	ENDS
; Function compile flags: /Odtp /RTCsu
; File C:\Program Files (x86)\Microsoft Visual Studio\2019\Community\VC\Tools\MSVC\14.29.30037\include\utility
;	COMDAT ??$min@_K@std@@YAAEB_KAEB_K0@Z
_TEXT	SEGMENT
$T1 = 0
tv65 = 8
_Left$ = 32
_Right$ = 40
??$min@_K@std@@YAAEB_KAEB_K0@Z PROC			; std::min<unsigned __int64>, COMDAT

; 66   :     const _Ty& _Left, const _Ty& _Right) noexcept(noexcept(_Right < _Left)) /* strengthened */ {

$LN5:
  00000	48 89 54 24 10	 mov	 QWORD PTR [rsp+16], rdx
  00005	48 89 4c 24 08	 mov	 QWORD PTR [rsp+8], rcx
  0000a	57		 push	 rdi
  0000b	48 83 ec 10	 sub	 rsp, 16

; 67   :     // return smaller of _Left and _Right
; 68   :     return _Right < _Left ? _Right : _Left;

  0000f	48 8b 44 24 28	 mov	 rax, QWORD PTR _Right$[rsp]
  00014	48 8b 4c 24 20	 mov	 rcx, QWORD PTR _Left$[rsp]
  00019	48 8b 09	 mov	 rcx, QWORD PTR [rcx]
  0001c	48 39 08	 cmp	 QWORD PTR [rax], rcx
  0001f	73 0c		 jae	 SHORT $LN3@min
  00021	48 8b 44 24 28	 mov	 rax, QWORD PTR _Right$[rsp]
  00026	48 89 44 24 08	 mov	 QWORD PTR tv65[rsp], rax
  0002b	eb 0a		 jmp	 SHORT $LN4@min
$LN3@min:
  0002d	48 8b 44 24 20	 mov	 rax, QWORD PTR _Left$[rsp]
  00032	48 89 44 24 08	 mov	 QWORD PTR tv65[rsp], rax
$LN4@min:
  00037	48 8b 44 24 08	 mov	 rax, QWORD PTR tv65[rsp]
  0003c	48 89 04 24	 mov	 QWORD PTR $T1[rsp], rax
  00040	48 8b 04 24	 mov	 rax, QWORD PTR $T1[rsp]

; 69   : }

  00044	48 83 c4 10	 add	 rsp, 16
  00048	5f		 pop	 rdi
  00049	c3		 ret	 0
??$min@_K@std@@YAAEB_KAEB_K0@Z ENDP			; std::min<unsigned __int64>
_TEXT	ENDS
; Function compile flags: /Odtp /RTCsu
; File C:\Program Files (x86)\Microsoft Visual Studio\2019\Community\VC\Tools\MSVC\14.29.30037\include\ostream
;	COMDAT ??Bsentry@?$basic_ostream@DU?$char_traits@D@std@@@std@@QEBA_NXZ
_TEXT	SEGMENT
this$ = 16
??Bsentry@?$basic_ostream@DU?$char_traits@D@std@@@std@@QEBA_NXZ PROC ; std::basic_ostream<char,std::char_traits<char> >::sentry::operator bool, COMDAT

; 124  :         explicit __CLR_OR_THIS_CALL operator bool() const {

$LN3:
  00000	48 89 4c 24 08	 mov	 QWORD PTR [rsp+8], rcx
  00005	57		 push	 rdi

; 125  :             return _Ok;

  00006	48 8b 44 24 10	 mov	 rax, QWORD PTR this$[rsp]
  0000b	0f b6 40 08	 movzx	 eax, BYTE PTR [rax+8]

; 126  :         }

  0000f	5f		 pop	 rdi
  00010	c3		 ret	 0
??Bsentry@?$basic_ostream@DU?$char_traits@D@std@@@std@@QEBA_NXZ ENDP ; std::basic_ostream<char,std::char_traits<char> >::sentry::operator bool
_TEXT	ENDS
; Function compile flags: /Odtp /RTCsu
; File C:\Program Files (x86)\Microsoft Visual Studio\2019\Community\VC\Tools\MSVC\14.29.30037\include\ostream
;	COMDAT ??1sentry@?$basic_ostream@DU?$char_traits@D@std@@@std@@QEAA@XZ
_TEXT	SEGMENT
_Zero_uncaught_exceptions$ = 32
tv72 = 33
this$ = 64
??1sentry@?$basic_ostream@DU?$char_traits@D@std@@@std@@QEAA@XZ PROC ; std::basic_ostream<char,std::char_traits<char> >::sentry::~sentry, COMDAT

; 109  :         __CLR_OR_THIS_CALL ~sentry() noexcept {

$LN6:
  00000	48 89 4c 24 08	 mov	 QWORD PTR [rsp+8], rcx
  00005	57		 push	 rdi
  00006	48 83 ec 30	 sub	 rsp, 48			; 00000030H

; 110  : #if !_HAS_EXCEPTIONS
; 111  :             const bool _Zero_uncaught_exceptions = true;
; 112  : #elif _HAS_DEPRECATED_UNCAUGHT_EXCEPTION
; 113  :             const bool _Zero_uncaught_exceptions = !_STD uncaught_exception(); // TRANSITION, ArchivedOS-12000909

  0000a	e8 00 00 00 00	 call	 ?uncaught_exception@std@@YA_NXZ ; std::uncaught_exception
  0000f	0f b6 c0	 movzx	 eax, al
  00012	85 c0		 test	 eax, eax
  00014	75 07		 jne	 SHORT $LN4@sentry
  00016	c6 44 24 21 01	 mov	 BYTE PTR tv72[rsp], 1
  0001b	eb 05		 jmp	 SHORT $LN5@sentry
$LN4@sentry:
  0001d	c6 44 24 21 00	 mov	 BYTE PTR tv72[rsp], 0
$LN5@sentry:
  00022	0f b6 44 24 21	 movzx	 eax, BYTE PTR tv72[rsp]
  00027	88 44 24 20	 mov	 BYTE PTR _Zero_uncaught_exceptions$[rsp], al

; 114  : #else // ^^^ _HAS_DEPRECATED_UNCAUGHT_EXCEPTION / !_HAS_DEPRECATED_UNCAUGHT_EXCEPTION vvv
; 115  :             const bool _Zero_uncaught_exceptions = _STD uncaught_exceptions() == 0;
; 116  : #endif // !_HAS_DEPRECATED_UNCAUGHT_EXCEPTION
; 117  : 
; 118  :             if (_Zero_uncaught_exceptions) {

  0002b	0f b6 44 24 20	 movzx	 eax, BYTE PTR _Zero_uncaught_exceptions$[rsp]
  00030	85 c0		 test	 eax, eax
  00032	74 0e		 je	 SHORT $LN2@sentry

; 119  :                 this->_Myostr._Osfx();

  00034	48 8b 44 24 40	 mov	 rax, QWORD PTR this$[rsp]
  00039	48 8b 08	 mov	 rcx, QWORD PTR [rax]
  0003c	ff 15 00 00 00
	00		 call	 QWORD PTR __imp_?_Osfx@?$basic_ostream@DU?$char_traits@D@std@@@std@@QEAAXXZ
$LN2@sentry:

; 120  :             }
; 121  :         }

  00042	48 8b 4c 24 40	 mov	 rcx, QWORD PTR this$[rsp]
  00047	e8 00 00 00 00	 call	 ??1_Sentry_base@?$basic_ostream@DU?$char_traits@D@std@@@std@@QEAA@XZ ; std::basic_ostream<char,std::char_traits<char> >::_Sentry_base::~_Sentry_base
  0004c	90		 npad	 1
  0004d	48 83 c4 30	 add	 rsp, 48			; 00000030H
  00051	5f		 pop	 rdi
  00052	c3		 ret	 0
??1sentry@?$basic_ostream@DU?$char_traits@D@std@@@std@@QEAA@XZ ENDP ; std::basic_ostream<char,std::char_traits<char> >::sentry::~sentry
_TEXT	ENDS
; Function compile flags: /Odtp /RTCsu
; File C:\Program Files (x86)\Microsoft Visual Studio\2019\Community\VC\Tools\MSVC\14.29.30037\include\ostream
;	COMDAT ??0sentry@?$basic_ostream@DU?$char_traits@D@std@@@std@@QEAA@AEAV12@@Z
_TEXT	SEGMENT
_Tied$ = 32
this$ = 64
_Ostr$ = 72
??0sentry@?$basic_ostream@DU?$char_traits@D@std@@@std@@QEAA@AEAV12@@Z PROC ; std::basic_ostream<char,std::char_traits<char> >::sentry::sentry, COMDAT

; 92   :         explicit __CLR_OR_THIS_CALL sentry(basic_ostream& _Ostr) : _Sentry_base(_Ostr) {

$LN7:
  00000	48 89 54 24 10	 mov	 QWORD PTR [rsp+16], rdx
  00005	48 89 4c 24 08	 mov	 QWORD PTR [rsp+8], rcx
  0000a	57		 push	 rdi
  0000b	48 83 ec 30	 sub	 rsp, 48			; 00000030H
  0000f	48 8b 54 24 48	 mov	 rdx, QWORD PTR _Ostr$[rsp]
  00014	48 8b 4c 24 40	 mov	 rcx, QWORD PTR this$[rsp]
  00019	e8 00 00 00 00	 call	 ??0_Sentry_base@?$basic_ostream@DU?$char_traits@D@std@@@std@@QEAA@AEAV12@@Z ; std::basic_ostream<char,std::char_traits<char> >::_Sentry_base::_Sentry_base
  0001e	90		 npad	 1

; 93   :             if (!_Ostr.good()) {

  0001f	48 8b 44 24 48	 mov	 rax, QWORD PTR _Ostr$[rsp]
  00024	48 8b 00	 mov	 rax, QWORD PTR [rax]
  00027	48 63 40 04	 movsxd	 rax, DWORD PTR [rax+4]
  0002b	48 8b 4c 24 48	 mov	 rcx, QWORD PTR _Ostr$[rsp]
  00030	48 03 c8	 add	 rcx, rax
  00033	48 8b c1	 mov	 rax, rcx
  00036	48 8b c8	 mov	 rcx, rax
  00039	ff 15 00 00 00
	00		 call	 QWORD PTR __imp_?good@ios_base@std@@QEBA_NXZ
  0003f	0f b6 c0	 movzx	 eax, al
  00042	85 c0		 test	 eax, eax
  00044	75 0b		 jne	 SHORT $LN2@sentry

; 94   :                 _Ok = false;

  00046	48 8b 44 24 40	 mov	 rax, QWORD PTR this$[rsp]
  0004b	c6 40 08 00	 mov	 BYTE PTR [rax+8], 0

; 95   :                 return;

  0004f	eb 77		 jmp	 SHORT $LN1@sentry
$LN2@sentry:

; 96   :             }
; 97   : 
; 98   :             const auto _Tied = _Ostr.tie();

  00051	48 8b 44 24 48	 mov	 rax, QWORD PTR _Ostr$[rsp]
  00056	48 8b 00	 mov	 rax, QWORD PTR [rax]
  00059	48 63 40 04	 movsxd	 rax, DWORD PTR [rax+4]
  0005d	48 8b 4c 24 48	 mov	 rcx, QWORD PTR _Ostr$[rsp]
  00062	48 03 c8	 add	 rcx, rax
  00065	48 8b c1	 mov	 rax, rcx
  00068	48 8b c8	 mov	 rcx, rax
  0006b	ff 15 00 00 00
	00		 call	 QWORD PTR __imp_?tie@?$basic_ios@DU?$char_traits@D@std@@@std@@QEBAPEAV?$basic_ostream@DU?$char_traits@D@std@@@2@XZ
  00071	48 89 44 24 20	 mov	 QWORD PTR _Tied$[rsp], rax

; 99   :             if (!_Tied || _Tied == &_Ostr) {

  00076	48 83 7c 24 20
	00		 cmp	 QWORD PTR _Tied$[rsp], 0
  0007c	74 0c		 je	 SHORT $LN4@sentry
  0007e	48 8b 44 24 48	 mov	 rax, QWORD PTR _Ostr$[rsp]
  00083	48 39 44 24 20	 cmp	 QWORD PTR _Tied$[rsp], rax
  00088	75 0b		 jne	 SHORT $LN3@sentry
$LN4@sentry:

; 100  :                 _Ok = true;

  0008a	48 8b 44 24 40	 mov	 rax, QWORD PTR this$[rsp]
  0008f	c6 40 08 01	 mov	 BYTE PTR [rax+8], 1

; 101  :                 return;

  00093	eb 33		 jmp	 SHORT $LN1@sentry
$LN3@sentry:

; 102  :             }
; 103  : 
; 104  :             _Tied->flush();

  00095	48 8b 4c 24 20	 mov	 rcx, QWORD PTR _Tied$[rsp]
  0009a	ff 15 00 00 00
	00		 call	 QWORD PTR __imp_?flush@?$basic_ostream@DU?$char_traits@D@std@@@std@@QEAAAEAV12@XZ

; 105  :             _Ok = _Ostr.good(); // store test only after flushing tie

  000a0	48 8b 44 24 48	 mov	 rax, QWORD PTR _Ostr$[rsp]
  000a5	48 8b 00	 mov	 rax, QWORD PTR [rax]
  000a8	48 63 40 04	 movsxd	 rax, DWORD PTR [rax+4]
  000ac	48 8b 4c 24 48	 mov	 rcx, QWORD PTR _Ostr$[rsp]
  000b1	48 03 c8	 add	 rcx, rax
  000b4	48 8b c1	 mov	 rax, rcx
  000b7	48 8b c8	 mov	 rcx, rax
  000ba	ff 15 00 00 00
	00		 call	 QWORD PTR __imp_?good@ios_base@std@@QEBA_NXZ
  000c0	48 8b 4c 24 40	 mov	 rcx, QWORD PTR this$[rsp]
  000c5	88 41 08	 mov	 BYTE PTR [rcx+8], al
$LN1@sentry:

; 106  :         }

  000c8	48 8b 44 24 40	 mov	 rax, QWORD PTR this$[rsp]
  000cd	48 83 c4 30	 add	 rsp, 48			; 00000030H
  000d1	5f		 pop	 rdi
  000d2	c3		 ret	 0
??0sentry@?$basic_ostream@DU?$char_traits@D@std@@@std@@QEAA@AEAV12@@Z ENDP ; std::basic_ostream<char,std::char_traits<char> >::sentry::sentry
_TEXT	ENDS
;	COMDAT text$x
text$x	SEGMENT
_Tied$ = 32
this$ = 64
_Ostr$ = 72
?dtor$0@?0???0sentry@?$basic_ostream@DU?$char_traits@D@std@@@std@@QEAA@AEAV12@@Z@4HA PROC ; `std::basic_ostream<char,std::char_traits<char> >::sentry::sentry'::`1'::dtor$0
  00000	48 89 4c 24 08	 mov	 QWORD PTR [rsp+8], rcx
  00005	48 89 54 24 10	 mov	 QWORD PTR [rsp+16], rdx
  0000a	55		 push	 rbp
  0000b	57		 push	 rdi
  0000c	48 83 ec 28	 sub	 rsp, 40			; 00000028H
  00010	48 8b ea	 mov	 rbp, rdx
  00013	48 8b 4d 40	 mov	 rcx, QWORD PTR this$[rbp]
  00017	e8 00 00 00 00	 call	 ??1_Sentry_base@?$basic_ostream@DU?$char_traits@D@std@@@std@@QEAA@XZ ; std::basic_ostream<char,std::char_traits<char> >::_Sentry_base::~_Sentry_base
  0001c	48 83 c4 28	 add	 rsp, 40			; 00000028H
  00020	5f		 pop	 rdi
  00021	5d		 pop	 rbp
  00022	c3		 ret	 0
?dtor$0@?0???0sentry@?$basic_ostream@DU?$char_traits@D@std@@@std@@QEAA@AEAV12@@Z@4HA ENDP ; `std::basic_ostream<char,std::char_traits<char> >::sentry::sentry'::`1'::dtor$0
text$x	ENDS
; Function compile flags: /Odtp /RTCsu
;	COMDAT text$x
text$x	SEGMENT
_Tied$ = 32
this$ = 64
_Ostr$ = 72
?dtor$0@?0???0sentry@?$basic_ostream@DU?$char_traits@D@std@@@std@@QEAA@AEAV12@@Z@4HA PROC ; `std::basic_ostream<char,std::char_traits<char> >::sentry::sentry'::`1'::dtor$0
  00000	48 89 4c 24 08	 mov	 QWORD PTR [rsp+8], rcx
  00005	48 89 54 24 10	 mov	 QWORD PTR [rsp+16], rdx
  0000a	55		 push	 rbp
  0000b	57		 push	 rdi
  0000c	48 83 ec 28	 sub	 rsp, 40			; 00000028H
  00010	48 8b ea	 mov	 rbp, rdx
  00013	48 8b 4d 40	 mov	 rcx, QWORD PTR this$[rbp]
  00017	e8 00 00 00 00	 call	 ??1_Sentry_base@?$basic_ostream@DU?$char_traits@D@std@@@std@@QEAA@XZ ; std::basic_ostream<char,std::char_traits<char> >::_Sentry_base::~_Sentry_base
  0001c	48 83 c4 28	 add	 rsp, 40			; 00000028H
  00020	5f		 pop	 rdi
  00021	5d		 pop	 rbp
  00022	c3		 ret	 0
?dtor$0@?0???0sentry@?$basic_ostream@DU?$char_traits@D@std@@@std@@QEAA@AEAV12@@Z@4HA ENDP ; `std::basic_ostream<char,std::char_traits<char> >::sentry::sentry'::`1'::dtor$0
text$x	ENDS
; Function compile flags: /Odtp /RTCsu
; File C:\Program Files (x86)\Microsoft Visual Studio\2019\Community\VC\Tools\MSVC\14.29.30037\include\ostream
;	COMDAT ??1_Sentry_base@?$basic_ostream@DU?$char_traits@D@std@@@std@@QEAA@XZ
_TEXT	SEGMENT
_Rdbuf$ = 32
tv72 = 40
this$ = 64
??1_Sentry_base@?$basic_ostream@DU?$char_traits@D@std@@@std@@QEAA@XZ PROC ; std::basic_ostream<char,std::char_traits<char> >::_Sentry_base::~_Sentry_base, COMDAT

; 78   :         __CLR_OR_THIS_CALL ~_Sentry_base() noexcept { // destroy after unlocking

$LN4:
  00000	48 89 4c 24 08	 mov	 QWORD PTR [rsp+8], rcx
  00005	57		 push	 rdi
  00006	48 83 ec 30	 sub	 rsp, 48			; 00000030H

; 79   :             const auto _Rdbuf = _Myostr.rdbuf();

  0000a	48 8b 44 24 40	 mov	 rax, QWORD PTR this$[rsp]
  0000f	48 8b 00	 mov	 rax, QWORD PTR [rax]
  00012	48 89 44 24 28	 mov	 QWORD PTR tv72[rsp], rax
  00017	48 8b 44 24 28	 mov	 rax, QWORD PTR tv72[rsp]
  0001c	48 8b 00	 mov	 rax, QWORD PTR [rax]
  0001f	48 63 40 04	 movsxd	 rax, DWORD PTR [rax+4]
  00023	48 8b 4c 24 28	 mov	 rcx, QWORD PTR tv72[rsp]
  00028	48 03 c8	 add	 rcx, rax
  0002b	48 8b c1	 mov	 rax, rcx
  0002e	48 8b c8	 mov	 rcx, rax
  00031	ff 15 00 00 00
	00		 call	 QWORD PTR __imp_?rdbuf@?$basic_ios@DU?$char_traits@D@std@@@std@@QEBAPEAV?$basic_streambuf@DU?$char_traits@D@std@@@2@XZ
  00037	48 89 44 24 20	 mov	 QWORD PTR _Rdbuf$[rsp], rax

; 80   :             if (_Rdbuf) {

  0003c	48 83 7c 24 20
	00		 cmp	 QWORD PTR _Rdbuf$[rsp], 0
  00042	74 11		 je	 SHORT $LN2@Sentry_bas

; 81   :                 _Rdbuf->_Unlock();

  00044	48 8b 44 24 20	 mov	 rax, QWORD PTR _Rdbuf$[rsp]
  00049	48 8b 00	 mov	 rax, QWORD PTR [rax]
  0004c	48 8b 4c 24 20	 mov	 rcx, QWORD PTR _Rdbuf$[rsp]
  00051	ff 50 10	 call	 QWORD PTR [rax+16]
  00054	90		 npad	 1
$LN2@Sentry_bas:

; 82   :             }
; 83   :         }

  00055	48 83 c4 30	 add	 rsp, 48			; 00000030H
  00059	5f		 pop	 rdi
  0005a	c3		 ret	 0
??1_Sentry_base@?$basic_ostream@DU?$char_traits@D@std@@@std@@QEAA@XZ ENDP ; std::basic_ostream<char,std::char_traits<char> >::_Sentry_base::~_Sentry_base
_TEXT	ENDS
; Function compile flags: /Odtp /RTCsu
; File C:\Program Files (x86)\Microsoft Visual Studio\2019\Community\VC\Tools\MSVC\14.29.30037\include\ostream
;	COMDAT ??0_Sentry_base@?$basic_ostream@DU?$char_traits@D@std@@@std@@QEAA@AEAV12@@Z
_TEXT	SEGMENT
_Rdbuf$ = 32
tv73 = 40
this$ = 64
_Ostr$ = 72
??0_Sentry_base@?$basic_ostream@DU?$char_traits@D@std@@@std@@QEAA@AEAV12@@Z PROC ; std::basic_ostream<char,std::char_traits<char> >::_Sentry_base::_Sentry_base, COMDAT

; 71   :         __CLR_OR_THIS_CALL _Sentry_base(basic_ostream& _Ostr) : _Myostr(_Ostr) { // lock the stream buffer, if there

$LN4:
  00000	48 89 54 24 10	 mov	 QWORD PTR [rsp+16], rdx
  00005	48 89 4c 24 08	 mov	 QWORD PTR [rsp+8], rcx
  0000a	57		 push	 rdi
  0000b	48 83 ec 30	 sub	 rsp, 48			; 00000030H
  0000f	48 8b 44 24 40	 mov	 rax, QWORD PTR this$[rsp]
  00014	48 8b 4c 24 48	 mov	 rcx, QWORD PTR _Ostr$[rsp]
  00019	48 89 08	 mov	 QWORD PTR [rax], rcx

; 72   :             const auto _Rdbuf = _Myostr.rdbuf();

  0001c	48 8b 44 24 40	 mov	 rax, QWORD PTR this$[rsp]
  00021	48 8b 00	 mov	 rax, QWORD PTR [rax]
  00024	48 89 44 24 28	 mov	 QWORD PTR tv73[rsp], rax
  00029	48 8b 44 24 28	 mov	 rax, QWORD PTR tv73[rsp]
  0002e	48 8b 00	 mov	 rax, QWORD PTR [rax]
  00031	48 63 40 04	 movsxd	 rax, DWORD PTR [rax+4]
  00035	48 8b 4c 24 28	 mov	 rcx, QWORD PTR tv73[rsp]
  0003a	48 03 c8	 add	 rcx, rax
  0003d	48 8b c1	 mov	 rax, rcx
  00040	48 8b c8	 mov	 rcx, rax
  00043	ff 15 00 00 00
	00		 call	 QWORD PTR __imp_?rdbuf@?$basic_ios@DU?$char_traits@D@std@@@std@@QEBAPEAV?$basic_streambuf@DU?$char_traits@D@std@@@2@XZ
  00049	48 89 44 24 20	 mov	 QWORD PTR _Rdbuf$[rsp], rax

; 73   :             if (_Rdbuf) {

  0004e	48 83 7c 24 20
	00		 cmp	 QWORD PTR _Rdbuf$[rsp], 0
  00054	74 10		 je	 SHORT $LN2@Sentry_bas

; 74   :                 _Rdbuf->_Lock();

  00056	48 8b 44 24 20	 mov	 rax, QWORD PTR _Rdbuf$[rsp]
  0005b	48 8b 00	 mov	 rax, QWORD PTR [rax]
  0005e	48 8b 4c 24 20	 mov	 rcx, QWORD PTR _Rdbuf$[rsp]
  00063	ff 50 08	 call	 QWORD PTR [rax+8]
$LN2@Sentry_bas:

; 75   :             }
; 76   :         }

  00066	48 8b 44 24 40	 mov	 rax, QWORD PTR this$[rsp]
  0006b	48 83 c4 30	 add	 rsp, 48			; 00000030H
  0006f	5f		 pop	 rdi
  00070	c3		 ret	 0
??0_Sentry_base@?$basic_ostream@DU?$char_traits@D@std@@@std@@QEAA@AEAV12@@Z ENDP ; std::basic_ostream<char,std::char_traits<char> >::_Sentry_base::_Sentry_base
_TEXT	ENDS
; Function compile flags: /Odtp /RTCsu
; File C:\Program Files (x86)\Microsoft Visual Studio\2019\Community\VC\Tools\MSVC\14.29.30037\include\xmemory
;	COMDAT ??$_Alloc_proxy@V?$allocator@U_Container_proxy@std@@@std@@@_Container_base12@std@@QEAAX$$QEAV?$allocator@U_Container_proxy@std@@@1@@Z
_TEXT	SEGMENT
_New_proxy$ = 32
$T1 = 40
this$ = 64
_Al$ = 72
??$_Alloc_proxy@V?$allocator@U_Container_proxy@std@@@std@@@_Container_base12@std@@QEAAX$$QEAV?$allocator@U_Container_proxy@std@@@1@@Z PROC ; std::_Container_base12::_Alloc_proxy<std::allocator<std::_Container_proxy> >, COMDAT

; 1073 :     _CONSTEXPR20_CONTAINER void _Alloc_proxy(_Alloc&& _Al) {

$LN3:
  00000	48 89 54 24 10	 mov	 QWORD PTR [rsp+16], rdx
  00005	48 89 4c 24 08	 mov	 QWORD PTR [rsp+8], rcx
  0000a	57		 push	 rdi
  0000b	48 83 ec 30	 sub	 rsp, 48			; 00000030H

; 1074 :         _Container_proxy* const _New_proxy = _Unfancy(_Al.allocate(1));

  0000f	ba 01 00 00 00	 mov	 edx, 1
  00014	48 8b 4c 24 48	 mov	 rcx, QWORD PTR _Al$[rsp]
  00019	e8 00 00 00 00	 call	 ?allocate@?$allocator@U_Container_proxy@std@@@std@@QEAAPEAU_Container_proxy@2@_K@Z ; std::allocator<std::_Container_proxy>::allocate
  0001e	48 8b c8	 mov	 rcx, rax
  00021	e8 00 00 00 00	 call	 ??$_Unfancy@U_Container_proxy@std@@@std@@YAPEAU_Container_proxy@0@PEAU10@@Z ; std::_Unfancy<std::_Container_proxy>
  00026	48 89 44 24 20	 mov	 QWORD PTR _New_proxy$[rsp], rax

; 1075 :         _Construct_in_place(*_New_proxy, this);

  0002b	48 8b 44 24 40	 mov	 rax, QWORD PTR this$[rsp]
  00030	48 89 44 24 28	 mov	 QWORD PTR $T1[rsp], rax
  00035	48 8d 54 24 28	 lea	 rdx, QWORD PTR $T1[rsp]
  0003a	48 8b 4c 24 20	 mov	 rcx, QWORD PTR _New_proxy$[rsp]
  0003f	e8 00 00 00 00	 call	 ??$_Construct_in_place@U_Container_proxy@std@@PEAU_Container_base12@2@@std@@YAXAEAU_Container_proxy@0@$$QEAPEAU_Container_base12@0@@Z ; std::_Construct_in_place<std::_Container_proxy,std::_Container_base12 *>

; 1076 :         _Myproxy            = _New_proxy;

  00044	48 8b 44 24 40	 mov	 rax, QWORD PTR this$[rsp]
  00049	48 8b 4c 24 20	 mov	 rcx, QWORD PTR _New_proxy$[rsp]
  0004e	48 89 08	 mov	 QWORD PTR [rax], rcx

; 1077 :         _New_proxy->_Mycont = this;

  00051	48 8b 44 24 20	 mov	 rax, QWORD PTR _New_proxy$[rsp]
  00056	48 8b 4c 24 40	 mov	 rcx, QWORD PTR this$[rsp]
  0005b	48 89 08	 mov	 QWORD PTR [rax], rcx

; 1078 :     }

  0005e	48 83 c4 30	 add	 rsp, 48			; 00000030H
  00062	5f		 pop	 rdi
  00063	c3		 ret	 0
??$_Alloc_proxy@V?$allocator@U_Container_proxy@std@@@std@@@_Container_base12@std@@QEAAX$$QEAV?$allocator@U_Container_proxy@std@@@1@@Z ENDP ; std::_Container_base12::_Alloc_proxy<std::allocator<std::_Container_proxy> >
_TEXT	ENDS
; Function compile flags: /Odtp /RTCsu
; File C:\Program Files (x86)\Microsoft Visual Studio\2019\Community\VC\Tools\MSVC\14.29.30037\include\xmemory
;	COMDAT ??$?0$$V@?$_Compressed_pair@V?$allocator@UPoint@@@std@@V?$_Deque_val@U?$_Deque_simple_types@UPoint@@@std@@@2@$00@std@@QEAA@U_Zero_then_variadic_args_t@1@@Z
_TEXT	SEGMENT
this$ = 48
__formal$ = 56
??$?0$$V@?$_Compressed_pair@V?$allocator@UPoint@@@std@@V?$_Deque_val@U?$_Deque_simple_types@UPoint@@@std@@@2@$00@std@@QEAA@U_Zero_then_variadic_args_t@1@@Z PROC ; std::_Compressed_pair<std::allocator<Point>,std::_Deque_val<std::_Deque_simple_types<Point> >,1>::_Compressed_pair<std::allocator<Point>,std::_Deque_val<std::_Deque_simple_types<Point> >,1><>, COMDAT

; 1370 :         : _Ty1(), _Myval2(_STD forward<_Other2>(_Val2)...) {}

$LN3:
  00000	88 54 24 10	 mov	 BYTE PTR [rsp+16], dl
  00004	48 89 4c 24 08	 mov	 QWORD PTR [rsp+8], rcx
  00009	57		 push	 rdi
  0000a	48 83 ec 20	 sub	 rsp, 32			; 00000020H
  0000e	48 8b 4c 24 30	 mov	 rcx, QWORD PTR this$[rsp]
  00013	e8 00 00 00 00	 call	 ??0?$allocator@UPoint@@@std@@QEAA@XZ ; std::allocator<Point>::allocator<Point>
  00018	48 8b 44 24 30	 mov	 rax, QWORD PTR this$[rsp]
  0001d	48 8b c8	 mov	 rcx, rax
  00020	e8 00 00 00 00	 call	 ??0?$_Deque_val@U?$_Deque_simple_types@UPoint@@@std@@@std@@QEAA@XZ ; std::_Deque_val<std::_Deque_simple_types<Point> >::_Deque_val<std::_Deque_simple_types<Point> >
  00025	48 8b 44 24 30	 mov	 rax, QWORD PTR this$[rsp]
  0002a	48 83 c4 20	 add	 rsp, 32			; 00000020H
  0002e	5f		 pop	 rdi
  0002f	c3		 ret	 0
??$?0$$V@?$_Compressed_pair@V?$allocator@UPoint@@@std@@V?$_Deque_val@U?$_Deque_simple_types@UPoint@@@std@@@2@$00@std@@QEAA@U_Zero_then_variadic_args_t@1@@Z ENDP ; std::_Compressed_pair<std::allocator<Point>,std::_Deque_val<std::_Deque_simple_types<Point> >,1>::_Compressed_pair<std::allocator<Point>,std::_Deque_val<std::_Deque_simple_types<Point> >,1><>
_TEXT	ENDS
; Function compile flags: /Odtp /RTCsu
; File C:\Program Files (x86)\Microsoft Visual Studio\2019\Community\VC\Tools\MSVC\14.29.30037\include\xmemory
;	COMDAT ??$_Delete_plain_internal@V?$allocator@U_Container_proxy@std@@@std@@@std@@YAXAEAV?$allocator@U_Container_proxy@std@@@0@QEAU_Container_proxy@0@@Z
_TEXT	SEGMENT
_Al$ = 48
_Ptr$ = 56
??$_Delete_plain_internal@V?$allocator@U_Container_proxy@std@@@std@@@std@@YAXAEAV?$allocator@U_Container_proxy@std@@@0@QEAU_Container_proxy@0@@Z PROC ; std::_Delete_plain_internal<std::allocator<std::_Container_proxy> >, COMDAT

; 998  : _CONSTEXPR20_DYNALLOC void _Delete_plain_internal(_Alloc& _Al, typename _Alloc::value_type* const _Ptr) noexcept {

$LN3:
  00000	48 89 54 24 10	 mov	 QWORD PTR [rsp+16], rdx
  00005	48 89 4c 24 08	 mov	 QWORD PTR [rsp+8], rcx
  0000a	57		 push	 rdi
  0000b	48 83 ec 20	 sub	 rsp, 32			; 00000020H

; 999  :     // destroy *_Ptr in place, then deallocate _Ptr using _Al; used for internal container types the user didn't name
; 1000 :     using _Ty = typename _Alloc::value_type;
; 1001 :     _Ptr->~_Ty();
; 1002 :     _Deallocate_plain(_Al, _Ptr);

  0000f	48 8b 54 24 38	 mov	 rdx, QWORD PTR _Ptr$[rsp]
  00014	48 8b 4c 24 30	 mov	 rcx, QWORD PTR _Al$[rsp]
  00019	e8 00 00 00 00	 call	 ??$_Deallocate_plain@V?$allocator@U_Container_proxy@std@@@std@@@std@@YAXAEAV?$allocator@U_Container_proxy@std@@@0@QEAU_Container_proxy@0@@Z ; std::_Deallocate_plain<std::allocator<std::_Container_proxy> >

; 1003 : }

  0001e	48 83 c4 20	 add	 rsp, 32			; 00000020H
  00022	5f		 pop	 rdi
  00023	c3		 ret	 0
??$_Delete_plain_internal@V?$allocator@U_Container_proxy@std@@@std@@@std@@YAXAEAV?$allocator@U_Container_proxy@std@@@0@QEAU_Container_proxy@0@@Z ENDP ; std::_Delete_plain_internal<std::allocator<std::_Container_proxy> >
_TEXT	ENDS
; Function compile flags: /Odtp /RTCsu
; File C:\Program Files (x86)\Microsoft Visual Studio\2019\Community\VC\Tools\MSVC\14.29.30037\include\utility
;	COMDAT ??$exchange@PEAU_Container_proxy@std@@$$T@std@@YAPEAU_Container_proxy@0@AEAPEAU10@$$QEA$$T@Z
_TEXT	SEGMENT
_Old_val$ = 0
_Val$ = 32
_New_val$ = 40
??$exchange@PEAU_Container_proxy@std@@$$T@std@@YAPEAU_Container_proxy@0@AEAPEAU10@$$QEA$$T@Z PROC ; std::exchange<std::_Container_proxy *,std::nullptr_t>, COMDAT

; 614  :     conjunction_v<is_nothrow_move_constructible<_Ty>, is_nothrow_assignable<_Ty&, _Other>>) /* strengthened */ {

$LN3:
  00000	48 89 54 24 10	 mov	 QWORD PTR [rsp+16], rdx
  00005	48 89 4c 24 08	 mov	 QWORD PTR [rsp+8], rcx
  0000a	57		 push	 rdi
  0000b	48 83 ec 10	 sub	 rsp, 16

; 615  :     // assign _New_val to _Val, return previous _Val
; 616  :     _Ty _Old_val = static_cast<_Ty&&>(_Val);

  0000f	48 8b 44 24 20	 mov	 rax, QWORD PTR _Val$[rsp]
  00014	48 8b 00	 mov	 rax, QWORD PTR [rax]
  00017	48 89 04 24	 mov	 QWORD PTR _Old_val$[rsp], rax

; 617  :     _Val         = static_cast<_Other&&>(_New_val);

  0001b	48 8b 44 24 20	 mov	 rax, QWORD PTR _Val$[rsp]
  00020	48 8b 4c 24 28	 mov	 rcx, QWORD PTR _New_val$[rsp]
  00025	48 8b 09	 mov	 rcx, QWORD PTR [rcx]
  00028	48 89 08	 mov	 QWORD PTR [rax], rcx

; 618  :     return _Old_val;

  0002b	48 8b 04 24	 mov	 rax, QWORD PTR _Old_val$[rsp]

; 619  : }

  0002f	48 83 c4 10	 add	 rsp, 16
  00033	5f		 pop	 rdi
  00034	c3		 ret	 0
??$exchange@PEAU_Container_proxy@std@@$$T@std@@YAPEAU_Container_proxy@0@AEAPEAU10@$$QEA$$T@Z ENDP ; std::exchange<std::_Container_proxy *,std::nullptr_t>
_TEXT	ENDS
; Function compile flags: /Odtp /RTCsu
; File C:\Program Files (x86)\Microsoft Visual Studio\2019\Community\VC\Tools\MSVC\14.29.30037\include\xmemory
;	COMDAT ??$?0UPoint@@@?$allocator@U_Container_proxy@std@@@std@@QEAA@AEBV?$allocator@UPoint@@@1@@Z
_TEXT	SEGMENT
this$ = 16
__formal$ = 24
??$?0UPoint@@@?$allocator@U_Container_proxy@std@@@std@@QEAA@AEBV?$allocator@UPoint@@@1@@Z PROC ; std::allocator<std::_Container_proxy>::allocator<std::_Container_proxy><Point>, COMDAT

; 829  :     constexpr allocator(const allocator<_Other>&) noexcept {}

$LN3:
  00000	48 89 54 24 10	 mov	 QWORD PTR [rsp+16], rdx
  00005	48 89 4c 24 08	 mov	 QWORD PTR [rsp+8], rcx
  0000a	57		 push	 rdi
  0000b	48 8b 44 24 10	 mov	 rax, QWORD PTR this$[rsp]
  00010	5f		 pop	 rdi
  00011	c3		 ret	 0
??$?0UPoint@@@?$allocator@U_Container_proxy@std@@@std@@QEAA@AEBV?$allocator@UPoint@@@1@@Z ENDP ; std::allocator<std::_Container_proxy>::allocator<std::_Container_proxy><Point>
_TEXT	ENDS
; Function compile flags: /Odtp /RTCsu
; File C:\Program Files (x86)\Microsoft Visual Studio\2019\Community\VC\Tools\MSVC\14.29.30037\include\xmemory
;	COMDAT ?allocate@?$allocator@U_Container_proxy@std@@@std@@QEAAPEAU_Container_proxy@2@_K@Z
_TEXT	SEGMENT
this$ = 48
_Count$ = 56
?allocate@?$allocator@U_Container_proxy@std@@@std@@QEAAPEAU_Container_proxy@2@_K@Z PROC ; std::allocator<std::_Container_proxy>::allocate, COMDAT

; 838  :     _NODISCARD _CONSTEXPR20_DYNALLOC __declspec(allocator) _Ty* allocate(_CRT_GUARDOVERFLOW const size_t _Count) {

$LN3:
  00000	48 89 54 24 10	 mov	 QWORD PTR [rsp+16], rdx
  00005	48 89 4c 24 08	 mov	 QWORD PTR [rsp+8], rcx
  0000a	57		 push	 rdi
  0000b	48 83 ec 20	 sub	 rsp, 32			; 00000020H

; 839  :         return static_cast<_Ty*>(_Allocate<_New_alignof<_Ty>>(_Get_size_of_n<sizeof(_Ty)>(_Count)));

  0000f	48 8b 4c 24 38	 mov	 rcx, QWORD PTR _Count$[rsp]
  00014	e8 00 00 00 00	 call	 ??$_Get_size_of_n@$0BA@@std@@YA_K_K@Z ; std::_Get_size_of_n<16>
  00019	48 8b c8	 mov	 rcx, rax
  0001c	e8 00 00 00 00	 call	 ??$_Allocate@$0BA@U_Default_allocate_traits@std@@$0A@@std@@YAPEAX_K@Z ; std::_Allocate<16,std::_Default_allocate_traits,0>

; 840  :     }

  00021	48 83 c4 20	 add	 rsp, 32			; 00000020H
  00025	5f		 pop	 rdi
  00026	c3		 ret	 0
?allocate@?$allocator@U_Container_proxy@std@@@std@@QEAAPEAU_Container_proxy@2@_K@Z ENDP ; std::allocator<std::_Container_proxy>::allocate
_TEXT	ENDS
; Function compile flags: /Odtp /RTCsu
; File C:\Program Files (x86)\Microsoft Visual Studio\2019\Community\VC\Tools\MSVC\14.29.30037\include\ostream
;	COMDAT ??$endl@DU?$char_traits@D@std@@@std@@YAAEAV?$basic_ostream@DU?$char_traits@D@std@@@0@AEAV10@@Z
_TEXT	SEGMENT
_Ostr$ = 48
??$endl@DU?$char_traits@D@std@@@std@@YAAEAV?$basic_ostream@DU?$char_traits@D@std@@@0@AEAV10@@Z PROC ; std::endl<char,std::char_traits<char> >, COMDAT

; 978  :     basic_ostream<_Elem, _Traits>& _Ostr) { // insert newline and flush stream

$LN3:
  00000	48 89 4c 24 08	 mov	 QWORD PTR [rsp+8], rcx
  00005	57		 push	 rdi
  00006	48 83 ec 20	 sub	 rsp, 32			; 00000020H

; 979  :     _Ostr.put(_Ostr.widen('\n'));

  0000a	48 8b 44 24 30	 mov	 rax, QWORD PTR _Ostr$[rsp]
  0000f	48 8b 00	 mov	 rax, QWORD PTR [rax]
  00012	48 63 40 04	 movsxd	 rax, DWORD PTR [rax+4]
  00016	48 8b 4c 24 30	 mov	 rcx, QWORD PTR _Ostr$[rsp]
  0001b	48 03 c8	 add	 rcx, rax
  0001e	48 8b c1	 mov	 rax, rcx
  00021	b2 0a		 mov	 dl, 10
  00023	48 8b c8	 mov	 rcx, rax
  00026	ff 15 00 00 00
	00		 call	 QWORD PTR __imp_?widen@?$basic_ios@DU?$char_traits@D@std@@@std@@QEBADD@Z
  0002c	0f b6 d0	 movzx	 edx, al
  0002f	48 8b 4c 24 30	 mov	 rcx, QWORD PTR _Ostr$[rsp]
  00034	ff 15 00 00 00
	00		 call	 QWORD PTR __imp_?put@?$basic_ostream@DU?$char_traits@D@std@@@std@@QEAAAEAV12@D@Z

; 980  :     _Ostr.flush();

  0003a	48 8b 4c 24 30	 mov	 rcx, QWORD PTR _Ostr$[rsp]
  0003f	ff 15 00 00 00
	00		 call	 QWORD PTR __imp_?flush@?$basic_ostream@DU?$char_traits@D@std@@@std@@QEAAAEAV12@XZ

; 981  :     return _Ostr;

  00045	48 8b 44 24 30	 mov	 rax, QWORD PTR _Ostr$[rsp]

; 982  : }

  0004a	48 83 c4 20	 add	 rsp, 32			; 00000020H
  0004e	5f		 pop	 rdi
  0004f	c3		 ret	 0
??$endl@DU?$char_traits@D@std@@@std@@YAAEAV?$basic_ostream@DU?$char_traits@D@std@@@0@AEAV10@@Z ENDP ; std::endl<char,std::char_traits<char> >
_TEXT	ENDS
; Function compile flags: /Odtp /RTCsu
; File C:\Program Files (x86)\Microsoft Visual Studio\2019\Community\VC\Tools\MSVC\14.29.30037\include\ostream
;	COMDAT ??$?6U?$char_traits@D@std@@@std@@YAAEAV?$basic_ostream@DU?$char_traits@D@std@@@0@AEAV10@PEBD@Z
_TEXT	SEGMENT
_State$ = 32
_Count$ = 40
_Pad$ = 48
_Ok$ = 72
$T4 = 100
$T5 = 104
$T6 = 108
$T7 = 112
$T8 = 120
tv137 = 128
tv139 = 136
tv294 = 140
tv295 = 144
tv296 = 152
tv297 = 160
tv298 = 168
tv299 = 176
tv300 = 184
tv301 = 192
_Ostr$ = 224
_Val$ = 232
??$?6U?$char_traits@D@std@@@std@@YAAEAV?$basic_ostream@DU?$char_traits@D@std@@@0@AEAV10@PEBD@Z PROC ; std::operator<<<std::char_traits<char> >, COMDAT

; 734  :     const char* _Val) { // insert NTBS into char stream

$LN25:
  00000	48 89 54 24 10	 mov	 QWORD PTR [rsp+16], rdx
  00005	48 89 4c 24 08	 mov	 QWORD PTR [rsp+8], rcx
  0000a	57		 push	 rdi
  0000b	48 81 ec d0 00
	00 00		 sub	 rsp, 208		; 000000d0H
  00012	48 8d 7c 24 20	 lea	 rdi, QWORD PTR [rsp+32]
  00017	b9 2c 00 00 00	 mov	 ecx, 44			; 0000002cH
  0001c	b8 cc cc cc cc	 mov	 eax, -858993460		; ccccccccH
  00021	f3 ab		 rep stosd
  00023	48 8b 8c 24 e0
	00 00 00	 mov	 rcx, QWORD PTR [rsp+224]

; 735  :     using _Elem = char;
; 736  :     using _Myos = basic_ostream<_Elem, _Traits>;
; 737  : 
; 738  :     ios_base::iostate _State = ios_base::goodbit;

  0002b	c7 44 24 20 00
	00 00 00	 mov	 DWORD PTR _State$[rsp], 0

; 739  :     streamsize _Count        = static_cast<streamsize>(_Traits::length(_Val));

  00033	48 8b 8c 24 e8
	00 00 00	 mov	 rcx, QWORD PTR _Val$[rsp]
  0003b	e8 00 00 00 00	 call	 ?length@?$_Narrow_char_traits@DH@std@@SA_KQEBD@Z ; std::_Narrow_char_traits<char,int>::length
  00040	48 89 44 24 28	 mov	 QWORD PTR _Count$[rsp], rax

; 740  :     streamsize _Pad          = _Ostr.width() <= 0 || _Ostr.width() <= _Count ? 0 : _Ostr.width() - _Count;

  00045	48 8b 84 24 e0
	00 00 00	 mov	 rax, QWORD PTR _Ostr$[rsp]
  0004d	48 8b 00	 mov	 rax, QWORD PTR [rax]
  00050	48 63 40 04	 movsxd	 rax, DWORD PTR [rax+4]
  00054	48 8b 8c 24 e0
	00 00 00	 mov	 rcx, QWORD PTR _Ostr$[rsp]
  0005c	48 03 c8	 add	 rcx, rax
  0005f	48 8b c1	 mov	 rax, rcx
  00062	48 8b c8	 mov	 rcx, rax
  00065	ff 15 00 00 00
	00		 call	 QWORD PTR __imp_?width@ios_base@std@@QEBA_JXZ
  0006b	48 85 c0	 test	 rax, rax
  0006e	7e 62		 jle	 SHORT $LN17@operator
  00070	48 8b 84 24 e0
	00 00 00	 mov	 rax, QWORD PTR _Ostr$[rsp]
  00078	48 8b 00	 mov	 rax, QWORD PTR [rax]
  0007b	48 63 40 04	 movsxd	 rax, DWORD PTR [rax+4]
  0007f	48 8b 8c 24 e0
	00 00 00	 mov	 rcx, QWORD PTR _Ostr$[rsp]
  00087	48 03 c8	 add	 rcx, rax
  0008a	48 8b c1	 mov	 rax, rcx
  0008d	48 8b c8	 mov	 rcx, rax
  00090	ff 15 00 00 00
	00		 call	 QWORD PTR __imp_?width@ios_base@std@@QEBA_JXZ
  00096	48 3b 44 24 28	 cmp	 rax, QWORD PTR _Count$[rsp]
  0009b	7e 35		 jle	 SHORT $LN17@operator
  0009d	48 8b 84 24 e0
	00 00 00	 mov	 rax, QWORD PTR _Ostr$[rsp]
  000a5	48 8b 00	 mov	 rax, QWORD PTR [rax]
  000a8	48 63 40 04	 movsxd	 rax, DWORD PTR [rax+4]
  000ac	48 8b 8c 24 e0
	00 00 00	 mov	 rcx, QWORD PTR _Ostr$[rsp]
  000b4	48 03 c8	 add	 rcx, rax
  000b7	48 8b c1	 mov	 rax, rcx
  000ba	48 8b c8	 mov	 rcx, rax
  000bd	ff 15 00 00 00
	00		 call	 QWORD PTR __imp_?width@ios_base@std@@QEBA_JXZ
  000c3	48 2b 44 24 28	 sub	 rax, QWORD PTR _Count$[rsp]
  000c8	48 89 84 24 80
	00 00 00	 mov	 QWORD PTR tv137[rsp], rax
  000d0	eb 0c		 jmp	 SHORT $LN18@operator
$LN17@operator:
  000d2	48 c7 84 24 80
	00 00 00 00 00
	00 00		 mov	 QWORD PTR tv137[rsp], 0
$LN18@operator:
  000de	48 8b 84 24 80
	00 00 00	 mov	 rax, QWORD PTR tv137[rsp]
  000e6	48 89 44 24 30	 mov	 QWORD PTR _Pad$[rsp], rax

; 741  :     const typename _Myos::sentry _Ok(_Ostr);

  000eb	48 8b 94 24 e0
	00 00 00	 mov	 rdx, QWORD PTR _Ostr$[rsp]
  000f3	48 8d 4c 24 48	 lea	 rcx, QWORD PTR _Ok$[rsp]
  000f8	e8 00 00 00 00	 call	 ??0sentry@?$basic_ostream@DU?$char_traits@D@std@@@std@@QEAA@AEAV12@@Z ; std::basic_ostream<char,std::char_traits<char> >::sentry::sentry
  000fd	90		 npad	 1

; 742  : 
; 743  :     if (!_Ok) {

  000fe	48 8d 4c 24 48	 lea	 rcx, QWORD PTR _Ok$[rsp]
  00103	e8 00 00 00 00	 call	 ??Bsentry@?$basic_ostream@DU?$char_traits@D@std@@@std@@QEBA_NXZ ; std::basic_ostream<char,std::char_traits<char> >::sentry::operator bool
  00108	0f b6 c0	 movzx	 eax, al
  0010b	85 c0		 test	 eax, eax
  0010d	75 10		 jne	 SHORT $LN8@operator

; 744  :         _State |= ios_base::badbit;

  0010f	8b 44 24 20	 mov	 eax, DWORD PTR _State$[rsp]
  00113	83 c8 04	 or	 eax, 4
  00116	89 44 24 20	 mov	 DWORD PTR _State$[rsp], eax

; 745  :     } else { // state okay, insert

  0011a	e9 88 02 00 00	 jmp	 $LN9@operator
$LN8@operator:

; 746  :         _TRY_IO_BEGIN
; 747  :         if ((_Ostr.flags() & ios_base::adjustfield) != ios_base::left) {

  0011f	48 8b 84 24 e0
	00 00 00	 mov	 rax, QWORD PTR _Ostr$[rsp]
  00127	48 8b 00	 mov	 rax, QWORD PTR [rax]
  0012a	48 63 40 04	 movsxd	 rax, DWORD PTR [rax+4]
  0012e	48 8b 8c 24 e0
	00 00 00	 mov	 rcx, QWORD PTR _Ostr$[rsp]
  00136	48 03 c8	 add	 rcx, rax
  00139	48 8b c1	 mov	 rax, rcx
  0013c	48 8b c8	 mov	 rcx, rax
  0013f	ff 15 00 00 00
	00		 call	 QWORD PTR __imp_?flags@ios_base@std@@QEBAHXZ
  00145	89 84 24 88 00
	00 00		 mov	 DWORD PTR tv139[rsp], eax
  0014c	8b 84 24 88 00
	00 00		 mov	 eax, DWORD PTR tv139[rsp]
  00153	25 c0 01 00 00	 and	 eax, 448		; 000001c0H
  00158	83 f8 40	 cmp	 eax, 64			; 00000040H
  0015b	0f 84 cf 00 00
	00		 je	 $LN11@operator

; 748  :             for (; 0 < _Pad; --_Pad) { // pad on left

  00161	eb 0d		 jmp	 SHORT $LN4@operator
$LN2@operator:
  00163	48 8b 44 24 30	 mov	 rax, QWORD PTR _Pad$[rsp]
  00168	48 ff c8	 dec	 rax
  0016b	48 89 44 24 30	 mov	 QWORD PTR _Pad$[rsp], rax
$LN4@operator:
  00170	48 83 7c 24 30
	00		 cmp	 QWORD PTR _Pad$[rsp], 0
  00176	0f 8e b4 00 00
	00		 jle	 $LN11@operator

; 749  :                 if (_Traits::eq_int_type(_Traits::eof(), _Ostr.rdbuf()->sputc(_Ostr.fill()))) {

  0017c	48 8b 84 24 e0
	00 00 00	 mov	 rax, QWORD PTR _Ostr$[rsp]
  00184	48 8b 00	 mov	 rax, QWORD PTR [rax]
  00187	48 63 40 04	 movsxd	 rax, DWORD PTR [rax+4]
  0018b	48 8b 8c 24 e0
	00 00 00	 mov	 rcx, QWORD PTR _Ostr$[rsp]
  00193	48 03 c8	 add	 rcx, rax
  00196	48 8b c1	 mov	 rax, rcx
  00199	48 8b c8	 mov	 rcx, rax
  0019c	ff 15 00 00 00
	00		 call	 QWORD PTR __imp_?fill@?$basic_ios@DU?$char_traits@D@std@@@std@@QEBADXZ
  001a2	88 84 24 8c 00
	00 00		 mov	 BYTE PTR tv294[rsp], al
  001a9	48 8b 84 24 e0
	00 00 00	 mov	 rax, QWORD PTR _Ostr$[rsp]
  001b1	48 8b 00	 mov	 rax, QWORD PTR [rax]
  001b4	48 63 40 04	 movsxd	 rax, DWORD PTR [rax+4]
  001b8	48 8b 8c 24 e0
	00 00 00	 mov	 rcx, QWORD PTR _Ostr$[rsp]
  001c0	48 03 c8	 add	 rcx, rax
  001c3	48 8b c1	 mov	 rax, rcx
  001c6	48 8b c8	 mov	 rcx, rax
  001c9	ff 15 00 00 00
	00		 call	 QWORD PTR __imp_?rdbuf@?$basic_ios@DU?$char_traits@D@std@@@std@@QEBAPEAV?$basic_streambuf@DU?$char_traits@D@std@@@2@XZ
  001cf	48 89 84 24 90
	00 00 00	 mov	 QWORD PTR tv295[rsp], rax
  001d7	0f b6 94 24 8c
	00 00 00	 movzx	 edx, BYTE PTR tv294[rsp]
  001df	48 8b 8c 24 90
	00 00 00	 mov	 rcx, QWORD PTR tv295[rsp]
  001e7	ff 15 00 00 00
	00		 call	 QWORD PTR __imp_?sputc@?$basic_streambuf@DU?$char_traits@D@std@@@std@@QEAAHD@Z
  001ed	89 84 24 98 00
	00 00		 mov	 DWORD PTR tv296[rsp], eax
  001f4	8b 84 24 98 00
	00 00		 mov	 eax, DWORD PTR tv296[rsp]
  001fb	89 44 24 64	 mov	 DWORD PTR $T4[rsp], eax
  001ff	e8 00 00 00 00	 call	 ?eof@?$_Narrow_char_traits@DH@std@@SAHXZ ; std::_Narrow_char_traits<char,int>::eof
  00204	89 44 24 68	 mov	 DWORD PTR $T5[rsp], eax
  00208	48 8d 54 24 64	 lea	 rdx, QWORD PTR $T4[rsp]
  0020d	48 8d 4c 24 68	 lea	 rcx, QWORD PTR $T5[rsp]
  00212	e8 00 00 00 00	 call	 ?eq_int_type@?$_Narrow_char_traits@DH@std@@SA_NAEBH0@Z ; std::_Narrow_char_traits<char,int>::eq_int_type
  00217	0f b6 c0	 movzx	 eax, al
  0021a	85 c0		 test	 eax, eax
  0021c	74 0d		 je	 SHORT $LN12@operator

; 750  :                     _State |= ios_base::badbit; // insertion failed, quit

  0021e	8b 44 24 20	 mov	 eax, DWORD PTR _State$[rsp]
  00222	83 c8 04	 or	 eax, 4
  00225	89 44 24 20	 mov	 DWORD PTR _State$[rsp], eax

; 751  :                     break;

  00229	eb 05		 jmp	 SHORT $LN11@operator
$LN12@operator:

; 752  :                 }
; 753  :             }

  0022b	e9 33 ff ff ff	 jmp	 $LN2@operator
$LN11@operator:

; 754  :         }
; 755  : 
; 756  :         if (_State == ios_base::goodbit && _Ostr.rdbuf()->sputn(_Val, _Count) != _Count) {

  00230	83 7c 24 20 00	 cmp	 DWORD PTR _State$[rsp], 0
  00235	75 6b		 jne	 SHORT $LN13@operator
  00237	48 8b 84 24 e0
	00 00 00	 mov	 rax, QWORD PTR _Ostr$[rsp]
  0023f	48 8b 00	 mov	 rax, QWORD PTR [rax]
  00242	48 63 40 04	 movsxd	 rax, DWORD PTR [rax+4]
  00246	48 8b 8c 24 e0
	00 00 00	 mov	 rcx, QWORD PTR _Ostr$[rsp]
  0024e	48 03 c8	 add	 rcx, rax
  00251	48 8b c1	 mov	 rax, rcx
  00254	48 8b c8	 mov	 rcx, rax
  00257	ff 15 00 00 00
	00		 call	 QWORD PTR __imp_?rdbuf@?$basic_ios@DU?$char_traits@D@std@@@std@@QEBAPEAV?$basic_streambuf@DU?$char_traits@D@std@@@2@XZ
  0025d	48 89 84 24 a0
	00 00 00	 mov	 QWORD PTR tv297[rsp], rax
  00265	4c 8b 44 24 28	 mov	 r8, QWORD PTR _Count$[rsp]
  0026a	48 8b 94 24 e8
	00 00 00	 mov	 rdx, QWORD PTR _Val$[rsp]
  00272	48 8b 8c 24 a0
	00 00 00	 mov	 rcx, QWORD PTR tv297[rsp]
  0027a	ff 15 00 00 00
	00		 call	 QWORD PTR __imp_?sputn@?$basic_streambuf@DU?$char_traits@D@std@@@std@@QEAA_JPEBD_J@Z
  00280	48 89 84 24 a8
	00 00 00	 mov	 QWORD PTR tv298[rsp], rax
  00288	48 8b 44 24 28	 mov	 rax, QWORD PTR _Count$[rsp]
  0028d	48 39 84 24 a8
	00 00 00	 cmp	 QWORD PTR tv298[rsp], rax
  00295	74 0b		 je	 SHORT $LN13@operator

; 757  :             _State |= ios_base::badbit;

  00297	8b 44 24 20	 mov	 eax, DWORD PTR _State$[rsp]
  0029b	83 c8 04	 or	 eax, 4
  0029e	89 44 24 20	 mov	 DWORD PTR _State$[rsp], eax
$LN13@operator:

; 758  :         }
; 759  : 
; 760  :         if (_State == ios_base::goodbit) {

  002a2	83 7c 24 20 00	 cmp	 DWORD PTR _State$[rsp], 0
  002a7	0f 85 cf 00 00
	00		 jne	 $LN14@operator

; 761  :             for (; 0 < _Pad; --_Pad) { // pad on right

  002ad	eb 0d		 jmp	 SHORT $LN7@operator
$LN5@operator:
  002af	48 8b 44 24 30	 mov	 rax, QWORD PTR _Pad$[rsp]
  002b4	48 ff c8	 dec	 rax
  002b7	48 89 44 24 30	 mov	 QWORD PTR _Pad$[rsp], rax
$LN7@operator:
  002bc	48 83 7c 24 30
	00		 cmp	 QWORD PTR _Pad$[rsp], 0
  002c2	0f 8e b4 00 00
	00		 jle	 $LN14@operator

; 762  :                 if (_Traits::eq_int_type(_Traits::eof(), _Ostr.rdbuf()->sputc(_Ostr.fill()))) {

  002c8	48 8b 84 24 e0
	00 00 00	 mov	 rax, QWORD PTR _Ostr$[rsp]
  002d0	48 8b 00	 mov	 rax, QWORD PTR [rax]
  002d3	48 63 40 04	 movsxd	 rax, DWORD PTR [rax+4]
  002d7	48 8b 8c 24 e0
	00 00 00	 mov	 rcx, QWORD PTR _Ostr$[rsp]
  002df	48 03 c8	 add	 rcx, rax
  002e2	48 8b c1	 mov	 rax, rcx
  002e5	48 8b c8	 mov	 rcx, rax
  002e8	ff 15 00 00 00
	00		 call	 QWORD PTR __imp_?fill@?$basic_ios@DU?$char_traits@D@std@@@std@@QEBADXZ
  002ee	88 84 24 b0 00
	00 00		 mov	 BYTE PTR tv299[rsp], al
  002f5	48 8b 84 24 e0
	00 00 00	 mov	 rax, QWORD PTR _Ostr$[rsp]
  002fd	48 8b 00	 mov	 rax, QWORD PTR [rax]
  00300	48 63 40 04	 movsxd	 rax, DWORD PTR [rax+4]
  00304	48 8b 8c 24 e0
	00 00 00	 mov	 rcx, QWORD PTR _Ostr$[rsp]
  0030c	48 03 c8	 add	 rcx, rax
  0030f	48 8b c1	 mov	 rax, rcx
  00312	48 8b c8	 mov	 rcx, rax
  00315	ff 15 00 00 00
	00		 call	 QWORD PTR __imp_?rdbuf@?$basic_ios@DU?$char_traits@D@std@@@std@@QEBAPEAV?$basic_streambuf@DU?$char_traits@D@std@@@2@XZ
  0031b	48 89 84 24 b8
	00 00 00	 mov	 QWORD PTR tv300[rsp], rax
  00323	0f b6 94 24 b0
	00 00 00	 movzx	 edx, BYTE PTR tv299[rsp]
  0032b	48 8b 8c 24 b8
	00 00 00	 mov	 rcx, QWORD PTR tv300[rsp]
  00333	ff 15 00 00 00
	00		 call	 QWORD PTR __imp_?sputc@?$basic_streambuf@DU?$char_traits@D@std@@@std@@QEAAHD@Z
  00339	89 84 24 c0 00
	00 00		 mov	 DWORD PTR tv301[rsp], eax
  00340	8b 84 24 c0 00
	00 00		 mov	 eax, DWORD PTR tv301[rsp]
  00347	89 44 24 6c	 mov	 DWORD PTR $T6[rsp], eax
  0034b	e8 00 00 00 00	 call	 ?eof@?$_Narrow_char_traits@DH@std@@SAHXZ ; std::_Narrow_char_traits<char,int>::eof
  00350	89 44 24 70	 mov	 DWORD PTR $T7[rsp], eax
  00354	48 8d 54 24 6c	 lea	 rdx, QWORD PTR $T6[rsp]
  00359	48 8d 4c 24 70	 lea	 rcx, QWORD PTR $T7[rsp]
  0035e	e8 00 00 00 00	 call	 ?eq_int_type@?$_Narrow_char_traits@DH@std@@SA_NAEBH0@Z ; std::_Narrow_char_traits<char,int>::eq_int_type
  00363	0f b6 c0	 movzx	 eax, al
  00366	85 c0		 test	 eax, eax
  00368	74 0d		 je	 SHORT $LN15@operator

; 763  :                     _State |= ios_base::badbit; // insertion failed, quit

  0036a	8b 44 24 20	 mov	 eax, DWORD PTR _State$[rsp]
  0036e	83 c8 04	 or	 eax, 4
  00371	89 44 24 20	 mov	 DWORD PTR _State$[rsp], eax

; 764  :                     break;

  00375	eb 05		 jmp	 SHORT $LN14@operator
$LN15@operator:

; 765  :                 }
; 766  :             }

  00377	e9 33 ff ff ff	 jmp	 $LN5@operator
$LN14@operator:

; 767  :         }
; 768  : 
; 769  :         _Ostr.width(0);

  0037c	48 8b 84 24 e0
	00 00 00	 mov	 rax, QWORD PTR _Ostr$[rsp]
  00384	48 8b 00	 mov	 rax, QWORD PTR [rax]
  00387	48 63 40 04	 movsxd	 rax, DWORD PTR [rax+4]
  0038b	48 8b 8c 24 e0
	00 00 00	 mov	 rcx, QWORD PTR _Ostr$[rsp]
  00393	48 03 c8	 add	 rcx, rax
  00396	48 8b c1	 mov	 rax, rcx
  00399	33 d2		 xor	 edx, edx
  0039b	48 8b c8	 mov	 rcx, rax
  0039e	ff 15 00 00 00
	00		 call	 QWORD PTR __imp_?width@ios_base@std@@QEAA_J_J@Z
  003a4	90		 npad	 1
  003a5	eb 00		 jmp	 SHORT $LN9@operator
$LN23@operator:
$LN9@operator:

; 770  :         _CATCH_IO_(ios_base, _Ostr)
; 771  :     }
; 772  : 
; 773  :     _Ostr.setstate(_State);

  003a7	48 8b 84 24 e0
	00 00 00	 mov	 rax, QWORD PTR _Ostr$[rsp]
  003af	48 8b 00	 mov	 rax, QWORD PTR [rax]
  003b2	48 63 40 04	 movsxd	 rax, DWORD PTR [rax+4]
  003b6	48 8b 8c 24 e0
	00 00 00	 mov	 rcx, QWORD PTR _Ostr$[rsp]
  003be	48 03 c8	 add	 rcx, rax
  003c1	48 8b c1	 mov	 rax, rcx
  003c4	45 33 c0	 xor	 r8d, r8d
  003c7	8b 54 24 20	 mov	 edx, DWORD PTR _State$[rsp]
  003cb	48 8b c8	 mov	 rcx, rax
  003ce	ff 15 00 00 00
	00		 call	 QWORD PTR __imp_?setstate@?$basic_ios@DU?$char_traits@D@std@@@std@@QEAAXH_N@Z

; 774  :     return _Ostr;

  003d4	48 8b 84 24 e0
	00 00 00	 mov	 rax, QWORD PTR _Ostr$[rsp]
  003dc	48 89 44 24 78	 mov	 QWORD PTR $T8[rsp], rax
  003e1	48 8d 4c 24 48	 lea	 rcx, QWORD PTR _Ok$[rsp]
  003e6	e8 00 00 00 00	 call	 ??1sentry@?$basic_ostream@DU?$char_traits@D@std@@@std@@QEAA@XZ ; std::basic_ostream<char,std::char_traits<char> >::sentry::~sentry
  003eb	48 8b 44 24 78	 mov	 rax, QWORD PTR $T8[rsp]

; 775  : }

  003f0	48 8b f8	 mov	 rdi, rax
  003f3	48 8b cc	 mov	 rcx, rsp
  003f6	48 8d 15 00 00
	00 00		 lea	 rdx, OFFSET FLAT:??$?6U?$char_traits@D@std@@@std@@YAAEAV?$basic_ostream@DU?$char_traits@D@std@@@0@AEAV10@PEBD@Z$rtcFrameData
  003fd	e8 00 00 00 00	 call	 _RTC_CheckStackVars
  00402	48 8b c7	 mov	 rax, rdi
  00405	48 81 c4 d0 00
	00 00		 add	 rsp, 208		; 000000d0H
  0040c	5f		 pop	 rdi
  0040d	c3		 ret	 0
??$?6U?$char_traits@D@std@@@std@@YAAEAV?$basic_ostream@DU?$char_traits@D@std@@@0@AEAV10@PEBD@Z ENDP ; std::operator<<<std::char_traits<char> >
_TEXT	ENDS
;	COMDAT text$x
text$x	SEGMENT
_State$ = 32
_Count$ = 40
_Pad$ = 48
_Ok$ = 72
$T4 = 100
$T5 = 104
$T6 = 108
$T7 = 112
$T8 = 120
tv137 = 128
tv139 = 136
tv294 = 140
tv295 = 144
tv296 = 152
tv297 = 160
tv298 = 168
tv299 = 176
tv300 = 184
tv301 = 192
_Ostr$ = 224
_Val$ = 232
?dtor$0@?0???$?6U?$char_traits@D@std@@@std@@YAAEAV?$basic_ostream@DU?$char_traits@D@std@@@0@AEAV10@PEBD@Z@4HA PROC ; `std::operator<<<std::char_traits<char> >'::`1'::dtor$0
  00000	48 89 4c 24 08	 mov	 QWORD PTR [rsp+8], rcx
  00005	48 89 54 24 10	 mov	 QWORD PTR [rsp+16], rdx
  0000a	55		 push	 rbp
  0000b	57		 push	 rdi
  0000c	48 83 ec 28	 sub	 rsp, 40			; 00000028H
  00010	48 8b ea	 mov	 rbp, rdx
  00013	48 8d 4d 48	 lea	 rcx, QWORD PTR _Ok$[rbp]
  00017	e8 00 00 00 00	 call	 ??1sentry@?$basic_ostream@DU?$char_traits@D@std@@@std@@QEAA@XZ ; std::basic_ostream<char,std::char_traits<char> >::sentry::~sentry
  0001c	48 83 c4 28	 add	 rsp, 40			; 00000028H
  00020	5f		 pop	 rdi
  00021	5d		 pop	 rbp
  00022	c3		 ret	 0
?dtor$0@?0???$?6U?$char_traits@D@std@@@std@@YAAEAV?$basic_ostream@DU?$char_traits@D@std@@@0@AEAV10@PEBD@Z@4HA ENDP ; `std::operator<<<std::char_traits<char> >'::`1'::dtor$0
text$x	ENDS
;	COMDAT text$x
text$x	SEGMENT
_State$ = 32
_Count$ = 40
_Pad$ = 48
_Ok$ = 72
$T4 = 100
$T5 = 104
$T6 = 108
$T7 = 112
$T8 = 120
tv137 = 128
tv139 = 136
tv294 = 140
tv295 = 144
tv296 = 152
tv297 = 160
tv298 = 168
tv299 = 176
tv300 = 184
tv301 = 192
_Ostr$ = 224
_Val$ = 232
?catch$1@?0???$?6U?$char_traits@D@std@@@std@@YAAEAV?$basic_ostream@DU?$char_traits@D@std@@@0@AEAV10@PEBD@Z@4HA PROC ; `std::operator<<<std::char_traits<char> >'::`1'::catch$1

; 770  :         _CATCH_IO_(ios_base, _Ostr)

  00000	48 89 4c 24 08	 mov	 QWORD PTR [rsp+8], rcx
  00005	48 89 54 24 10	 mov	 QWORD PTR [rsp+16], rdx
  0000a	55		 push	 rbp
  0000b	57		 push	 rdi
  0000c	48 83 ec 28	 sub	 rsp, 40			; 00000028H
  00010	48 8b ea	 mov	 rbp, rdx
__catch$??$?6U?$char_traits@D@std@@@std@@YAAEAV?$basic_ostream@DU?$char_traits@D@std@@@0@AEAV10@PEBD@Z$0:
  00013	48 8b 85 e0 00
	00 00		 mov	 rax, QWORD PTR _Ostr$[rbp]
  0001a	48 8b 00	 mov	 rax, QWORD PTR [rax]
  0001d	48 63 40 04	 movsxd	 rax, DWORD PTR [rax+4]
  00021	48 8b 8d e0 00
	00 00		 mov	 rcx, QWORD PTR _Ostr$[rbp]
  00028	48 03 c8	 add	 rcx, rax
  0002b	48 8b c1	 mov	 rax, rcx
  0002e	41 b0 01	 mov	 r8b, 1
  00031	ba 04 00 00 00	 mov	 edx, 4
  00036	48 8b c8	 mov	 rcx, rax
  00039	ff 15 00 00 00
	00		 call	 QWORD PTR __imp_?setstate@?$basic_ios@DU?$char_traits@D@std@@@std@@QEAAXH_N@Z
  0003f	90		 npad	 1
  00040	48 8d 05 00 00
	00 00		 lea	 rax, $LN23@catch$1
  00047	48 83 c4 28	 add	 rsp, 40			; 00000028H
  0004b	5f		 pop	 rdi
  0004c	5d		 pop	 rbp
  0004d	c3		 ret	 0
  0004e	cc		 int	 3
?catch$1@?0???$?6U?$char_traits@D@std@@@std@@YAAEAV?$basic_ostream@DU?$char_traits@D@std@@@0@AEAV10@PEBD@Z@4HA ENDP ; `std::operator<<<std::char_traits<char> >'::`1'::catch$1
text$x	ENDS
; Function compile flags: /Odtp /RTCsu
;	COMDAT text$x
text$x	SEGMENT
_State$ = 32
_Count$ = 40
_Pad$ = 48
_Ok$ = 72
$T4 = 100
$T5 = 104
$T6 = 108
$T7 = 112
$T8 = 120
tv137 = 128
tv139 = 136
tv294 = 140
tv295 = 144
tv296 = 152
tv297 = 160
tv298 = 168
tv299 = 176
tv300 = 184
tv301 = 192
_Ostr$ = 224
_Val$ = 232
?dtor$0@?0???$?6U?$char_traits@D@std@@@std@@YAAEAV?$basic_ostream@DU?$char_traits@D@std@@@0@AEAV10@PEBD@Z@4HA PROC ; `std::operator<<<std::char_traits<char> >'::`1'::dtor$0
  00000	48 89 4c 24 08	 mov	 QWORD PTR [rsp+8], rcx
  00005	48 89 54 24 10	 mov	 QWORD PTR [rsp+16], rdx
  0000a	55		 push	 rbp
  0000b	57		 push	 rdi
  0000c	48 83 ec 28	 sub	 rsp, 40			; 00000028H
  00010	48 8b ea	 mov	 rbp, rdx
  00013	48 8d 4d 48	 lea	 rcx, QWORD PTR _Ok$[rbp]
  00017	e8 00 00 00 00	 call	 ??1sentry@?$basic_ostream@DU?$char_traits@D@std@@@std@@QEAA@XZ ; std::basic_ostream<char,std::char_traits<char> >::sentry::~sentry
  0001c	48 83 c4 28	 add	 rsp, 40			; 00000028H
  00020	5f		 pop	 rdi
  00021	5d		 pop	 rbp
  00022	c3		 ret	 0
?dtor$0@?0???$?6U?$char_traits@D@std@@@std@@YAAEAV?$basic_ostream@DU?$char_traits@D@std@@@0@AEAV10@PEBD@Z@4HA ENDP ; `std::operator<<<std::char_traits<char> >'::`1'::dtor$0
text$x	ENDS
; Function compile flags: /Odtp /RTCsu
;	COMDAT text$x
text$x	SEGMENT
_State$ = 32
_Count$ = 40
_Pad$ = 48
_Ok$ = 72
$T4 = 100
$T5 = 104
$T6 = 108
$T7 = 112
$T8 = 120
tv137 = 128
tv139 = 136
tv294 = 140
tv295 = 144
tv296 = 152
tv297 = 160
tv298 = 168
tv299 = 176
tv300 = 184
tv301 = 192
_Ostr$ = 224
_Val$ = 232
?catch$1@?0???$?6U?$char_traits@D@std@@@std@@YAAEAV?$basic_ostream@DU?$char_traits@D@std@@@0@AEAV10@PEBD@Z@4HA PROC ; `std::operator<<<std::char_traits<char> >'::`1'::catch$1

; 770  :         _CATCH_IO_(ios_base, _Ostr)

  00000	48 89 4c 24 08	 mov	 QWORD PTR [rsp+8], rcx
  00005	48 89 54 24 10	 mov	 QWORD PTR [rsp+16], rdx
  0000a	55		 push	 rbp
  0000b	57		 push	 rdi
  0000c	48 83 ec 28	 sub	 rsp, 40			; 00000028H
  00010	48 8b ea	 mov	 rbp, rdx
__catch$??$?6U?$char_traits@D@std@@@std@@YAAEAV?$basic_ostream@DU?$char_traits@D@std@@@0@AEAV10@PEBD@Z$0:
  00013	48 8b 85 e0 00
	00 00		 mov	 rax, QWORD PTR _Ostr$[rbp]
  0001a	48 8b 00	 mov	 rax, QWORD PTR [rax]
  0001d	48 63 40 04	 movsxd	 rax, DWORD PTR [rax+4]
  00021	48 8b 8d e0 00
	00 00		 mov	 rcx, QWORD PTR _Ostr$[rbp]
  00028	48 03 c8	 add	 rcx, rax
  0002b	48 8b c1	 mov	 rax, rcx
  0002e	41 b0 01	 mov	 r8b, 1
  00031	ba 04 00 00 00	 mov	 edx, 4
  00036	48 8b c8	 mov	 rcx, rax
  00039	ff 15 00 00 00
	00		 call	 QWORD PTR __imp_?setstate@?$basic_ios@DU?$char_traits@D@std@@@std@@QEAAXH_N@Z
  0003f	90		 npad	 1
  00040	48 8d 05 00 00
	00 00		 lea	 rax, $LN23@catch$1
  00047	48 83 c4 28	 add	 rsp, 40			; 00000028H
  0004b	5f		 pop	 rdi
  0004c	5d		 pop	 rbp
  0004d	c3		 ret	 0
  0004e	cc		 int	 3
?catch$1@?0???$?6U?$char_traits@D@std@@@std@@YAAEAV?$basic_ostream@DU?$char_traits@D@std@@@0@AEAV10@PEBD@Z@4HA ENDP ; `std::operator<<<std::char_traits<char> >'::`1'::catch$1
text$x	ENDS
; Function compile flags: /Odtp /RTCsu
; File D:\dev\crashexplorer\crashexplorer\test_projects\test_project\dynamic_library\math_library.cpp
_TEXT	SEGMENT
p1$ = 32
p2$ = 40
o$ = 48
tv69 = 52
tv76 = 56
tv78 = 60
vp1$ = 80
vp2$ = 88
?compare@@YAHPEBX0@Z PROC				; compare

; 60   : {

$LN8:
  00000	48 89 54 24 10	 mov	 QWORD PTR [rsp+16], rdx
  00005	48 89 4c 24 08	 mov	 QWORD PTR [rsp+8], rcx
  0000a	57		 push	 rdi
  0000b	48 83 ec 40	 sub	 rsp, 64			; 00000040H

; 61   :   Point* p1 = (Point*)vp1;

  0000f	48 8b 44 24 50	 mov	 rax, QWORD PTR vp1$[rsp]
  00014	48 89 44 24 20	 mov	 QWORD PTR p1$[rsp], rax

; 62   :   Point* p2 = (Point*)vp2;

  00019	48 8b 44 24 58	 mov	 rax, QWORD PTR vp2$[rsp]
  0001e	48 89 44 24 28	 mov	 QWORD PTR p2$[rsp], rax

; 63   : 
; 64   :   // Find orientation
; 65   :   int o = orientation(p0, *p1, *p2);

  00023	48 8b 44 24 28	 mov	 rax, QWORD PTR p2$[rsp]
  00028	4c 8b 00	 mov	 r8, QWORD PTR [rax]
  0002b	48 8b 44 24 20	 mov	 rax, QWORD PTR p1$[rsp]
  00030	48 8b 10	 mov	 rdx, QWORD PTR [rax]
  00033	48 8b 0d 00 00
	00 00		 mov	 rcx, QWORD PTR ?p0@@3UPoint@@A ; p0
  0003a	e8 00 00 00 00	 call	 ?orientation@@YAHUPoint@@00@Z ; orientation
  0003f	89 44 24 30	 mov	 DWORD PTR o$[rsp], eax

; 66   :   if (o == 0)

  00043	83 7c 24 30 00	 cmp	 DWORD PTR o$[rsp], 0
  00048	75 4c		 jne	 SHORT $LN2@compare

; 67   :     return (distSq(p0, *p2) >= distSq(p0, *p1)) ? -1 : 1;

  0004a	48 8b 44 24 28	 mov	 rax, QWORD PTR p2$[rsp]
  0004f	48 8b 10	 mov	 rdx, QWORD PTR [rax]
  00052	48 8b 0d 00 00
	00 00		 mov	 rcx, QWORD PTR ?p0@@3UPoint@@A ; p0
  00059	e8 00 00 00 00	 call	 ?distSq@@YAHUPoint@@0@Z	; distSq
  0005e	89 44 24 34	 mov	 DWORD PTR tv69[rsp], eax
  00062	48 8b 4c 24 20	 mov	 rcx, QWORD PTR p1$[rsp]
  00067	48 8b 11	 mov	 rdx, QWORD PTR [rcx]
  0006a	48 8b 0d 00 00
	00 00		 mov	 rcx, QWORD PTR ?p0@@3UPoint@@A ; p0
  00071	e8 00 00 00 00	 call	 ?distSq@@YAHUPoint@@0@Z	; distSq
  00076	8b 4c 24 34	 mov	 ecx, DWORD PTR tv69[rsp]
  0007a	3b c8		 cmp	 ecx, eax
  0007c	7c 0a		 jl	 SHORT $LN4@compare
  0007e	c7 44 24 38 ff
	ff ff ff	 mov	 DWORD PTR tv76[rsp], -1
  00086	eb 08		 jmp	 SHORT $LN5@compare
$LN4@compare:
  00088	c7 44 24 38 01
	00 00 00	 mov	 DWORD PTR tv76[rsp], 1
$LN5@compare:
  00090	8b 44 24 38	 mov	 eax, DWORD PTR tv76[rsp]
  00094	eb 1d		 jmp	 SHORT $LN1@compare
$LN2@compare:

; 68   : 
; 69   :   return (o == 2) ? -1 : 1;

  00096	83 7c 24 30 02	 cmp	 DWORD PTR o$[rsp], 2
  0009b	75 0a		 jne	 SHORT $LN6@compare
  0009d	c7 44 24 3c ff
	ff ff ff	 mov	 DWORD PTR tv78[rsp], -1
  000a5	eb 08		 jmp	 SHORT $LN7@compare
$LN6@compare:
  000a7	c7 44 24 3c 01
	00 00 00	 mov	 DWORD PTR tv78[rsp], 1
$LN7@compare:
  000af	8b 44 24 3c	 mov	 eax, DWORD PTR tv78[rsp]
$LN1@compare:

; 70   : }

  000b3	48 83 c4 40	 add	 rsp, 64			; 00000040H
  000b7	5f		 pop	 rdi
  000b8	c3		 ret	 0
?compare@@YAHPEBX0@Z ENDP				; compare
_TEXT	ENDS
; Function compile flags: /Odtp /RTCsu
; File D:\dev\crashexplorer\crashexplorer\test_projects\test_project\dynamic_library\math_library.cpp
_TEXT	SEGMENT
val$ = 0
tv73 = 4
p$ = 32
q$ = 40
r$ = 48
?orientation@@YAHUPoint@@00@Z PROC			; orientation

; 49   : {

$LN6:
  00000	4c 89 44 24 18	 mov	 QWORD PTR [rsp+24], r8
  00005	48 89 54 24 10	 mov	 QWORD PTR [rsp+16], rdx
  0000a	48 89 4c 24 08	 mov	 QWORD PTR [rsp+8], rcx
  0000f	57		 push	 rdi
  00010	48 83 ec 10	 sub	 rsp, 16

; 50   :   int val = (q.y - p.y) * (r.x - q.x) -

  00014	8b 44 24 24	 mov	 eax, DWORD PTR p$[rsp+4]
  00018	8b 4c 24 2c	 mov	 ecx, DWORD PTR q$[rsp+4]
  0001c	2b c8		 sub	 ecx, eax
  0001e	8b c1		 mov	 eax, ecx
  00020	8b 4c 24 28	 mov	 ecx, DWORD PTR q$[rsp]
  00024	8b 54 24 30	 mov	 edx, DWORD PTR r$[rsp]
  00028	2b d1		 sub	 edx, ecx
  0002a	8b ca		 mov	 ecx, edx
  0002c	0f af c1	 imul	 eax, ecx
  0002f	8b 4c 24 20	 mov	 ecx, DWORD PTR p$[rsp]
  00033	8b 54 24 28	 mov	 edx, DWORD PTR q$[rsp]
  00037	2b d1		 sub	 edx, ecx
  00039	8b ca		 mov	 ecx, edx
  0003b	8b 54 24 2c	 mov	 edx, DWORD PTR q$[rsp+4]
  0003f	44 8b 44 24 34	 mov	 r8d, DWORD PTR r$[rsp+4]
  00044	44 2b c2	 sub	 r8d, edx
  00047	41 8b d0	 mov	 edx, r8d
  0004a	0f af ca	 imul	 ecx, edx
  0004d	2b c1		 sub	 eax, ecx
  0004f	89 04 24	 mov	 DWORD PTR val$[rsp], eax

; 51   :     (q.x - p.x) * (r.y - q.y);
; 52   : 
; 53   :   if (val == 0) return 0;  // colinear

  00052	83 3c 24 00	 cmp	 DWORD PTR val$[rsp], 0
  00056	75 04		 jne	 SHORT $LN2@orientatio
  00058	33 c0		 xor	 eax, eax
  0005a	eb 1c		 jmp	 SHORT $LN1@orientatio
$LN2@orientatio:

; 54   :   return (val > 0) ? 1 : 2; // clock or counterclock wise

  0005c	83 3c 24 00	 cmp	 DWORD PTR val$[rsp], 0
  00060	7e 0a		 jle	 SHORT $LN4@orientatio
  00062	c7 44 24 04 01
	00 00 00	 mov	 DWORD PTR tv73[rsp], 1
  0006a	eb 08		 jmp	 SHORT $LN5@orientatio
$LN4@orientatio:
  0006c	c7 44 24 04 02
	00 00 00	 mov	 DWORD PTR tv73[rsp], 2
$LN5@orientatio:
  00074	8b 44 24 04	 mov	 eax, DWORD PTR tv73[rsp]
$LN1@orientatio:

; 55   : }

  00078	48 83 c4 10	 add	 rsp, 16
  0007c	5f		 pop	 rdi
  0007d	c3		 ret	 0
?orientation@@YAHUPoint@@00@Z ENDP			; orientation
_TEXT	ENDS
; Function compile flags: /Odtp /RTCsu
; File D:\dev\crashexplorer\crashexplorer\test_projects\test_project\dynamic_library\math_library.cpp
_TEXT	SEGMENT
p1$ = 16
p2$ = 24
?distSq@@YAHUPoint@@0@Z PROC				; distSq

; 38   : {

$LN3:
  00000	48 89 54 24 10	 mov	 QWORD PTR [rsp+16], rdx
  00005	48 89 4c 24 08	 mov	 QWORD PTR [rsp+8], rcx
  0000a	57		 push	 rdi

; 39   :   return (p1.x - p2.x) * (p1.x - p2.x) +

  0000b	8b 44 24 18	 mov	 eax, DWORD PTR p2$[rsp]
  0000f	8b 4c 24 10	 mov	 ecx, DWORD PTR p1$[rsp]
  00013	2b c8		 sub	 ecx, eax
  00015	8b c1		 mov	 eax, ecx
  00017	8b 4c 24 18	 mov	 ecx, DWORD PTR p2$[rsp]
  0001b	8b 54 24 10	 mov	 edx, DWORD PTR p1$[rsp]
  0001f	2b d1		 sub	 edx, ecx
  00021	8b ca		 mov	 ecx, edx
  00023	0f af c1	 imul	 eax, ecx
  00026	8b 4c 24 1c	 mov	 ecx, DWORD PTR p2$[rsp+4]
  0002a	8b 54 24 14	 mov	 edx, DWORD PTR p1$[rsp+4]
  0002e	2b d1		 sub	 edx, ecx
  00030	8b ca		 mov	 ecx, edx
  00032	8b 54 24 1c	 mov	 edx, DWORD PTR p2$[rsp+4]
  00036	44 8b 44 24 14	 mov	 r8d, DWORD PTR p1$[rsp+4]
  0003b	44 2b c2	 sub	 r8d, edx
  0003e	41 8b d0	 mov	 edx, r8d
  00041	0f af ca	 imul	 ecx, edx
  00044	03 c1		 add	 eax, ecx

; 40   :     (p1.y - p2.y) * (p1.y - p2.y);
; 41   : }

  00046	5f		 pop	 rdi
  00047	c3		 ret	 0
?distSq@@YAHUPoint@@0@Z ENDP				; distSq
_TEXT	ENDS
; Function compile flags: /Odtp /RTCsu
;	COMDAT ??1?$stack@UPoint@@V?$deque@UPoint@@V?$allocator@UPoint@@@std@@@std@@@std@@QEAA@XZ
_TEXT	SEGMENT
this$ = 48
??1?$stack@UPoint@@V?$deque@UPoint@@V?$allocator@UPoint@@@std@@@std@@@std@@QEAA@XZ PROC ; std::stack<Point,std::deque<Point,std::allocator<Point> > >::~stack<Point,std::deque<Point,std::allocator<Point> > >, COMDAT
$LN3:
  00000	48 89 4c 24 08	 mov	 QWORD PTR [rsp+8], rcx
  00005	57		 push	 rdi
  00006	48 83 ec 20	 sub	 rsp, 32			; 00000020H
  0000a	48 8b 44 24 30	 mov	 rax, QWORD PTR this$[rsp]
  0000f	48 8b c8	 mov	 rcx, rax
  00012	e8 00 00 00 00	 call	 ??1?$deque@UPoint@@V?$allocator@UPoint@@@std@@@std@@QEAA@XZ ; std::deque<Point,std::allocator<Point> >::~deque<Point,std::allocator<Point> >
  00017	48 83 c4 20	 add	 rsp, 32			; 00000020H
  0001b	5f		 pop	 rdi
  0001c	c3		 ret	 0
??1?$stack@UPoint@@V?$deque@UPoint@@V?$allocator@UPoint@@@std@@@std@@@std@@QEAA@XZ ENDP ; std::stack<Point,std::deque<Point,std::allocator<Point> > >::~stack<Point,std::deque<Point,std::allocator<Point> > >
_TEXT	ENDS
; Function compile flags: /Odtp /RTCsu
; File C:\Program Files (x86)\Microsoft Visual Studio\2019\Community\VC\Tools\MSVC\14.29.30037\include\stack
;	COMDAT ?pop@?$stack@UPoint@@V?$deque@UPoint@@V?$allocator@UPoint@@@std@@@std@@@std@@QEAAXXZ
_TEXT	SEGMENT
this$ = 48
?pop@?$stack@UPoint@@V?$deque@UPoint@@V?$allocator@UPoint@@@std@@@std@@@std@@QEAAXXZ PROC ; std::stack<Point,std::deque<Point,std::allocator<Point> > >::pop, COMDAT

; 93   :     void pop() noexcept(noexcept(c.pop_back())) /* strengthened */ {

$LN3:
  00000	48 89 4c 24 08	 mov	 QWORD PTR [rsp+8], rcx
  00005	57		 push	 rdi
  00006	48 83 ec 20	 sub	 rsp, 32			; 00000020H

; 94   :         c.pop_back();

  0000a	48 8b 44 24 30	 mov	 rax, QWORD PTR this$[rsp]
  0000f	48 8b c8	 mov	 rcx, rax
  00012	e8 00 00 00 00	 call	 ?pop_back@?$deque@UPoint@@V?$allocator@UPoint@@@std@@@std@@QEAAXXZ ; std::deque<Point,std::allocator<Point> >::pop_back

; 95   :     }

  00017	48 83 c4 20	 add	 rsp, 32			; 00000020H
  0001b	5f		 pop	 rdi
  0001c	c3		 ret	 0
?pop@?$stack@UPoint@@V?$deque@UPoint@@V?$allocator@UPoint@@@std@@@std@@@std@@QEAAXXZ ENDP ; std::stack<Point,std::deque<Point,std::allocator<Point> > >::pop
_TEXT	ENDS
; Function compile flags: /Odtp /RTCsu
; File C:\Program Files (x86)\Microsoft Visual Studio\2019\Community\VC\Tools\MSVC\14.29.30037\include\stack
;	COMDAT ?push@?$stack@UPoint@@V?$deque@UPoint@@V?$allocator@UPoint@@@std@@@std@@@std@@QEAAXAEBUPoint@@@Z
_TEXT	SEGMENT
this$ = 48
_Val$ = 56
?push@?$stack@UPoint@@V?$deque@UPoint@@V?$allocator@UPoint@@@std@@@std@@@std@@QEAAXAEBUPoint@@@Z PROC ; std::stack<Point,std::deque<Point,std::allocator<Point> > >::push, COMDAT

; 76   :     void push(const value_type& _Val) {

$LN3:
  00000	48 89 54 24 10	 mov	 QWORD PTR [rsp+16], rdx
  00005	48 89 4c 24 08	 mov	 QWORD PTR [rsp+8], rcx
  0000a	57		 push	 rdi
  0000b	48 83 ec 20	 sub	 rsp, 32			; 00000020H

; 77   :         c.push_back(_Val);

  0000f	48 8b 44 24 30	 mov	 rax, QWORD PTR this$[rsp]
  00014	48 8b 54 24 38	 mov	 rdx, QWORD PTR _Val$[rsp]
  00019	48 8b c8	 mov	 rcx, rax
  0001c	e8 00 00 00 00	 call	 ?push_back@?$deque@UPoint@@V?$allocator@UPoint@@@std@@@std@@QEAAXAEBUPoint@@@Z ; std::deque<Point,std::allocator<Point> >::push_back

; 78   :     }

  00021	48 83 c4 20	 add	 rsp, 32			; 00000020H
  00025	5f		 pop	 rdi
  00026	c3		 ret	 0
?push@?$stack@UPoint@@V?$deque@UPoint@@V?$allocator@UPoint@@@std@@@std@@@std@@QEAAXAEBUPoint@@@Z ENDP ; std::stack<Point,std::deque<Point,std::allocator<Point> > >::push
_TEXT	ENDS
; Function compile flags: /Odtp /RTCsu
; File C:\Program Files (x86)\Microsoft Visual Studio\2019\Community\VC\Tools\MSVC\14.29.30037\include\stack
;	COMDAT ?top@?$stack@UPoint@@V?$deque@UPoint@@V?$allocator@UPoint@@@std@@@std@@@std@@QEAAAEAUPoint@@XZ
_TEXT	SEGMENT
this$ = 48
?top@?$stack@UPoint@@V?$deque@UPoint@@V?$allocator@UPoint@@@std@@@std@@@std@@QEAAAEAUPoint@@XZ PROC ; std::stack<Point,std::deque<Point,std::allocator<Point> > >::top, COMDAT

; 68   :     _NODISCARD reference top() noexcept(noexcept(c.back())) /* strengthened */ {

$LN3:
  00000	48 89 4c 24 08	 mov	 QWORD PTR [rsp+8], rcx
  00005	57		 push	 rdi
  00006	48 83 ec 20	 sub	 rsp, 32			; 00000020H

; 69   :         return c.back();

  0000a	48 8b 44 24 30	 mov	 rax, QWORD PTR this$[rsp]
  0000f	48 8b c8	 mov	 rcx, rax
  00012	e8 00 00 00 00	 call	 ?back@?$deque@UPoint@@V?$allocator@UPoint@@@std@@@std@@QEAAAEAUPoint@@XZ ; std::deque<Point,std::allocator<Point> >::back

; 70   :     }

  00017	48 83 c4 20	 add	 rsp, 32			; 00000020H
  0001b	5f		 pop	 rdi
  0001c	c3		 ret	 0
?top@?$stack@UPoint@@V?$deque@UPoint@@V?$allocator@UPoint@@@std@@@std@@@std@@QEAAAEAUPoint@@XZ ENDP ; std::stack<Point,std::deque<Point,std::allocator<Point> > >::top
_TEXT	ENDS
; Function compile flags: /Odtp /RTCsu
; File C:\Program Files (x86)\Microsoft Visual Studio\2019\Community\VC\Tools\MSVC\14.29.30037\include\stack
;	COMDAT ?size@?$stack@UPoint@@V?$deque@UPoint@@V?$allocator@UPoint@@@std@@@std@@@std@@QEBA_KXZ
_TEXT	SEGMENT
this$ = 48
?size@?$stack@UPoint@@V?$deque@UPoint@@V?$allocator@UPoint@@@std@@@std@@@std@@QEBA_KXZ PROC ; std::stack<Point,std::deque<Point,std::allocator<Point> > >::size, COMDAT

; 64   :     _NODISCARD size_type size() const noexcept(noexcept(c.size())) /* strengthened */ {

$LN3:
  00000	48 89 4c 24 08	 mov	 QWORD PTR [rsp+8], rcx
  00005	57		 push	 rdi
  00006	48 83 ec 20	 sub	 rsp, 32			; 00000020H

; 65   :         return c.size();

  0000a	48 8b 44 24 30	 mov	 rax, QWORD PTR this$[rsp]
  0000f	48 8b c8	 mov	 rcx, rax
  00012	e8 00 00 00 00	 call	 ?size@?$deque@UPoint@@V?$allocator@UPoint@@@std@@@std@@QEBA_KXZ ; std::deque<Point,std::allocator<Point> >::size

; 66   :     }

  00017	48 83 c4 20	 add	 rsp, 32			; 00000020H
  0001b	5f		 pop	 rdi
  0001c	c3		 ret	 0
?size@?$stack@UPoint@@V?$deque@UPoint@@V?$allocator@UPoint@@@std@@@std@@@std@@QEBA_KXZ ENDP ; std::stack<Point,std::deque<Point,std::allocator<Point> > >::size
_TEXT	ENDS
; Function compile flags: /Odtp /RTCsu
; File C:\Program Files (x86)\Microsoft Visual Studio\2019\Community\VC\Tools\MSVC\14.29.30037\include\stack
;	COMDAT ?empty@?$stack@UPoint@@V?$deque@UPoint@@V?$allocator@UPoint@@@std@@@std@@@std@@QEBA_NXZ
_TEXT	SEGMENT
this$ = 48
?empty@?$stack@UPoint@@V?$deque@UPoint@@V?$allocator@UPoint@@@std@@@std@@@std@@QEBA_NXZ PROC ; std::stack<Point,std::deque<Point,std::allocator<Point> > >::empty, COMDAT

; 60   :     _NODISCARD bool empty() const noexcept(noexcept(c.empty())) /* strengthened */ {

$LN3:
  00000	48 89 4c 24 08	 mov	 QWORD PTR [rsp+8], rcx
  00005	57		 push	 rdi
  00006	48 83 ec 20	 sub	 rsp, 32			; 00000020H

; 61   :         return c.empty();

  0000a	48 8b 44 24 30	 mov	 rax, QWORD PTR this$[rsp]
  0000f	48 8b c8	 mov	 rcx, rax
  00012	e8 00 00 00 00	 call	 ?empty@?$deque@UPoint@@V?$allocator@UPoint@@@std@@@std@@QEBA_NXZ ; std::deque<Point,std::allocator<Point> >::empty

; 62   :     }

  00017	48 83 c4 20	 add	 rsp, 32			; 00000020H
  0001b	5f		 pop	 rdi
  0001c	c3		 ret	 0
?empty@?$stack@UPoint@@V?$deque@UPoint@@V?$allocator@UPoint@@@std@@@std@@@std@@QEBA_NXZ ENDP ; std::stack<Point,std::deque<Point,std::allocator<Point> > >::empty
_TEXT	ENDS
; Function compile flags: /Odtp /RTCsu
; File C:\Program Files (x86)\Microsoft Visual Studio\2019\Community\VC\Tools\MSVC\14.29.30037\include\stack
;	COMDAT ??0?$stack@UPoint@@V?$deque@UPoint@@V?$allocator@UPoint@@@std@@@std@@@std@@QEAA@XZ
_TEXT	SEGMENT
this$ = 48
??0?$stack@UPoint@@V?$deque@UPoint@@V?$allocator@UPoint@@@std@@@std@@@std@@QEAA@XZ PROC ; std::stack<Point,std::deque<Point,std::allocator<Point> > >::stack<Point,std::deque<Point,std::allocator<Point> > >, COMDAT

; 33   :     stack() = default;

$LN3:
  00000	48 89 4c 24 08	 mov	 QWORD PTR [rsp+8], rcx
  00005	57		 push	 rdi
  00006	48 83 ec 20	 sub	 rsp, 32			; 00000020H

; 34   : 
; 35   :     explicit stack(const _Container& _Cont) : c(_Cont) {}
; 36   : 
; 37   :     explicit stack(_Container&& _Cont) noexcept(is_nothrow_move_constructible_v<_Container>) // strengthened
; 38   :         : c(_STD move(_Cont)) {}
; 39   : 
; 40   :     template <class _Alloc, enable_if_t<uses_allocator_v<_Container, _Alloc>, int> = 0>
; 41   :     explicit stack(const _Alloc& _Al) noexcept(is_nothrow_constructible_v<_Container, const _Alloc&>) // strengthened
; 42   :         : c(_Al) {}
; 43   : 
; 44   :     template <class _Alloc, enable_if_t<uses_allocator_v<_Container, _Alloc>, int> = 0>
; 45   :     stack(const _Container& _Cont, const _Alloc& _Al) : c(_Cont, _Al) {}
; 46   : 
; 47   :     template <class _Alloc, enable_if_t<uses_allocator_v<_Container, _Alloc>, int> = 0>
; 48   :     stack(_Container&& _Cont, const _Alloc& _Al) noexcept(
; 49   :         is_nothrow_constructible_v<_Container, _Container, const _Alloc&>) // strengthened
; 50   :         : c(_STD move(_Cont), _Al) {}
; 51   : 
; 52   :     template <class _Alloc, enable_if_t<uses_allocator_v<_Container, _Alloc>, int> = 0>
; 53   :     stack(const stack& _Right, const _Alloc& _Al) : c(_Right.c, _Al) {}
; 54   : 
; 55   :     template <class _Alloc, enable_if_t<uses_allocator_v<_Container, _Alloc>, int> = 0>
; 56   :     stack(stack&& _Right, const _Alloc& _Al) noexcept(
; 57   :         is_nothrow_constructible_v<_Container, _Container, const _Alloc&>) // strengthened
; 58   :         : c(_STD move(_Right.c), _Al) {}
; 59   : 
; 60   :     _NODISCARD bool empty() const noexcept(noexcept(c.empty())) /* strengthened */ {
; 61   :         return c.empty();
; 62   :     }
; 63   : 
; 64   :     _NODISCARD size_type size() const noexcept(noexcept(c.size())) /* strengthened */ {
; 65   :         return c.size();
; 66   :     }
; 67   : 
; 68   :     _NODISCARD reference top() noexcept(noexcept(c.back())) /* strengthened */ {
; 69   :         return c.back();
; 70   :     }
; 71   : 
; 72   :     _NODISCARD const_reference top() const noexcept(noexcept(c.back())) /* strengthened */ {
; 73   :         return c.back();
; 74   :     }
; 75   : 
; 76   :     void push(const value_type& _Val) {
; 77   :         c.push_back(_Val);
; 78   :     }
; 79   : 
; 80   :     void push(value_type&& _Val) {
; 81   :         c.push_back(_STD move(_Val));
; 82   :     }
; 83   : 
; 84   :     template <class... _Valty>
; 85   :     decltype(auto) emplace(_Valty&&... _Val) {
; 86   : #if _HAS_CXX17
; 87   :         return c.emplace_back(_STD forward<_Valty>(_Val)...);
; 88   : #else // ^^^ C++17 or newer / C++14 vvv
; 89   :         c.emplace_back(_STD forward<_Valty>(_Val)...);
; 90   : #endif // _HAS_CXX17
; 91   :     }
; 92   : 
; 93   :     void pop() noexcept(noexcept(c.pop_back())) /* strengthened */ {
; 94   :         c.pop_back();
; 95   :     }
; 96   : 
; 97   :     void swap(stack& _Right) noexcept(_Is_nothrow_swappable<_Container>::value) {
; 98   :         _Swap_adl(c, _Right.c);
; 99   :     }
; 100  : 
; 101  :     _NODISCARD const _Container& _Get_container() const noexcept { // TRANSITION, VSO-1307828
; 102  :         return c;
; 103  :     }
; 104  : 
; 105  : protected:
; 106  :     _Container c{};

  0000a	48 8b 44 24 30	 mov	 rax, QWORD PTR this$[rsp]
  0000f	48 8b c8	 mov	 rcx, rax
  00012	e8 00 00 00 00	 call	 ??0?$deque@UPoint@@V?$allocator@UPoint@@@std@@@std@@QEAA@XZ ; std::deque<Point,std::allocator<Point> >::deque<Point,std::allocator<Point> >

; 33   :     stack() = default;

  00017	48 8b 44 24 30	 mov	 rax, QWORD PTR this$[rsp]
  0001c	48 83 c4 20	 add	 rsp, 32			; 00000020H
  00020	5f		 pop	 rdi
  00021	c3		 ret	 0
??0?$stack@UPoint@@V?$deque@UPoint@@V?$allocator@UPoint@@@std@@@std@@@std@@QEAA@XZ ENDP ; std::stack<Point,std::deque<Point,std::allocator<Point> > >::stack<Point,std::deque<Point,std::allocator<Point> > >
_TEXT	ENDS
; Function compile flags: /Odtp /RTCsu
; File C:\Program Files (x86)\Microsoft Visual Studio\2019\Community\VC\Tools\MSVC\14.29.30037\include\xmemory
;	COMDAT ?_Get_first@?$_Compressed_pair@V?$allocator@UPoint@@@std@@V?$_Deque_val@U?$_Deque_simple_types@UPoint@@@std@@@2@$00@std@@QEBAAEBV?$allocator@UPoint@@@2@XZ
_TEXT	SEGMENT
this$ = 16
?_Get_first@?$_Compressed_pair@V?$allocator@UPoint@@@std@@V?$_Deque_val@U?$_Deque_simple_types@UPoint@@@std@@@2@$00@std@@QEBAAEBV?$allocator@UPoint@@@2@XZ PROC ; std::_Compressed_pair<std::allocator<Point>,std::_Deque_val<std::_Deque_simple_types<Point> >,1>::_Get_first, COMDAT

; 1381 :     constexpr const _Ty1& _Get_first() const noexcept {

$LN3:
  00000	48 89 4c 24 08	 mov	 QWORD PTR [rsp+8], rcx
  00005	57		 push	 rdi

; 1382 :         return *this;

  00006	48 8b 44 24 10	 mov	 rax, QWORD PTR this$[rsp]

; 1383 :     }

  0000b	5f		 pop	 rdi
  0000c	c3		 ret	 0
?_Get_first@?$_Compressed_pair@V?$allocator@UPoint@@@std@@V?$_Deque_val@U?$_Deque_simple_types@UPoint@@@std@@@2@$00@std@@QEBAAEBV?$allocator@UPoint@@@2@XZ ENDP ; std::_Compressed_pair<std::allocator<Point>,std::_Deque_val<std::_Deque_simple_types<Point> >,1>::_Get_first
_TEXT	ENDS
; Function compile flags: /Odtp /RTCsu
; File C:\Program Files (x86)\Microsoft Visual Studio\2019\Community\VC\Tools\MSVC\14.29.30037\include\xmemory
;	COMDAT ?_Get_first@?$_Compressed_pair@V?$allocator@UPoint@@@std@@V?$_Deque_val@U?$_Deque_simple_types@UPoint@@@std@@@2@$00@std@@QEAAAEAV?$allocator@UPoint@@@2@XZ
_TEXT	SEGMENT
this$ = 16
?_Get_first@?$_Compressed_pair@V?$allocator@UPoint@@@std@@V?$_Deque_val@U?$_Deque_simple_types@UPoint@@@std@@@2@$00@std@@QEAAAEAV?$allocator@UPoint@@@2@XZ PROC ; std::_Compressed_pair<std::allocator<Point>,std::_Deque_val<std::_Deque_simple_types<Point> >,1>::_Get_first, COMDAT

; 1377 :     constexpr _Ty1& _Get_first() noexcept {

$LN3:
  00000	48 89 4c 24 08	 mov	 QWORD PTR [rsp+8], rcx
  00005	57		 push	 rdi

; 1378 :         return *this;

  00006	48 8b 44 24 10	 mov	 rax, QWORD PTR this$[rsp]

; 1379 :     }

  0000b	5f		 pop	 rdi
  0000c	c3		 ret	 0
?_Get_first@?$_Compressed_pair@V?$allocator@UPoint@@@std@@V?$_Deque_val@U?$_Deque_simple_types@UPoint@@@std@@@2@$00@std@@QEAAAEAV?$allocator@UPoint@@@2@XZ ENDP ; std::_Compressed_pair<std::allocator<Point>,std::_Deque_val<std::_Deque_simple_types<Point> >,1>::_Get_first
_TEXT	ENDS
; Function compile flags: /Odtp /RTCsu
; File C:\Program Files (x86)\Microsoft Visual Studio\2019\Community\VC\Tools\MSVC\14.29.30037\include\deque
;	COMDAT ?_Mysize@?$deque@UPoint@@V?$allocator@UPoint@@@std@@@std@@AEBAAEB_KXZ
_TEXT	SEGMENT
this$ = 48
?_Mysize@?$deque@UPoint@@V?$allocator@UPoint@@@std@@@std@@AEBAAEB_KXZ PROC ; std::deque<Point,std::allocator<Point> >::_Mysize, COMDAT

; 1574 :     const size_type& _Mysize() const noexcept {

$LN3:
  00000	48 89 4c 24 08	 mov	 QWORD PTR [rsp+8], rcx
  00005	57		 push	 rdi
  00006	48 83 ec 20	 sub	 rsp, 32			; 00000020H

; 1575 :         return _Get_data()._Mysize;

  0000a	48 8b 4c 24 30	 mov	 rcx, QWORD PTR this$[rsp]
  0000f	e8 00 00 00 00	 call	 ?_Get_data@?$deque@UPoint@@V?$allocator@UPoint@@@std@@@std@@AEBAAEBV?$_Deque_val@U?$_Deque_simple_types@UPoint@@@std@@@2@XZ ; std::deque<Point,std::allocator<Point> >::_Get_data
  00014	48 83 c0 20	 add	 rax, 32			; 00000020H

; 1576 :     }

  00018	48 83 c4 20	 add	 rsp, 32			; 00000020H
  0001c	5f		 pop	 rdi
  0001d	c3		 ret	 0
?_Mysize@?$deque@UPoint@@V?$allocator@UPoint@@@std@@@std@@AEBAAEB_KXZ ENDP ; std::deque<Point,std::allocator<Point> >::_Mysize
_TEXT	ENDS
; Function compile flags: /Odtp /RTCsu
; File C:\Program Files (x86)\Microsoft Visual Studio\2019\Community\VC\Tools\MSVC\14.29.30037\include\deque
;	COMDAT ?_Mysize@?$deque@UPoint@@V?$allocator@UPoint@@@std@@@std@@AEAAAEA_KXZ
_TEXT	SEGMENT
this$ = 48
?_Mysize@?$deque@UPoint@@V?$allocator@UPoint@@@std@@@std@@AEAAAEA_KXZ PROC ; std::deque<Point,std::allocator<Point> >::_Mysize, COMDAT

; 1570 :     size_type& _Mysize() noexcept {

$LN3:
  00000	48 89 4c 24 08	 mov	 QWORD PTR [rsp+8], rcx
  00005	57		 push	 rdi
  00006	48 83 ec 20	 sub	 rsp, 32			; 00000020H

; 1571 :         return _Get_data()._Mysize;

  0000a	48 8b 4c 24 30	 mov	 rcx, QWORD PTR this$[rsp]
  0000f	e8 00 00 00 00	 call	 ?_Get_data@?$deque@UPoint@@V?$allocator@UPoint@@@std@@@std@@AEAAAEAV?$_Deque_val@U?$_Deque_simple_types@UPoint@@@std@@@2@XZ ; std::deque<Point,std::allocator<Point> >::_Get_data
  00014	48 83 c0 20	 add	 rax, 32			; 00000020H

; 1572 :     }

  00018	48 83 c4 20	 add	 rsp, 32			; 00000020H
  0001c	5f		 pop	 rdi
  0001d	c3		 ret	 0
?_Mysize@?$deque@UPoint@@V?$allocator@UPoint@@@std@@@std@@AEAAAEA_KXZ ENDP ; std::deque<Point,std::allocator<Point> >::_Mysize
_TEXT	ENDS
; Function compile flags: /Odtp /RTCsu
; File C:\Program Files (x86)\Microsoft Visual Studio\2019\Community\VC\Tools\MSVC\14.29.30037\include\deque
;	COMDAT ?_Myoff@?$deque@UPoint@@V?$allocator@UPoint@@@std@@@std@@AEBAAEB_KXZ
_TEXT	SEGMENT
this$ = 48
?_Myoff@?$deque@UPoint@@V?$allocator@UPoint@@@std@@@std@@AEBAAEB_KXZ PROC ; std::deque<Point,std::allocator<Point> >::_Myoff, COMDAT

; 1566 :     const size_type& _Myoff() const noexcept {

$LN3:
  00000	48 89 4c 24 08	 mov	 QWORD PTR [rsp+8], rcx
  00005	57		 push	 rdi
  00006	48 83 ec 20	 sub	 rsp, 32			; 00000020H

; 1567 :         return _Get_data()._Myoff;

  0000a	48 8b 4c 24 30	 mov	 rcx, QWORD PTR this$[rsp]
  0000f	e8 00 00 00 00	 call	 ?_Get_data@?$deque@UPoint@@V?$allocator@UPoint@@@std@@@std@@AEBAAEBV?$_Deque_val@U?$_Deque_simple_types@UPoint@@@std@@@2@XZ ; std::deque<Point,std::allocator<Point> >::_Get_data
  00014	48 83 c0 18	 add	 rax, 24

; 1568 :     }

  00018	48 83 c4 20	 add	 rsp, 32			; 00000020H
  0001c	5f		 pop	 rdi
  0001d	c3		 ret	 0
?_Myoff@?$deque@UPoint@@V?$allocator@UPoint@@@std@@@std@@AEBAAEB_KXZ ENDP ; std::deque<Point,std::allocator<Point> >::_Myoff
_TEXT	ENDS
; Function compile flags: /Odtp /RTCsu
; File C:\Program Files (x86)\Microsoft Visual Studio\2019\Community\VC\Tools\MSVC\14.29.30037\include\deque
;	COMDAT ?_Myoff@?$deque@UPoint@@V?$allocator@UPoint@@@std@@@std@@AEAAAEA_KXZ
_TEXT	SEGMENT
this$ = 48
?_Myoff@?$deque@UPoint@@V?$allocator@UPoint@@@std@@@std@@AEAAAEA_KXZ PROC ; std::deque<Point,std::allocator<Point> >::_Myoff, COMDAT

; 1562 :     size_type& _Myoff() noexcept {

$LN3:
  00000	48 89 4c 24 08	 mov	 QWORD PTR [rsp+8], rcx
  00005	57		 push	 rdi
  00006	48 83 ec 20	 sub	 rsp, 32			; 00000020H

; 1563 :         return _Get_data()._Myoff;

  0000a	48 8b 4c 24 30	 mov	 rcx, QWORD PTR this$[rsp]
  0000f	e8 00 00 00 00	 call	 ?_Get_data@?$deque@UPoint@@V?$allocator@UPoint@@@std@@@std@@AEAAAEAV?$_Deque_val@U?$_Deque_simple_types@UPoint@@@std@@@2@XZ ; std::deque<Point,std::allocator<Point> >::_Get_data
  00014	48 83 c0 18	 add	 rax, 24

; 1564 :     }

  00018	48 83 c4 20	 add	 rsp, 32			; 00000020H
  0001c	5f		 pop	 rdi
  0001d	c3		 ret	 0
?_Myoff@?$deque@UPoint@@V?$allocator@UPoint@@@std@@@std@@AEAAAEA_KXZ ENDP ; std::deque<Point,std::allocator<Point> >::_Myoff
_TEXT	ENDS
; Function compile flags: /Odtp /RTCsu
; File C:\Program Files (x86)\Microsoft Visual Studio\2019\Community\VC\Tools\MSVC\14.29.30037\include\deque
;	COMDAT ?_Mapsize@?$deque@UPoint@@V?$allocator@UPoint@@@std@@@std@@AEAAAEA_KXZ
_TEXT	SEGMENT
this$ = 48
?_Mapsize@?$deque@UPoint@@V?$allocator@UPoint@@@std@@@std@@AEAAAEA_KXZ PROC ; std::deque<Point,std::allocator<Point> >::_Mapsize, COMDAT

; 1554 :     size_type& _Mapsize() noexcept {

$LN3:
  00000	48 89 4c 24 08	 mov	 QWORD PTR [rsp+8], rcx
  00005	57		 push	 rdi
  00006	48 83 ec 20	 sub	 rsp, 32			; 00000020H

; 1555 :         return _Get_data()._Mapsize;

  0000a	48 8b 4c 24 30	 mov	 rcx, QWORD PTR this$[rsp]
  0000f	e8 00 00 00 00	 call	 ?_Get_data@?$deque@UPoint@@V?$allocator@UPoint@@@std@@@std@@AEAAAEAV?$_Deque_val@U?$_Deque_simple_types@UPoint@@@std@@@2@XZ ; std::deque<Point,std::allocator<Point> >::_Get_data
  00014	48 83 c0 10	 add	 rax, 16

; 1556 :     }

  00018	48 83 c4 20	 add	 rsp, 32			; 00000020H
  0001c	5f		 pop	 rdi
  0001d	c3		 ret	 0
?_Mapsize@?$deque@UPoint@@V?$allocator@UPoint@@@std@@@std@@AEAAAEA_KXZ ENDP ; std::deque<Point,std::allocator<Point> >::_Mapsize
_TEXT	ENDS
; Function compile flags: /Odtp /RTCsu
; File C:\Program Files (x86)\Microsoft Visual Studio\2019\Community\VC\Tools\MSVC\14.29.30037\include\deque
;	COMDAT ?_Map@?$deque@UPoint@@V?$allocator@UPoint@@@std@@@std@@AEAAAEAPEAPEAUPoint@@XZ
_TEXT	SEGMENT
this$ = 48
?_Map@?$deque@UPoint@@V?$allocator@UPoint@@@std@@@std@@AEAAAEAPEAPEAUPoint@@XZ PROC ; std::deque<Point,std::allocator<Point> >::_Map, COMDAT

; 1546 :     _Mapptr& _Map() noexcept {

$LN3:
  00000	48 89 4c 24 08	 mov	 QWORD PTR [rsp+8], rcx
  00005	57		 push	 rdi
  00006	48 83 ec 20	 sub	 rsp, 32			; 00000020H

; 1547 :         return _Get_data()._Map;

  0000a	48 8b 4c 24 30	 mov	 rcx, QWORD PTR this$[rsp]
  0000f	e8 00 00 00 00	 call	 ?_Get_data@?$deque@UPoint@@V?$allocator@UPoint@@@std@@@std@@AEAAAEAV?$_Deque_val@U?$_Deque_simple_types@UPoint@@@std@@@2@XZ ; std::deque<Point,std::allocator<Point> >::_Get_data
  00014	48 83 c0 08	 add	 rax, 8

; 1548 :     }

  00018	48 83 c4 20	 add	 rsp, 32			; 00000020H
  0001c	5f		 pop	 rdi
  0001d	c3		 ret	 0
?_Map@?$deque@UPoint@@V?$allocator@UPoint@@@std@@@std@@AEAAAEAPEAPEAUPoint@@XZ ENDP ; std::deque<Point,std::allocator<Point> >::_Map
_TEXT	ENDS
; Function compile flags: /Odtp /RTCsu
; File C:\Program Files (x86)\Microsoft Visual Studio\2019\Community\VC\Tools\MSVC\14.29.30037\include\deque
;	COMDAT ?_Get_data@?$deque@UPoint@@V?$allocator@UPoint@@@std@@@std@@AEBAAEBV?$_Deque_val@U?$_Deque_simple_types@UPoint@@@std@@@2@XZ
_TEXT	SEGMENT
this$ = 16
?_Get_data@?$deque@UPoint@@V?$allocator@UPoint@@@std@@@std@@AEBAAEBV?$_Deque_val@U?$_Deque_simple_types@UPoint@@@std@@@2@XZ PROC ; std::deque<Point,std::allocator<Point> >::_Get_data, COMDAT

; 1542 :     const _Scary_val& _Get_data() const noexcept {

$LN3:
  00000	48 89 4c 24 08	 mov	 QWORD PTR [rsp+8], rcx
  00005	57		 push	 rdi

; 1543 :         return _Mypair._Myval2;

  00006	48 8b 44 24 10	 mov	 rax, QWORD PTR this$[rsp]

; 1544 :     }

  0000b	5f		 pop	 rdi
  0000c	c3		 ret	 0
?_Get_data@?$deque@UPoint@@V?$allocator@UPoint@@@std@@@std@@AEBAAEBV?$_Deque_val@U?$_Deque_simple_types@UPoint@@@std@@@2@XZ ENDP ; std::deque<Point,std::allocator<Point> >::_Get_data
_TEXT	ENDS
; Function compile flags: /Odtp /RTCsu
; File C:\Program Files (x86)\Microsoft Visual Studio\2019\Community\VC\Tools\MSVC\14.29.30037\include\deque
;	COMDAT ?_Get_data@?$deque@UPoint@@V?$allocator@UPoint@@@std@@@std@@AEAAAEAV?$_Deque_val@U?$_Deque_simple_types@UPoint@@@std@@@2@XZ
_TEXT	SEGMENT
this$ = 16
?_Get_data@?$deque@UPoint@@V?$allocator@UPoint@@@std@@@std@@AEAAAEAV?$_Deque_val@U?$_Deque_simple_types@UPoint@@@std@@@2@XZ PROC ; std::deque<Point,std::allocator<Point> >::_Get_data, COMDAT

; 1538 :     _Scary_val& _Get_data() noexcept {

$LN3:
  00000	48 89 4c 24 08	 mov	 QWORD PTR [rsp+8], rcx
  00005	57		 push	 rdi

; 1539 :         return _Mypair._Myval2;

  00006	48 8b 44 24 10	 mov	 rax, QWORD PTR this$[rsp]

; 1540 :     }

  0000b	5f		 pop	 rdi
  0000c	c3		 ret	 0
?_Get_data@?$deque@UPoint@@V?$allocator@UPoint@@@std@@@std@@AEAAAEAV?$_Deque_val@U?$_Deque_simple_types@UPoint@@@std@@@2@XZ ENDP ; std::deque<Point,std::allocator<Point> >::_Get_data
_TEXT	ENDS
; Function compile flags: /Odtp /RTCsu
; File C:\Program Files (x86)\Microsoft Visual Studio\2019\Community\VC\Tools\MSVC\14.29.30037\include\deque
;	COMDAT ?_Getal@?$deque@UPoint@@V?$allocator@UPoint@@@std@@@std@@AEBAAEBV?$allocator@UPoint@@@2@XZ
_TEXT	SEGMENT
this$ = 48
?_Getal@?$deque@UPoint@@V?$allocator@UPoint@@@std@@@std@@AEBAAEBV?$allocator@UPoint@@@2@XZ PROC ; std::deque<Point,std::allocator<Point> >::_Getal, COMDAT

; 1534 :     const _Alty& _Getal() const noexcept {

$LN3:
  00000	48 89 4c 24 08	 mov	 QWORD PTR [rsp+8], rcx
  00005	57		 push	 rdi
  00006	48 83 ec 20	 sub	 rsp, 32			; 00000020H

; 1535 :         return _Mypair._Get_first();

  0000a	48 8b 44 24 30	 mov	 rax, QWORD PTR this$[rsp]
  0000f	48 8b c8	 mov	 rcx, rax
  00012	e8 00 00 00 00	 call	 ?_Get_first@?$_Compressed_pair@V?$allocator@UPoint@@@std@@V?$_Deque_val@U?$_Deque_simple_types@UPoint@@@std@@@2@$00@std@@QEBAAEBV?$allocator@UPoint@@@2@XZ ; std::_Compressed_pair<std::allocator<Point>,std::_Deque_val<std::_Deque_simple_types<Point> >,1>::_Get_first

; 1536 :     }

  00017	48 83 c4 20	 add	 rsp, 32			; 00000020H
  0001b	5f		 pop	 rdi
  0001c	c3		 ret	 0
?_Getal@?$deque@UPoint@@V?$allocator@UPoint@@@std@@@std@@AEBAAEBV?$allocator@UPoint@@@2@XZ ENDP ; std::deque<Point,std::allocator<Point> >::_Getal
_TEXT	ENDS
; Function compile flags: /Odtp /RTCsu
; File C:\Program Files (x86)\Microsoft Visual Studio\2019\Community\VC\Tools\MSVC\14.29.30037\include\deque
;	COMDAT ?_Getal@?$deque@UPoint@@V?$allocator@UPoint@@@std@@@std@@AEAAAEAV?$allocator@UPoint@@@2@XZ
_TEXT	SEGMENT
this$ = 48
?_Getal@?$deque@UPoint@@V?$allocator@UPoint@@@std@@@std@@AEAAAEAV?$allocator@UPoint@@@2@XZ PROC ; std::deque<Point,std::allocator<Point> >::_Getal, COMDAT

; 1530 :     _Alty& _Getal() noexcept {

$LN3:
  00000	48 89 4c 24 08	 mov	 QWORD PTR [rsp+8], rcx
  00005	57		 push	 rdi
  00006	48 83 ec 20	 sub	 rsp, 32			; 00000020H

; 1531 :         return _Mypair._Get_first();

  0000a	48 8b 44 24 30	 mov	 rax, QWORD PTR this$[rsp]
  0000f	48 8b c8	 mov	 rcx, rax
  00012	e8 00 00 00 00	 call	 ?_Get_first@?$_Compressed_pair@V?$allocator@UPoint@@@std@@V?$_Deque_val@U?$_Deque_simple_types@UPoint@@@std@@@2@$00@std@@QEAAAEAV?$allocator@UPoint@@@2@XZ ; std::_Compressed_pair<std::allocator<Point>,std::_Deque_val<std::_Deque_simple_types<Point> >,1>::_Get_first

; 1532 :     }

  00017	48 83 c4 20	 add	 rsp, 32			; 00000020H
  0001b	5f		 pop	 rdi
  0001c	c3		 ret	 0
?_Getal@?$deque@UPoint@@V?$allocator@UPoint@@@std@@@std@@AEAAAEAV?$allocator@UPoint@@@2@XZ ENDP ; std::deque<Point,std::allocator<Point> >::_Getal
_TEXT	ENDS
; Function compile flags: /Odtp /RTCsu
; File C:\Program Files (x86)\Microsoft Visual Studio\2019\Community\VC\Tools\MSVC\14.29.30037\include\deque
;	COMDAT ?_Orphan_all@?$deque@UPoint@@V?$allocator@UPoint@@@std@@@std@@AEAAXXZ
_TEXT	SEGMENT
this$ = 48
?_Orphan_all@?$deque@UPoint@@V?$allocator@UPoint@@@std@@@std@@AEAAXXZ PROC ; std::deque<Point,std::allocator<Point> >::_Orphan_all, COMDAT

; 1526 :     void _Orphan_all() noexcept {

$LN3:
  00000	48 89 4c 24 08	 mov	 QWORD PTR [rsp+8], rcx
  00005	57		 push	 rdi
  00006	48 83 ec 20	 sub	 rsp, 32			; 00000020H

; 1527 :         _Get_data()._Orphan_all();

  0000a	48 8b 4c 24 30	 mov	 rcx, QWORD PTR this$[rsp]
  0000f	e8 00 00 00 00	 call	 ?_Get_data@?$deque@UPoint@@V?$allocator@UPoint@@@std@@@std@@AEAAAEAV?$_Deque_val@U?$_Deque_simple_types@UPoint@@@std@@@2@XZ ; std::deque<Point,std::allocator<Point> >::_Get_data
  00014	48 8b c8	 mov	 rcx, rax
  00017	e8 00 00 00 00	 call	 ?_Orphan_all@_Container_base12@std@@QEAAXXZ ; std::_Container_base12::_Orphan_all

; 1528 :     }

  0001c	48 83 c4 20	 add	 rsp, 32			; 00000020H
  00020	5f		 pop	 rdi
  00021	c3		 ret	 0
?_Orphan_all@?$deque@UPoint@@V?$allocator@UPoint@@@std@@@std@@AEAAXXZ ENDP ; std::deque<Point,std::allocator<Point> >::_Orphan_all
_TEXT	ENDS
; Function compile flags: /Odtp /RTCsu
; File C:\Program Files (x86)\Microsoft Visual Studio\2019\Community\VC\Tools\MSVC\14.29.30037\include\deque
;	COMDAT ?_Getblock@?$deque@UPoint@@V?$allocator@UPoint@@@std@@@std@@AEBA_K_K@Z
_TEXT	SEGMENT
this$ = 48
_Off$ = 56
?_Getblock@?$deque@UPoint@@V?$allocator@UPoint@@@std@@@std@@AEBA_K_K@Z PROC ; std::deque<Point,std::allocator<Point> >::_Getblock, COMDAT

; 1522 :     size_type _Getblock(size_type _Off) const noexcept {

$LN3:
  00000	48 89 54 24 10	 mov	 QWORD PTR [rsp+16], rdx
  00005	48 89 4c 24 08	 mov	 QWORD PTR [rsp+8], rcx
  0000a	57		 push	 rdi
  0000b	48 83 ec 20	 sub	 rsp, 32			; 00000020H

; 1523 :         return _Get_data()._Getblock(_Off);

  0000f	48 8b 4c 24 30	 mov	 rcx, QWORD PTR this$[rsp]
  00014	e8 00 00 00 00	 call	 ?_Get_data@?$deque@UPoint@@V?$allocator@UPoint@@@std@@@std@@AEBAAEBV?$_Deque_val@U?$_Deque_simple_types@UPoint@@@std@@@2@XZ ; std::deque<Point,std::allocator<Point> >::_Get_data
  00019	48 8b 54 24 38	 mov	 rdx, QWORD PTR _Off$[rsp]
  0001e	48 8b c8	 mov	 rcx, rax
  00021	e8 00 00 00 00	 call	 ?_Getblock@?$_Deque_val@U?$_Deque_simple_types@UPoint@@@std@@@std@@QEBA_K_K@Z ; std::_Deque_val<std::_Deque_simple_types<Point> >::_Getblock

; 1524 :     }

  00026	48 83 c4 20	 add	 rsp, 32			; 00000020H
  0002a	5f		 pop	 rdi
  0002b	c3		 ret	 0
?_Getblock@?$deque@UPoint@@V?$allocator@UPoint@@@std@@@std@@AEBA_K_K@Z ENDP ; std::deque<Point,std::allocator<Point> >::_Getblock
_TEXT	ENDS
; Function compile flags: /Odtp /RTCsu
; File C:\Program Files (x86)\Microsoft Visual Studio\2019\Community\VC\Tools\MSVC\14.29.30037\include\deque
;	COMDAT ?_Orphan_off@?$deque@UPoint@@V?$allocator@UPoint@@@std@@@std@@AEBAX_K@Z
_TEXT	SEGMENT
_Offhigh$ = 32
_Lock$ = 52
_Pnext$ = 72
_Pnextoff$4 = 80
tv65 = 88
tv71 = 96
this$ = 128
_Offlo$ = 136
?_Orphan_off@?$deque@UPoint@@V?$allocator@UPoint@@@std@@@std@@AEBAX_K@Z PROC ; std::deque<Point,std::allocator<Point> >::_Orphan_off, COMDAT

; 1502 :     void _Orphan_off(size_type _Offlo) const noexcept { // orphan iterators with specified offset(s)

$LN11:
  00000	48 89 54 24 10	 mov	 QWORD PTR [rsp+16], rdx
  00005	48 89 4c 24 08	 mov	 QWORD PTR [rsp+8], rcx
  0000a	57		 push	 rdi
  0000b	48 83 ec 70	 sub	 rsp, 112		; 00000070H
  0000f	48 8d 7c 24 20	 lea	 rdi, QWORD PTR [rsp+32]
  00014	b9 14 00 00 00	 mov	 ecx, 20
  00019	b8 cc cc cc cc	 mov	 eax, -858993460		; ccccccccH
  0001e	f3 ab		 rep stosd
  00020	48 8b 8c 24 80
	00 00 00	 mov	 rcx, QWORD PTR [rsp+128]

; 1503 :         size_type _Offhigh = _Myoff() + _Mysize() <= _Offlo + 1 ? static_cast<size_type>(-1) : _Offlo;

  00028	48 8b 8c 24 80
	00 00 00	 mov	 rcx, QWORD PTR this$[rsp]
  00030	e8 00 00 00 00	 call	 ?_Myoff@?$deque@UPoint@@V?$allocator@UPoint@@@std@@@std@@AEBAAEB_KXZ ; std::deque<Point,std::allocator<Point> >::_Myoff
  00035	48 89 44 24 58	 mov	 QWORD PTR tv65[rsp], rax
  0003a	48 8b 8c 24 80
	00 00 00	 mov	 rcx, QWORD PTR this$[rsp]
  00042	e8 00 00 00 00	 call	 ?_Mysize@?$deque@UPoint@@V?$allocator@UPoint@@@std@@@std@@AEBAAEB_KXZ ; std::deque<Point,std::allocator<Point> >::_Mysize
  00047	48 8b 4c 24 58	 mov	 rcx, QWORD PTR tv65[rsp]
  0004c	48 8b 09	 mov	 rcx, QWORD PTR [rcx]
  0004f	48 03 08	 add	 rcx, QWORD PTR [rax]
  00052	48 8b c1	 mov	 rax, rcx
  00055	48 8b 8c 24 88
	00 00 00	 mov	 rcx, QWORD PTR _Offlo$[rsp]
  0005d	48 ff c1	 inc	 rcx
  00060	48 3b c1	 cmp	 rax, rcx
  00063	77 0b		 ja	 SHORT $LN9@Orphan_off
  00065	48 c7 44 24 60
	ff ff ff ff	 mov	 QWORD PTR tv71[rsp], -1
  0006e	eb 0d		 jmp	 SHORT $LN10@Orphan_off
$LN9@Orphan_off:
  00070	48 8b 84 24 88
	00 00 00	 mov	 rax, QWORD PTR _Offlo$[rsp]
  00078	48 89 44 24 60	 mov	 QWORD PTR tv71[rsp], rax
$LN10@Orphan_off:
  0007d	48 8b 44 24 60	 mov	 rax, QWORD PTR tv71[rsp]
  00082	48 89 44 24 20	 mov	 QWORD PTR _Offhigh$[rsp], rax

; 1504 :         if (_Offlo == _Myoff()) {

  00087	48 8b 8c 24 80
	00 00 00	 mov	 rcx, QWORD PTR this$[rsp]
  0008f	e8 00 00 00 00	 call	 ?_Myoff@?$deque@UPoint@@V?$allocator@UPoint@@@std@@@std@@AEBAAEB_KXZ ; std::deque<Point,std::allocator<Point> >::_Myoff
  00094	48 8b 00	 mov	 rax, QWORD PTR [rax]
  00097	48 39 84 24 88
	00 00 00	 cmp	 QWORD PTR _Offlo$[rsp], rax
  0009f	75 0c		 jne	 SHORT $LN4@Orphan_off

; 1505 :             _Offlo = 0;

  000a1	48 c7 84 24 88
	00 00 00 00 00
	00 00		 mov	 QWORD PTR _Offlo$[rsp], 0
$LN4@Orphan_off:

; 1506 :         }
; 1507 : 
; 1508 :         _Lockit _Lock(_LOCK_DEBUG);

  000ad	ba 03 00 00 00	 mov	 edx, 3
  000b2	48 8d 4c 24 34	 lea	 rcx, QWORD PTR _Lock$[rsp]
  000b7	ff 15 00 00 00
	00		 call	 QWORD PTR __imp_??0_Lockit@std@@QEAA@H@Z

; 1509 :         _Iterator_base12** _Pnext = &_Get_data()._Myproxy->_Myfirstiter;

  000bd	48 8b 8c 24 80
	00 00 00	 mov	 rcx, QWORD PTR this$[rsp]
  000c5	e8 00 00 00 00	 call	 ?_Get_data@?$deque@UPoint@@V?$allocator@UPoint@@@std@@@std@@AEBAAEBV?$_Deque_val@U?$_Deque_simple_types@UPoint@@@std@@@2@XZ ; std::deque<Point,std::allocator<Point> >::_Get_data
  000ca	48 8b 00	 mov	 rax, QWORD PTR [rax]
  000cd	48 83 c0 08	 add	 rax, 8
  000d1	48 89 44 24 48	 mov	 QWORD PTR _Pnext$[rsp], rax
$LN2@Orphan_off:

; 1510 :         while (*_Pnext) {

  000d6	48 8b 44 24 48	 mov	 rax, QWORD PTR _Pnext$[rsp]
  000db	48 83 38 00	 cmp	 QWORD PTR [rax], 0
  000df	74 64		 je	 SHORT $LN3@Orphan_off

; 1511 :             const auto _Pnextoff = static_cast<const_iterator&>(**_Pnext)._Myoff;

  000e1	48 8b 44 24 48	 mov	 rax, QWORD PTR _Pnext$[rsp]
  000e6	48 8b 00	 mov	 rax, QWORD PTR [rax]
  000e9	48 8b 40 10	 mov	 rax, QWORD PTR [rax+16]
  000ed	48 89 44 24 50	 mov	 QWORD PTR _Pnextoff$4[rsp], rax

; 1512 :             if (_Pnextoff < _Offlo || _Offhigh < _Pnextoff) {

  000f2	48 8b 84 24 88
	00 00 00	 mov	 rax, QWORD PTR _Offlo$[rsp]
  000fa	48 39 44 24 50	 cmp	 QWORD PTR _Pnextoff$4[rsp], rax
  000ff	72 0c		 jb	 SHORT $LN7@Orphan_off
  00101	48 8b 44 24 50	 mov	 rax, QWORD PTR _Pnextoff$4[rsp]
  00106	48 39 44 24 20	 cmp	 QWORD PTR _Offhigh$[rsp], rax
  0010b	73 13		 jae	 SHORT $LN5@Orphan_off
$LN7@Orphan_off:

; 1513 :                 _Pnext = &(*_Pnext)->_Mynextiter;

  0010d	48 8b 44 24 48	 mov	 rax, QWORD PTR _Pnext$[rsp]
  00112	48 8b 00	 mov	 rax, QWORD PTR [rax]
  00115	48 83 c0 08	 add	 rax, 8
  00119	48 89 44 24 48	 mov	 QWORD PTR _Pnext$[rsp], rax

; 1514 :             } else { // orphan the iterator

  0011e	eb 23		 jmp	 SHORT $LN6@Orphan_off
$LN5@Orphan_off:

; 1515 :                 (*_Pnext)->_Myproxy = nullptr;

  00120	48 8b 44 24 48	 mov	 rax, QWORD PTR _Pnext$[rsp]
  00125	48 8b 00	 mov	 rax, QWORD PTR [rax]
  00128	48 c7 00 00 00
	00 00		 mov	 QWORD PTR [rax], 0

; 1516 :                 *_Pnext             = (*_Pnext)->_Mynextiter;

  0012f	48 8b 44 24 48	 mov	 rax, QWORD PTR _Pnext$[rsp]
  00134	48 8b 00	 mov	 rax, QWORD PTR [rax]
  00137	48 8b 4c 24 48	 mov	 rcx, QWORD PTR _Pnext$[rsp]
  0013c	48 8b 40 08	 mov	 rax, QWORD PTR [rax+8]
  00140	48 89 01	 mov	 QWORD PTR [rcx], rax
$LN6@Orphan_off:

; 1517 :             }
; 1518 :         }

  00143	eb 91		 jmp	 SHORT $LN2@Orphan_off
$LN3@Orphan_off:

; 1519 :     }

  00145	48 8d 4c 24 34	 lea	 rcx, QWORD PTR _Lock$[rsp]
  0014a	ff 15 00 00 00
	00		 call	 QWORD PTR __imp_??1_Lockit@std@@QEAA@XZ
  00150	48 8b cc	 mov	 rcx, rsp
  00153	48 8d 15 00 00
	00 00		 lea	 rdx, OFFSET FLAT:?_Orphan_off@?$deque@UPoint@@V?$allocator@UPoint@@@std@@@std@@AEBAX_K@Z$rtcFrameData
  0015a	e8 00 00 00 00	 call	 _RTC_CheckStackVars
  0015f	48 83 c4 70	 add	 rsp, 112		; 00000070H
  00163	5f		 pop	 rdi
  00164	c3		 ret	 0
?_Orphan_off@?$deque@UPoint@@V?$allocator@UPoint@@@std@@@std@@AEBAX_K@Z ENDP ; std::deque<Point,std::allocator<Point> >::_Orphan_off
_TEXT	ENDS
; Function compile flags: /Odtp /RTCsu
; File C:\Program Files (x86)\Microsoft Visual Studio\2019\Community\VC\Tools\MSVC\14.29.30037\include\deque
;	COMDAT ?_Tidy@?$deque@UPoint@@V?$allocator@UPoint@@@std@@@std@@AEAAXXZ
_TEXT	SEGMENT
_Almap$ = 36
_Block$4 = 56
tv144 = 64
tv134 = 72
this$ = 96
?_Tidy@?$deque@UPoint@@V?$allocator@UPoint@@@std@@@std@@AEAAXXZ PROC ; std::deque<Point,std::allocator<Point> >::_Tidy, COMDAT

; 1478 :     void _Tidy() noexcept { // free all storage

$LN10:
  00000	48 89 4c 24 08	 mov	 QWORD PTR [rsp+8], rcx
  00005	57		 push	 rdi
  00006	48 83 ec 50	 sub	 rsp, 80			; 00000050H
  0000a	48 8d 7c 24 20	 lea	 rdi, QWORD PTR [rsp+32]
  0000f	b9 0c 00 00 00	 mov	 ecx, 12
  00014	b8 cc cc cc cc	 mov	 eax, -858993460		; ccccccccH
  00019	f3 ab		 rep stosd
  0001b	48 8b 4c 24 60	 mov	 rcx, QWORD PTR [rsp+96]

; 1479 :         _Orphan_all();

  00020	48 8b 4c 24 60	 mov	 rcx, QWORD PTR this$[rsp]
  00025	e8 00 00 00 00	 call	 ?_Orphan_all@?$deque@UPoint@@V?$allocator@UPoint@@@std@@@std@@AEAAXXZ ; std::deque<Point,std::allocator<Point> >::_Orphan_all

; 1480 : 
; 1481 :         _Alpty _Almap(_Getal());

  0002a	48 8b 4c 24 60	 mov	 rcx, QWORD PTR this$[rsp]
  0002f	e8 00 00 00 00	 call	 ?_Getal@?$deque@UPoint@@V?$allocator@UPoint@@@std@@@std@@AEAAAEAV?$allocator@UPoint@@@2@XZ ; std::deque<Point,std::allocator<Point> >::_Getal
  00034	48 8b d0	 mov	 rdx, rax
  00037	48 8d 4c 24 24	 lea	 rcx, QWORD PTR _Almap$[rsp]
  0003c	e8 00 00 00 00	 call	 ??$?0UPoint@@@?$allocator@PEAUPoint@@@std@@QEAA@AEBV?$allocator@UPoint@@@1@@Z ; std::allocator<Point *>::allocator<Point *><Point>
$LN2@Tidy:

; 1482 :         while (!empty()) {

  00041	48 8b 4c 24 60	 mov	 rcx, QWORD PTR this$[rsp]
  00046	e8 00 00 00 00	 call	 ?empty@?$deque@UPoint@@V?$allocator@UPoint@@@std@@@std@@QEBA_NXZ ; std::deque<Point,std::allocator<Point> >::empty
  0004b	0f b6 c0	 movzx	 eax, al
  0004e	85 c0		 test	 eax, eax
  00050	75 0c		 jne	 SHORT $LN3@Tidy

; 1483 :             pop_back();

  00052	48 8b 4c 24 60	 mov	 rcx, QWORD PTR this$[rsp]
  00057	e8 00 00 00 00	 call	 ?pop_back@?$deque@UPoint@@V?$allocator@UPoint@@@std@@@std@@QEAAXXZ ; std::deque<Point,std::allocator<Point> >::pop_back

; 1484 :         }

  0005c	eb e3		 jmp	 SHORT $LN2@Tidy
$LN3@Tidy:

; 1485 : 
; 1486 :         for (size_type _Block = _Mapsize(); 0 < _Block;) { // free storage for a block and destroy pointer

  0005e	48 8b 4c 24 60	 mov	 rcx, QWORD PTR this$[rsp]
  00063	e8 00 00 00 00	 call	 ?_Mapsize@?$deque@UPoint@@V?$allocator@UPoint@@@std@@@std@@AEAAAEA_KXZ ; std::deque<Point,std::allocator<Point> >::_Mapsize
  00068	48 8b 00	 mov	 rax, QWORD PTR [rax]
  0006b	48 89 44 24 38	 mov	 QWORD PTR _Block$4[rsp], rax
$LN4@Tidy:
  00070	48 83 7c 24 38
	00		 cmp	 QWORD PTR _Block$4[rsp], 0
  00076	0f 86 81 00 00
	00		 jbe	 $LN5@Tidy

; 1487 :             if (_Map()[--_Block]) { // free block and destroy its pointer

  0007c	48 8b 44 24 38	 mov	 rax, QWORD PTR _Block$4[rsp]
  00081	48 ff c8	 dec	 rax
  00084	48 89 44 24 38	 mov	 QWORD PTR _Block$4[rsp], rax
  00089	48 8b 4c 24 60	 mov	 rcx, QWORD PTR this$[rsp]
  0008e	e8 00 00 00 00	 call	 ?_Map@?$deque@UPoint@@V?$allocator@UPoint@@@std@@@std@@AEAAAEAPEAPEAUPoint@@XZ ; std::deque<Point,std::allocator<Point> >::_Map
  00093	48 8b 00	 mov	 rax, QWORD PTR [rax]
  00096	48 8b 4c 24 38	 mov	 rcx, QWORD PTR _Block$4[rsp]
  0009b	48 83 3c c8 00	 cmp	 QWORD PTR [rax+rcx*8], 0
  000a0	74 56		 je	 SHORT $LN7@Tidy

; 1488 :                 _Getal().deallocate(_Map()[_Block], _Block_size);

  000a2	48 8b 4c 24 60	 mov	 rcx, QWORD PTR this$[rsp]
  000a7	e8 00 00 00 00	 call	 ?_Map@?$deque@UPoint@@V?$allocator@UPoint@@@std@@@std@@AEAAAEAPEAPEAUPoint@@XZ ; std::deque<Point,std::allocator<Point> >::_Map
  000ac	48 8b 00	 mov	 rax, QWORD PTR [rax]
  000af	48 89 44 24 40	 mov	 QWORD PTR tv144[rsp], rax
  000b4	48 8b 4c 24 60	 mov	 rcx, QWORD PTR this$[rsp]
  000b9	e8 00 00 00 00	 call	 ?_Getal@?$deque@UPoint@@V?$allocator@UPoint@@@std@@@std@@AEAAAEAV?$allocator@UPoint@@@2@XZ ; std::deque<Point,std::allocator<Point> >::_Getal
  000be	41 b8 02 00 00
	00		 mov	 r8d, 2
  000c4	48 8b 4c 24 38	 mov	 rcx, QWORD PTR _Block$4[rsp]
  000c9	48 8b 54 24 40	 mov	 rdx, QWORD PTR tv144[rsp]
  000ce	48 8b 14 ca	 mov	 rdx, QWORD PTR [rdx+rcx*8]
  000d2	48 8b c8	 mov	 rcx, rax
  000d5	e8 00 00 00 00	 call	 ?deallocate@?$allocator@UPoint@@@std@@QEAAXQEAUPoint@@_K@Z ; std::allocator<Point>::deallocate

; 1489 :                 _Destroy_in_place(_Map()[_Block]);

  000da	48 8b 4c 24 60	 mov	 rcx, QWORD PTR this$[rsp]
  000df	e8 00 00 00 00	 call	 ?_Map@?$deque@UPoint@@V?$allocator@UPoint@@@std@@@std@@AEAAAEAPEAPEAUPoint@@XZ ; std::deque<Point,std::allocator<Point> >::_Map
  000e4	48 8b 00	 mov	 rax, QWORD PTR [rax]
  000e7	48 8b 4c 24 38	 mov	 rcx, QWORD PTR _Block$4[rsp]
  000ec	48 8d 04 c8	 lea	 rax, QWORD PTR [rax+rcx*8]
  000f0	48 8b c8	 mov	 rcx, rax
  000f3	e8 00 00 00 00	 call	 ??$_Destroy_in_place@PEAUPoint@@@std@@YAXAEAPEAUPoint@@@Z ; std::_Destroy_in_place<Point *>
$LN7@Tidy:

; 1490 :             }
; 1491 :         }

  000f8	e9 73 ff ff ff	 jmp	 $LN4@Tidy
$LN5@Tidy:

; 1492 : 
; 1493 :         if (_Map() != _Mapptr()) {

  000fd	48 8b 4c 24 60	 mov	 rcx, QWORD PTR this$[rsp]
  00102	e8 00 00 00 00	 call	 ?_Map@?$deque@UPoint@@V?$allocator@UPoint@@@std@@@std@@AEAAAEAPEAPEAUPoint@@XZ ; std::deque<Point,std::allocator<Point> >::_Map
  00107	48 83 38 00	 cmp	 QWORD PTR [rax], 0
  0010b	74 2e		 je	 SHORT $LN8@Tidy

; 1494 :             _Almap.deallocate(_Map(), _Mapsize()); // free storage for map

  0010d	48 8b 4c 24 60	 mov	 rcx, QWORD PTR this$[rsp]
  00112	e8 00 00 00 00	 call	 ?_Mapsize@?$deque@UPoint@@V?$allocator@UPoint@@@std@@@std@@AEAAAEA_KXZ ; std::deque<Point,std::allocator<Point> >::_Mapsize
  00117	48 89 44 24 48	 mov	 QWORD PTR tv134[rsp], rax
  0011c	48 8b 4c 24 60	 mov	 rcx, QWORD PTR this$[rsp]
  00121	e8 00 00 00 00	 call	 ?_Map@?$deque@UPoint@@V?$allocator@UPoint@@@std@@@std@@AEAAAEAPEAPEAUPoint@@XZ ; std::deque<Point,std::allocator<Point> >::_Map
  00126	48 8b 4c 24 48	 mov	 rcx, QWORD PTR tv134[rsp]
  0012b	4c 8b 01	 mov	 r8, QWORD PTR [rcx]
  0012e	48 8b 10	 mov	 rdx, QWORD PTR [rax]
  00131	48 8d 4c 24 24	 lea	 rcx, QWORD PTR _Almap$[rsp]
  00136	e8 00 00 00 00	 call	 ?deallocate@?$allocator@PEAUPoint@@@std@@QEAAXQEAPEAUPoint@@_K@Z ; std::allocator<Point *>::deallocate
$LN8@Tidy:

; 1495 :         }
; 1496 : 
; 1497 :         _Mapsize() = 0;

  0013b	48 8b 4c 24 60	 mov	 rcx, QWORD PTR this$[rsp]
  00140	e8 00 00 00 00	 call	 ?_Mapsize@?$deque@UPoint@@V?$allocator@UPoint@@@std@@@std@@AEAAAEA_KXZ ; std::deque<Point,std::allocator<Point> >::_Mapsize
  00145	48 c7 00 00 00
	00 00		 mov	 QWORD PTR [rax], 0

; 1498 :         _Map()     = _Mapptr();

  0014c	48 8b 4c 24 60	 mov	 rcx, QWORD PTR this$[rsp]
  00151	e8 00 00 00 00	 call	 ?_Map@?$deque@UPoint@@V?$allocator@UPoint@@@std@@@std@@AEAAAEAPEAPEAUPoint@@XZ ; std::deque<Point,std::allocator<Point> >::_Map
  00156	48 c7 00 00 00
	00 00		 mov	 QWORD PTR [rax], 0

; 1499 :     }

  0015d	48 8b cc	 mov	 rcx, rsp
  00160	48 8d 15 00 00
	00 00		 lea	 rdx, OFFSET FLAT:?_Tidy@?$deque@UPoint@@V?$allocator@UPoint@@@std@@@std@@AEAAXXZ$rtcFrameData
  00167	e8 00 00 00 00	 call	 _RTC_CheckStackVars
  0016c	90		 npad	 1
  0016d	48 83 c4 50	 add	 rsp, 80			; 00000050H
  00171	5f		 pop	 rdi
  00172	c3		 ret	 0
?_Tidy@?$deque@UPoint@@V?$allocator@UPoint@@@std@@@std@@AEAAXXZ ENDP ; std::deque<Point,std::allocator<Point> >::_Tidy
_TEXT	ENDS
; Function compile flags: /Odtp /RTCsu
; File C:\Program Files (x86)\Microsoft Visual Studio\2019\Community\VC\Tools\MSVC\14.29.30037\include\deque
;	COMDAT ?_Growmap@?$deque@UPoint@@V?$allocator@UPoint@@@std@@@std@@AEAAX_K@Z
_TEXT	SEGMENT
_Almap$ = 36
_Newsize$ = 56
_Myboff$ = 64
_Newmap$ = 72
_Myptr$ = 80
tv73 = 88
tv138 = 96
tv142 = 104
tv155 = 112
tv170 = 120
tv179 = 128
tv189 = 136
tv193 = 144
tv205 = 152
tv214 = 160
this$ = 192
_Count$ = 200
?_Growmap@?$deque@UPoint@@V?$allocator@UPoint@@@std@@@std@@AEAAX_K@Z PROC ; std::deque<Point,std::allocator<Point> >::_Growmap, COMDAT

; 1439 :     void _Growmap(size_type _Count) { // grow map by at least _Count pointers, _Mapsize() a power of 2

$LN12:
  00000	48 89 54 24 10	 mov	 QWORD PTR [rsp+16], rdx
  00005	48 89 4c 24 08	 mov	 QWORD PTR [rsp+8], rcx
  0000a	57		 push	 rdi
  0000b	48 81 ec b0 00
	00 00		 sub	 rsp, 176		; 000000b0H
  00012	48 8d 7c 24 20	 lea	 rdi, QWORD PTR [rsp+32]
  00017	b9 24 00 00 00	 mov	 ecx, 36			; 00000024H
  0001c	b8 cc cc cc cc	 mov	 eax, -858993460		; ccccccccH
  00021	f3 ab		 rep stosd
  00023	48 8b 8c 24 c0
	00 00 00	 mov	 rcx, QWORD PTR [rsp+192]

; 1440 :         static_assert(1 < _Minimum_map_size, "The _Xlen() test should always be performed.");
; 1441 : 
; 1442 :         _Alpty _Almap(_Getal());

  0002b	48 8b 8c 24 c0
	00 00 00	 mov	 rcx, QWORD PTR this$[rsp]
  00033	e8 00 00 00 00	 call	 ?_Getal@?$deque@UPoint@@V?$allocator@UPoint@@@std@@@std@@AEAAAEAV?$allocator@UPoint@@@2@XZ ; std::deque<Point,std::allocator<Point> >::_Getal
  00038	48 8b d0	 mov	 rdx, rax
  0003b	48 8d 4c 24 24	 lea	 rcx, QWORD PTR _Almap$[rsp]
  00040	e8 00 00 00 00	 call	 ??$?0UPoint@@@?$allocator@PEAUPoint@@@std@@QEAA@AEBV?$allocator@UPoint@@@1@@Z ; std::allocator<Point *>::allocator<Point *><Point>

; 1443 :         size_type _Newsize = 0 < _Mapsize() ? _Mapsize() : 1;

  00045	48 8b 8c 24 c0
	00 00 00	 mov	 rcx, QWORD PTR this$[rsp]
  0004d	e8 00 00 00 00	 call	 ?_Mapsize@?$deque@UPoint@@V?$allocator@UPoint@@@std@@@std@@AEAAAEA_KXZ ; std::deque<Point,std::allocator<Point> >::_Mapsize
  00052	48 83 38 00	 cmp	 QWORD PTR [rax], 0
  00056	76 17		 jbe	 SHORT $LN10@Growmap
  00058	48 8b 8c 24 c0
	00 00 00	 mov	 rcx, QWORD PTR this$[rsp]
  00060	e8 00 00 00 00	 call	 ?_Mapsize@?$deque@UPoint@@V?$allocator@UPoint@@@std@@@std@@AEAAAEA_KXZ ; std::deque<Point,std::allocator<Point> >::_Mapsize
  00065	48 8b 00	 mov	 rax, QWORD PTR [rax]
  00068	48 89 44 24 58	 mov	 QWORD PTR tv73[rsp], rax
  0006d	eb 09		 jmp	 SHORT $LN11@Growmap
$LN10@Growmap:
  0006f	48 c7 44 24 58
	01 00 00 00	 mov	 QWORD PTR tv73[rsp], 1
$LN11@Growmap:
  00078	48 8b 44 24 58	 mov	 rax, QWORD PTR tv73[rsp]
  0007d	48 89 44 24 38	 mov	 QWORD PTR _Newsize$[rsp], rax
$LN2@Growmap:

; 1444 :         while (_Newsize - _Mapsize() < _Count || _Newsize < _Minimum_map_size) {

  00082	48 8b 8c 24 c0
	00 00 00	 mov	 rcx, QWORD PTR this$[rsp]
  0008a	e8 00 00 00 00	 call	 ?_Mapsize@?$deque@UPoint@@V?$allocator@UPoint@@@std@@@std@@AEAAAEA_KXZ ; std::deque<Point,std::allocator<Point> >::_Mapsize
  0008f	48 8b 00	 mov	 rax, QWORD PTR [rax]
  00092	48 8b 4c 24 38	 mov	 rcx, QWORD PTR _Newsize$[rsp]
  00097	48 2b c8	 sub	 rcx, rax
  0009a	48 8b c1	 mov	 rax, rcx
  0009d	48 3b 84 24 c8
	00 00 00	 cmp	 rax, QWORD PTR _Count$[rsp]
  000a5	72 08		 jb	 SHORT $LN4@Growmap
  000a7	48 83 7c 24 38
	08		 cmp	 QWORD PTR _Newsize$[rsp], 8
  000ad	73 3f		 jae	 SHORT $LN3@Growmap
$LN4@Growmap:

; 1445 :             // scale _Newsize to 2^N >= _Mapsize() + _Count
; 1446 :             if (max_size() / _Block_size - _Newsize < _Newsize) {

  000af	48 8b 8c 24 c0
	00 00 00	 mov	 rcx, QWORD PTR this$[rsp]
  000b7	e8 00 00 00 00	 call	 ?max_size@?$deque@UPoint@@V?$allocator@UPoint@@@std@@@std@@QEBA_KXZ ; std::deque<Point,std::allocator<Point> >::max_size
  000bc	33 d2		 xor	 edx, edx
  000be	b9 02 00 00 00	 mov	 ecx, 2
  000c3	48 f7 f1	 div	 rcx
  000c6	48 2b 44 24 38	 sub	 rax, QWORD PTR _Newsize$[rsp]
  000cb	48 3b 44 24 38	 cmp	 rax, QWORD PTR _Newsize$[rsp]
  000d0	73 0d		 jae	 SHORT $LN5@Growmap

; 1447 :                 _Xlen(); // result too long

  000d2	48 8b 8c 24 c0
	00 00 00	 mov	 rcx, QWORD PTR this$[rsp]
  000da	e8 00 00 00 00	 call	 ?_Xlen@?$deque@UPoint@@V?$allocator@UPoint@@@std@@@std@@AEBAXXZ ; std::deque<Point,std::allocator<Point> >::_Xlen
$LN5@Growmap:

; 1448 :             }
; 1449 : 
; 1450 :             _Newsize *= 2;

  000df	48 8b 44 24 38	 mov	 rax, QWORD PTR _Newsize$[rsp]
  000e4	48 d1 e0	 shl	 rax, 1
  000e7	48 89 44 24 38	 mov	 QWORD PTR _Newsize$[rsp], rax

; 1451 :         }

  000ec	eb 94		 jmp	 SHORT $LN2@Growmap
$LN3@Growmap:

; 1452 :         _Count = _Newsize - _Mapsize();

  000ee	48 8b 8c 24 c0
	00 00 00	 mov	 rcx, QWORD PTR this$[rsp]
  000f6	e8 00 00 00 00	 call	 ?_Mapsize@?$deque@UPoint@@V?$allocator@UPoint@@@std@@@std@@AEAAAEA_KXZ ; std::deque<Point,std::allocator<Point> >::_Mapsize
  000fb	48 8b 00	 mov	 rax, QWORD PTR [rax]
  000fe	48 8b 4c 24 38	 mov	 rcx, QWORD PTR _Newsize$[rsp]
  00103	48 2b c8	 sub	 rcx, rax
  00106	48 8b c1	 mov	 rax, rcx
  00109	48 89 84 24 c8
	00 00 00	 mov	 QWORD PTR _Count$[rsp], rax

; 1453 : 
; 1454 :         size_type _Myboff = _Myoff() / _Block_size;

  00111	48 8b 8c 24 c0
	00 00 00	 mov	 rcx, QWORD PTR this$[rsp]
  00119	e8 00 00 00 00	 call	 ?_Myoff@?$deque@UPoint@@V?$allocator@UPoint@@@std@@@std@@AEAAAEA_KXZ ; std::deque<Point,std::allocator<Point> >::_Myoff
  0011e	33 d2		 xor	 edx, edx
  00120	48 8b 00	 mov	 rax, QWORD PTR [rax]
  00123	b9 02 00 00 00	 mov	 ecx, 2
  00128	48 f7 f1	 div	 rcx
  0012b	48 89 44 24 40	 mov	 QWORD PTR _Myboff$[rsp], rax

; 1455 :         _Mapptr _Newmap   = _Almap.allocate(_Mapsize() + _Count);

  00130	48 8b 8c 24 c0
	00 00 00	 mov	 rcx, QWORD PTR this$[rsp]
  00138	e8 00 00 00 00	 call	 ?_Mapsize@?$deque@UPoint@@V?$allocator@UPoint@@@std@@@std@@AEAAAEA_KXZ ; std::deque<Point,std::allocator<Point> >::_Mapsize
  0013d	48 8b 00	 mov	 rax, QWORD PTR [rax]
  00140	48 03 84 24 c8
	00 00 00	 add	 rax, QWORD PTR _Count$[rsp]
  00148	48 8b d0	 mov	 rdx, rax
  0014b	48 8d 4c 24 24	 lea	 rcx, QWORD PTR _Almap$[rsp]
  00150	e8 00 00 00 00	 call	 ?allocate@?$allocator@PEAUPoint@@@std@@QEAAPEAPEAUPoint@@_K@Z ; std::allocator<Point *>::allocate
  00155	48 89 44 24 48	 mov	 QWORD PTR _Newmap$[rsp], rax

; 1456 :         _Mapptr _Myptr    = _Newmap + _Myboff;

  0015a	48 8b 44 24 48	 mov	 rax, QWORD PTR _Newmap$[rsp]
  0015f	48 8b 4c 24 40	 mov	 rcx, QWORD PTR _Myboff$[rsp]
  00164	48 8d 04 c8	 lea	 rax, QWORD PTR [rax+rcx*8]
  00168	48 89 44 24 50	 mov	 QWORD PTR _Myptr$[rsp], rax

; 1457 : 
; 1458 :         _Myptr = _STD uninitialized_copy(_Map() + _Myboff, _Map() + _Mapsize(), _Myptr); // copy initial to end

  0016d	48 8b 8c 24 c0
	00 00 00	 mov	 rcx, QWORD PTR this$[rsp]
  00175	e8 00 00 00 00	 call	 ?_Map@?$deque@UPoint@@V?$allocator@UPoint@@@std@@@std@@AEAAAEAPEAPEAUPoint@@XZ ; std::deque<Point,std::allocator<Point> >::_Map
  0017a	48 89 44 24 60	 mov	 QWORD PTR tv138[rsp], rax
  0017f	48 8b 8c 24 c0
	00 00 00	 mov	 rcx, QWORD PTR this$[rsp]
  00187	e8 00 00 00 00	 call	 ?_Mapsize@?$deque@UPoint@@V?$allocator@UPoint@@@std@@@std@@AEAAAEA_KXZ ; std::deque<Point,std::allocator<Point> >::_Mapsize
  0018c	48 8b 00	 mov	 rax, QWORD PTR [rax]
  0018f	48 8b 4c 24 60	 mov	 rcx, QWORD PTR tv138[rsp]
  00194	48 8b 09	 mov	 rcx, QWORD PTR [rcx]
  00197	48 8d 04 c1	 lea	 rax, QWORD PTR [rcx+rax*8]
  0019b	48 89 44 24 68	 mov	 QWORD PTR tv142[rsp], rax
  001a0	48 8b 8c 24 c0
	00 00 00	 mov	 rcx, QWORD PTR this$[rsp]
  001a8	e8 00 00 00 00	 call	 ?_Map@?$deque@UPoint@@V?$allocator@UPoint@@@std@@@std@@AEAAAEAPEAPEAUPoint@@XZ ; std::deque<Point,std::allocator<Point> >::_Map
  001ad	48 8b 00	 mov	 rax, QWORD PTR [rax]
  001b0	48 8b 4c 24 40	 mov	 rcx, QWORD PTR _Myboff$[rsp]
  001b5	48 8d 04 c8	 lea	 rax, QWORD PTR [rax+rcx*8]
  001b9	4c 8b 44 24 50	 mov	 r8, QWORD PTR _Myptr$[rsp]
  001be	48 8b 4c 24 68	 mov	 rcx, QWORD PTR tv142[rsp]
  001c3	48 8b d1	 mov	 rdx, rcx
  001c6	48 8b c8	 mov	 rcx, rax
  001c9	e8 00 00 00 00	 call	 ??$uninitialized_copy@PEAPEAUPoint@@PEAPEAU1@@std@@YAPEAPEAUPoint@@QEAPEAU1@0PEAPEAU1@@Z ; std::uninitialized_copy<Point * *,Point * *>
  001ce	48 89 44 24 50	 mov	 QWORD PTR _Myptr$[rsp], rax

; 1459 :         if (_Myboff <= _Count) { // increment greater than offset of initial block

  001d3	48 8b 84 24 c8
	00 00 00	 mov	 rax, QWORD PTR _Count$[rsp]
  001db	48 39 44 24 40	 cmp	 QWORD PTR _Myboff$[rsp], rax
  001e0	77 79		 ja	 SHORT $LN6@Growmap

; 1460 :             _Myptr = _STD uninitialized_copy(_Map(), _Map() + _Myboff, _Myptr); // copy rest of old

  001e2	48 8b 8c 24 c0
	00 00 00	 mov	 rcx, QWORD PTR this$[rsp]
  001ea	e8 00 00 00 00	 call	 ?_Map@?$deque@UPoint@@V?$allocator@UPoint@@@std@@@std@@AEAAAEAPEAPEAUPoint@@XZ ; std::deque<Point,std::allocator<Point> >::_Map
  001ef	48 8b 00	 mov	 rax, QWORD PTR [rax]
  001f2	48 8b 4c 24 40	 mov	 rcx, QWORD PTR _Myboff$[rsp]
  001f7	48 8d 04 c8	 lea	 rax, QWORD PTR [rax+rcx*8]
  001fb	48 89 44 24 70	 mov	 QWORD PTR tv155[rsp], rax
  00200	48 8b 8c 24 c0
	00 00 00	 mov	 rcx, QWORD PTR this$[rsp]
  00208	e8 00 00 00 00	 call	 ?_Map@?$deque@UPoint@@V?$allocator@UPoint@@@std@@@std@@AEAAAEAPEAPEAUPoint@@XZ ; std::deque<Point,std::allocator<Point> >::_Map
  0020d	4c 8b 44 24 50	 mov	 r8, QWORD PTR _Myptr$[rsp]
  00212	48 8b 4c 24 70	 mov	 rcx, QWORD PTR tv155[rsp]
  00217	48 8b d1	 mov	 rdx, rcx
  0021a	48 8b 08	 mov	 rcx, QWORD PTR [rax]
  0021d	e8 00 00 00 00	 call	 ??$uninitialized_copy@PEAPEAUPoint@@PEAPEAU1@@std@@YAPEAPEAUPoint@@QEAPEAU1@0PEAPEAU1@@Z ; std::uninitialized_copy<Point * *,Point * *>
  00222	48 89 44 24 50	 mov	 QWORD PTR _Myptr$[rsp], rax

; 1461 :             _Uninitialized_value_construct_n_unchecked1(_Myptr, _Count - _Myboff); // clear suffix of new

  00227	48 8b 44 24 40	 mov	 rax, QWORD PTR _Myboff$[rsp]
  0022c	48 8b 8c 24 c8
	00 00 00	 mov	 rcx, QWORD PTR _Count$[rsp]
  00234	48 2b c8	 sub	 rcx, rax
  00237	48 8b c1	 mov	 rax, rcx
  0023a	48 8b d0	 mov	 rdx, rax
  0023d	48 8b 4c 24 50	 mov	 rcx, QWORD PTR _Myptr$[rsp]
  00242	e8 00 00 00 00	 call	 ??$_Uninitialized_value_construct_n_unchecked1@PEAPEAUPoint@@_K@std@@YAPEAPEAUPoint@@PEAPEAU1@_K@Z ; std::_Uninitialized_value_construct_n_unchecked1<Point * *,unsigned __int64>

; 1462 :             _Uninitialized_value_construct_n_unchecked1(_Newmap, _Myboff); // clear prefix of new

  00247	48 8b 54 24 40	 mov	 rdx, QWORD PTR _Myboff$[rsp]
  0024c	48 8b 4c 24 48	 mov	 rcx, QWORD PTR _Newmap$[rsp]
  00251	e8 00 00 00 00	 call	 ??$_Uninitialized_value_construct_n_unchecked1@PEAPEAUPoint@@_K@std@@YAPEAPEAUPoint@@PEAPEAU1@_K@Z ; std::_Uninitialized_value_construct_n_unchecked1<Point * *,unsigned __int64>

; 1463 :         } else { // increment not greater than offset of initial block

  00256	e9 af 00 00 00	 jmp	 $LN7@Growmap
$LN6@Growmap:

; 1464 :             _STD uninitialized_copy(_Map(), _Map() + _Count, _Myptr); // copy more old

  0025b	48 8b 8c 24 c0
	00 00 00	 mov	 rcx, QWORD PTR this$[rsp]
  00263	e8 00 00 00 00	 call	 ?_Map@?$deque@UPoint@@V?$allocator@UPoint@@@std@@@std@@AEAAAEAPEAPEAUPoint@@XZ ; std::deque<Point,std::allocator<Point> >::_Map
  00268	48 8b 00	 mov	 rax, QWORD PTR [rax]
  0026b	48 8b 8c 24 c8
	00 00 00	 mov	 rcx, QWORD PTR _Count$[rsp]
  00273	48 8d 04 c8	 lea	 rax, QWORD PTR [rax+rcx*8]
  00277	48 89 44 24 78	 mov	 QWORD PTR tv170[rsp], rax
  0027c	48 8b 8c 24 c0
	00 00 00	 mov	 rcx, QWORD PTR this$[rsp]
  00284	e8 00 00 00 00	 call	 ?_Map@?$deque@UPoint@@V?$allocator@UPoint@@@std@@@std@@AEAAAEAPEAPEAUPoint@@XZ ; std::deque<Point,std::allocator<Point> >::_Map
  00289	4c 8b 44 24 50	 mov	 r8, QWORD PTR _Myptr$[rsp]
  0028e	48 8b 4c 24 78	 mov	 rcx, QWORD PTR tv170[rsp]
  00293	48 8b d1	 mov	 rdx, rcx
  00296	48 8b 08	 mov	 rcx, QWORD PTR [rax]
  00299	e8 00 00 00 00	 call	 ??$uninitialized_copy@PEAPEAUPoint@@PEAPEAU1@@std@@YAPEAPEAUPoint@@QEAPEAU1@0PEAPEAU1@@Z ; std::uninitialized_copy<Point * *,Point * *>

; 1465 :             _Myptr = _STD uninitialized_copy(_Map() + _Count, _Map() + _Myboff, _Newmap); // copy rest of old

  0029e	48 8b 8c 24 c0
	00 00 00	 mov	 rcx, QWORD PTR this$[rsp]
  002a6	e8 00 00 00 00	 call	 ?_Map@?$deque@UPoint@@V?$allocator@UPoint@@@std@@@std@@AEAAAEAPEAPEAUPoint@@XZ ; std::deque<Point,std::allocator<Point> >::_Map
  002ab	48 8b 00	 mov	 rax, QWORD PTR [rax]
  002ae	48 8b 4c 24 40	 mov	 rcx, QWORD PTR _Myboff$[rsp]
  002b3	48 8d 04 c8	 lea	 rax, QWORD PTR [rax+rcx*8]
  002b7	48 89 84 24 80
	00 00 00	 mov	 QWORD PTR tv179[rsp], rax
  002bf	48 8b 8c 24 c0
	00 00 00	 mov	 rcx, QWORD PTR this$[rsp]
  002c7	e8 00 00 00 00	 call	 ?_Map@?$deque@UPoint@@V?$allocator@UPoint@@@std@@@std@@AEAAAEAPEAPEAUPoint@@XZ ; std::deque<Point,std::allocator<Point> >::_Map
  002cc	48 8b 00	 mov	 rax, QWORD PTR [rax]
  002cf	48 8b 8c 24 c8
	00 00 00	 mov	 rcx, QWORD PTR _Count$[rsp]
  002d7	48 8d 04 c8	 lea	 rax, QWORD PTR [rax+rcx*8]
  002db	4c 8b 44 24 48	 mov	 r8, QWORD PTR _Newmap$[rsp]
  002e0	48 8b 8c 24 80
	00 00 00	 mov	 rcx, QWORD PTR tv179[rsp]
  002e8	48 8b d1	 mov	 rdx, rcx
  002eb	48 8b c8	 mov	 rcx, rax
  002ee	e8 00 00 00 00	 call	 ??$uninitialized_copy@PEAPEAUPoint@@PEAPEAU1@@std@@YAPEAPEAUPoint@@QEAPEAU1@0PEAPEAU1@@Z ; std::uninitialized_copy<Point * *,Point * *>
  002f3	48 89 44 24 50	 mov	 QWORD PTR _Myptr$[rsp], rax

; 1466 :             _Uninitialized_value_construct_n_unchecked1(_Myptr, _Count); // clear rest to initial block

  002f8	48 8b 94 24 c8
	00 00 00	 mov	 rdx, QWORD PTR _Count$[rsp]
  00300	48 8b 4c 24 50	 mov	 rcx, QWORD PTR _Myptr$[rsp]
  00305	e8 00 00 00 00	 call	 ??$_Uninitialized_value_construct_n_unchecked1@PEAPEAUPoint@@_K@std@@YAPEAPEAUPoint@@PEAPEAU1@_K@Z ; std::_Uninitialized_value_construct_n_unchecked1<Point * *,unsigned __int64>
$LN7@Growmap:

; 1467 :         }
; 1468 : 
; 1469 :         _Destroy_range(_Map() + _Myboff, _Map() + _Mapsize());

  0030a	48 8b 8c 24 c0
	00 00 00	 mov	 rcx, QWORD PTR this$[rsp]
  00312	e8 00 00 00 00	 call	 ?_Map@?$deque@UPoint@@V?$allocator@UPoint@@@std@@@std@@AEAAAEAPEAPEAUPoint@@XZ ; std::deque<Point,std::allocator<Point> >::_Map
  00317	48 89 84 24 88
	00 00 00	 mov	 QWORD PTR tv189[rsp], rax
  0031f	48 8b 8c 24 c0
	00 00 00	 mov	 rcx, QWORD PTR this$[rsp]
  00327	e8 00 00 00 00	 call	 ?_Mapsize@?$deque@UPoint@@V?$allocator@UPoint@@@std@@@std@@AEAAAEA_KXZ ; std::deque<Point,std::allocator<Point> >::_Mapsize
  0032c	48 8b 00	 mov	 rax, QWORD PTR [rax]
  0032f	48 8b 8c 24 88
	00 00 00	 mov	 rcx, QWORD PTR tv189[rsp]
  00337	48 8b 09	 mov	 rcx, QWORD PTR [rcx]
  0033a	48 8d 04 c1	 lea	 rax, QWORD PTR [rcx+rax*8]
  0033e	48 89 84 24 90
	00 00 00	 mov	 QWORD PTR tv193[rsp], rax
  00346	48 8b 8c 24 c0
	00 00 00	 mov	 rcx, QWORD PTR this$[rsp]
  0034e	e8 00 00 00 00	 call	 ?_Map@?$deque@UPoint@@V?$allocator@UPoint@@@std@@@std@@AEAAAEAPEAPEAUPoint@@XZ ; std::deque<Point,std::allocator<Point> >::_Map
  00353	48 8b 00	 mov	 rax, QWORD PTR [rax]
  00356	48 8b 4c 24 40	 mov	 rcx, QWORD PTR _Myboff$[rsp]
  0035b	48 8d 04 c8	 lea	 rax, QWORD PTR [rax+rcx*8]
  0035f	48 8b 8c 24 90
	00 00 00	 mov	 rcx, QWORD PTR tv193[rsp]
  00367	48 8b d1	 mov	 rdx, rcx
  0036a	48 8b c8	 mov	 rcx, rax
  0036d	e8 00 00 00 00	 call	 ??$_Destroy_range@PEAPEAUPoint@@PEAPEAU1@@std@@YAXPEAPEAUPoint@@QEAPEAU1@@Z ; std::_Destroy_range<Point * *,Point * *>

; 1470 :         if (_Map() != _Mapptr()) {

  00372	48 8b 8c 24 c0
	00 00 00	 mov	 rcx, QWORD PTR this$[rsp]
  0037a	e8 00 00 00 00	 call	 ?_Map@?$deque@UPoint@@V?$allocator@UPoint@@@std@@@std@@AEAAAEAPEAPEAUPoint@@XZ ; std::deque<Point,std::allocator<Point> >::_Map
  0037f	48 83 38 00	 cmp	 QWORD PTR [rax], 0
  00383	74 3a		 je	 SHORT $LN8@Growmap

; 1471 :             _Almap.deallocate(_Map(), _Mapsize()); // free storage for old

  00385	48 8b 8c 24 c0
	00 00 00	 mov	 rcx, QWORD PTR this$[rsp]
  0038d	e8 00 00 00 00	 call	 ?_Mapsize@?$deque@UPoint@@V?$allocator@UPoint@@@std@@@std@@AEAAAEA_KXZ ; std::deque<Point,std::allocator<Point> >::_Mapsize
  00392	48 89 84 24 98
	00 00 00	 mov	 QWORD PTR tv205[rsp], rax
  0039a	48 8b 8c 24 c0
	00 00 00	 mov	 rcx, QWORD PTR this$[rsp]
  003a2	e8 00 00 00 00	 call	 ?_Map@?$deque@UPoint@@V?$allocator@UPoint@@@std@@@std@@AEAAAEAPEAPEAUPoint@@XZ ; std::deque<Point,std::allocator<Point> >::_Map
  003a7	48 8b 8c 24 98
	00 00 00	 mov	 rcx, QWORD PTR tv205[rsp]
  003af	4c 8b 01	 mov	 r8, QWORD PTR [rcx]
  003b2	48 8b 10	 mov	 rdx, QWORD PTR [rax]
  003b5	48 8d 4c 24 24	 lea	 rcx, QWORD PTR _Almap$[rsp]
  003ba	e8 00 00 00 00	 call	 ?deallocate@?$allocator@PEAUPoint@@@std@@QEAAXQEAPEAUPoint@@_K@Z ; std::allocator<Point *>::deallocate
$LN8@Growmap:

; 1472 :         }
; 1473 : 
; 1474 :         _Map() = _Newmap; // point at new

  003bf	48 8b 8c 24 c0
	00 00 00	 mov	 rcx, QWORD PTR this$[rsp]
  003c7	e8 00 00 00 00	 call	 ?_Map@?$deque@UPoint@@V?$allocator@UPoint@@@std@@@std@@AEAAAEAPEAPEAUPoint@@XZ ; std::deque<Point,std::allocator<Point> >::_Map
  003cc	48 8b 4c 24 48	 mov	 rcx, QWORD PTR _Newmap$[rsp]
  003d1	48 89 08	 mov	 QWORD PTR [rax], rcx

; 1475 :         _Mapsize() += _Count;

  003d4	48 8b 8c 24 c0
	00 00 00	 mov	 rcx, QWORD PTR this$[rsp]
  003dc	e8 00 00 00 00	 call	 ?_Mapsize@?$deque@UPoint@@V?$allocator@UPoint@@@std@@@std@@AEAAAEA_KXZ ; std::deque<Point,std::allocator<Point> >::_Mapsize
  003e1	48 89 84 24 a0
	00 00 00	 mov	 QWORD PTR tv214[rsp], rax
  003e9	48 8b 84 24 a0
	00 00 00	 mov	 rax, QWORD PTR tv214[rsp]
  003f1	48 8b 00	 mov	 rax, QWORD PTR [rax]
  003f4	48 03 84 24 c8
	00 00 00	 add	 rax, QWORD PTR _Count$[rsp]
  003fc	48 8b 8c 24 a0
	00 00 00	 mov	 rcx, QWORD PTR tv214[rsp]
  00404	48 89 01	 mov	 QWORD PTR [rcx], rax
$LN9@Growmap:

; 1476 :     }

  00407	48 8b cc	 mov	 rcx, rsp
  0040a	48 8d 15 00 00
	00 00		 lea	 rdx, OFFSET FLAT:?_Growmap@?$deque@UPoint@@V?$allocator@UPoint@@@std@@@std@@AEAAX_K@Z$rtcFrameData
  00411	e8 00 00 00 00	 call	 _RTC_CheckStackVars
  00416	48 81 c4 b0 00
	00 00		 add	 rsp, 176		; 000000b0H
  0041d	5f		 pop	 rdi
  0041e	c3		 ret	 0
?_Growmap@?$deque@UPoint@@V?$allocator@UPoint@@@std@@@std@@AEAAX_K@Z ENDP ; std::deque<Point,std::allocator<Point> >::_Growmap
_TEXT	ENDS
; Function compile flags: /Odtp /RTCsu
; File C:\Program Files (x86)\Microsoft Visual Studio\2019\Community\VC\Tools\MSVC\14.29.30037\include\deque
;	COMDAT ?_Xlen@?$deque@UPoint@@V?$allocator@UPoint@@@std@@@std@@AEBAXXZ
_TEXT	SEGMENT
this$ = 48
?_Xlen@?$deque@UPoint@@V?$allocator@UPoint@@@std@@@std@@AEBAXXZ PROC ; std::deque<Point,std::allocator<Point> >::_Xlen, COMDAT

; 1431 :     [[noreturn]] void _Xlen() const {

$LN3:
  00000	48 89 4c 24 08	 mov	 QWORD PTR [rsp+8], rcx
  00005	57		 push	 rdi
  00006	48 83 ec 20	 sub	 rsp, 32			; 00000020H

; 1432 :         _Xlength_error("deque<T> too long");

  0000a	48 8d 0d 00 00
	00 00		 lea	 rcx, OFFSET FLAT:??_C@_0BC@KBDMBKEH@deque?$DMT?$DO?5too?5long@
  00011	e8 00 00 00 00	 call	 ?_Xlength_error@std@@YAXPEBD@Z ; std::_Xlength_error
$LN2@Xlen:

; 1433 :     }

  00016	48 83 c4 20	 add	 rsp, 32			; 00000020H
  0001a	5f		 pop	 rdi
  0001b	c3		 ret	 0
?_Xlen@?$deque@UPoint@@V?$allocator@UPoint@@@std@@@std@@AEBAXXZ ENDP ; std::deque<Point,std::allocator<Point> >::_Xlen
_TEXT	ENDS
; Function compile flags: /Odtp /RTCsu
; File C:\Program Files (x86)\Microsoft Visual Studio\2019\Community\VC\Tools\MSVC\14.29.30037\include\deque
;	COMDAT ?pop_back@?$deque@UPoint@@V?$allocator@UPoint@@@std@@@std@@QEAAXXZ
_TEXT	SEGMENT
_Newoff$1 = 48
_Block$2 = 56
tv84 = 64
tv148 = 72
tv94 = 80
tv141 = 88
this$ = 112
?pop_back@?$deque@UPoint@@V?$allocator@UPoint@@@std@@@std@@QEAAXXZ PROC ; std::deque<Point,std::allocator<Point> >::pop_back, COMDAT

; 1135 :     void pop_back() noexcept /* strengthened */ {

$LN10:
  00000	48 89 4c 24 08	 mov	 QWORD PTR [rsp+8], rcx
  00005	57		 push	 rdi
  00006	48 83 ec 60	 sub	 rsp, 96			; 00000060H

; 1136 : #if _ITERATOR_DEBUG_LEVEL == 2
; 1137 :         if (empty()) {

  0000a	48 8b 4c 24 70	 mov	 rcx, QWORD PTR this$[rsp]
  0000f	e8 00 00 00 00	 call	 ?empty@?$deque@UPoint@@V?$allocator@UPoint@@@std@@@std@@QEBA_NXZ ; std::deque<Point,std::allocator<Point> >::empty
  00014	0f b6 c0	 movzx	 eax, al
  00017	85 c0		 test	 eax, eax
  00019	74 70		 je	 SHORT $LN5@pop_back
$LN4@pop_back:

; 1138 :             _STL_REPORT_ERROR("deque empty before pop");

  0001b	48 8d 05 00 00
	00 00		 lea	 rax, OFFSET FLAT:??_C@_0BH@EDKEEENI@deque?5empty?5before?5pop@
  00022	48 89 44 24 28	 mov	 QWORD PTR [rsp+40], rax
  00027	48 8d 05 00 00
	00 00		 lea	 rax, OFFSET FLAT:??_C@_02DKCKIIND@?$CFs@
  0002e	48 89 44 24 20	 mov	 QWORD PTR [rsp+32], rax
  00033	45 33 c9	 xor	 r9d, r9d
  00036	41 b8 72 04 00
	00		 mov	 r8d, 1138		; 00000472H
  0003c	48 8d 15 00 00
	00 00		 lea	 rdx, OFFSET FLAT:??_C@_0GG@FDHPMGE@C?3?2Program?5Files?5?$CIx86?$CJ?2Microsof@
  00043	b9 02 00 00 00	 mov	 ecx, 2
  00048	ff 15 00 00 00
	00		 call	 QWORD PTR __imp__CrtDbgReport
  0004e	83 f8 01	 cmp	 eax, 1
  00051	75 03		 jne	 SHORT $LN9@pop_back
  00053	cc		 int	 3
  00054	33 c0		 xor	 eax, eax
$LN9@pop_back:
  00056	48 c7 44 24 20
	00 00 00 00	 mov	 QWORD PTR [rsp+32], 0
  0005f	41 b9 72 04 00
	00		 mov	 r9d, 1138		; 00000472H
  00065	4c 8d 05 00 00
	00 00		 lea	 r8, OFFSET FLAT:??_C@_1MM@DPCANHAJ@?$AAC?$AA?3?$AA?2?$AAP?$AAr?$AAo?$AAg?$AAr?$AAa?$AAm?$AA?5?$AAF?$AAi?$AAl?$AAe@
  0006c	48 8d 15 00 00
	00 00		 lea	 rdx, OFFSET FLAT:??_C@_1IO@OKBBHBKC@?$AAs?$AAt?$AAd?$AA?3?$AA?3?$AAd?$AAe?$AAq?$AAu?$AAe?$AA?$DM?$AAs?$AAt?$AAr?$AAu@
  00073	48 8d 0d 00 00
	00 00		 lea	 rcx, OFFSET FLAT:??_C@_1DC@NJAACHCD@?$AA?$CC?$AAd?$AAe?$AAq?$AAu?$AAe?$AA?5?$AAe?$AAm?$AAp?$AAt?$AAy?$AA?5?$AAb?$AAe@
  0007a	ff 15 00 00 00
	00		 call	 QWORD PTR __imp__invalid_parameter
  00080	33 c0		 xor	 eax, eax
  00082	85 c0		 test	 eax, eax
  00084	75 95		 jne	 SHORT $LN4@pop_back

; 1139 :         } else { // something to erase, do it

  00086	e9 ec 00 00 00	 jmp	 $LN6@pop_back
$LN5@pop_back:

; 1140 :             size_type _Newoff = _Myoff() + _Mysize() - 1;

  0008b	48 8b 4c 24 70	 mov	 rcx, QWORD PTR this$[rsp]
  00090	e8 00 00 00 00	 call	 ?_Myoff@?$deque@UPoint@@V?$allocator@UPoint@@@std@@@std@@AEAAAEA_KXZ ; std::deque<Point,std::allocator<Point> >::_Myoff
  00095	48 89 44 24 40	 mov	 QWORD PTR tv84[rsp], rax
  0009a	48 8b 4c 24 70	 mov	 rcx, QWORD PTR this$[rsp]
  0009f	e8 00 00 00 00	 call	 ?_Mysize@?$deque@UPoint@@V?$allocator@UPoint@@@std@@@std@@AEAAAEA_KXZ ; std::deque<Point,std::allocator<Point> >::_Mysize
  000a4	48 8b 4c 24 40	 mov	 rcx, QWORD PTR tv84[rsp]
  000a9	48 8b 09	 mov	 rcx, QWORD PTR [rcx]
  000ac	48 8b 00	 mov	 rax, QWORD PTR [rax]
  000af	48 8d 44 01 ff	 lea	 rax, QWORD PTR [rcx+rax-1]
  000b4	48 89 44 24 30	 mov	 QWORD PTR _Newoff$1[rsp], rax

; 1141 :             _Orphan_off(_Newoff);

  000b9	48 8b 54 24 30	 mov	 rdx, QWORD PTR _Newoff$1[rsp]
  000be	48 8b 4c 24 70	 mov	 rcx, QWORD PTR this$[rsp]
  000c3	e8 00 00 00 00	 call	 ?_Orphan_off@?$deque@UPoint@@V?$allocator@UPoint@@@std@@@std@@AEBAX_K@Z ; std::deque<Point,std::allocator<Point> >::_Orphan_off

; 1142 :             size_type _Block = _Getblock(_Newoff);

  000c8	48 8b 54 24 30	 mov	 rdx, QWORD PTR _Newoff$1[rsp]
  000cd	48 8b 4c 24 70	 mov	 rcx, QWORD PTR this$[rsp]
  000d2	e8 00 00 00 00	 call	 ?_Getblock@?$deque@UPoint@@V?$allocator@UPoint@@@std@@@std@@AEBA_K_K@Z ; std::deque<Point,std::allocator<Point> >::_Getblock
  000d7	48 89 44 24 38	 mov	 QWORD PTR _Block$2[rsp], rax

; 1143 :             _Alty_traits::destroy(_Getal(), _Unfancy(_Map()[_Block] + _Newoff % _Block_size));

  000dc	48 8b 4c 24 70	 mov	 rcx, QWORD PTR this$[rsp]
  000e1	e8 00 00 00 00	 call	 ?_Map@?$deque@UPoint@@V?$allocator@UPoint@@@std@@@std@@AEAAAEAPEAPEAUPoint@@XZ ; std::deque<Point,std::allocator<Point> >::_Map
  000e6	48 8b 00	 mov	 rax, QWORD PTR [rax]
  000e9	48 89 44 24 48	 mov	 QWORD PTR tv148[rsp], rax
  000ee	33 d2		 xor	 edx, edx
  000f0	48 8b 44 24 30	 mov	 rax, QWORD PTR _Newoff$1[rsp]
  000f5	b9 02 00 00 00	 mov	 ecx, 2
  000fa	48 f7 f1	 div	 rcx
  000fd	48 8b c2	 mov	 rax, rdx
  00100	48 8b 4c 24 38	 mov	 rcx, QWORD PTR _Block$2[rsp]
  00105	48 8b 54 24 48	 mov	 rdx, QWORD PTR tv148[rsp]
  0010a	48 8b 0c ca	 mov	 rcx, QWORD PTR [rdx+rcx*8]
  0010e	48 8d 04 c1	 lea	 rax, QWORD PTR [rcx+rax*8]
  00112	48 8b c8	 mov	 rcx, rax
  00115	e8 00 00 00 00	 call	 ??$_Unfancy@UPoint@@@std@@YAPEAUPoint@@PEAU1@@Z ; std::_Unfancy<Point>
  0011a	48 89 44 24 50	 mov	 QWORD PTR tv94[rsp], rax
  0011f	48 8b 4c 24 70	 mov	 rcx, QWORD PTR this$[rsp]
  00124	e8 00 00 00 00	 call	 ?_Getal@?$deque@UPoint@@V?$allocator@UPoint@@@std@@@std@@AEAAAEAV?$allocator@UPoint@@@2@XZ ; std::deque<Point,std::allocator<Point> >::_Getal
  00129	48 8b 4c 24 50	 mov	 rcx, QWORD PTR tv94[rsp]
  0012e	48 8b d1	 mov	 rdx, rcx
  00131	48 8b c8	 mov	 rcx, rax
  00134	e8 00 00 00 00	 call	 ??$destroy@UPoint@@@?$_Default_allocator_traits@V?$allocator@UPoint@@@std@@@std@@SAXAEAV?$allocator@UPoint@@@1@QEAUPoint@@@Z ; std::_Default_allocator_traits<std::allocator<Point> >::destroy<Point>

; 1144 :             if (--_Mysize() == 0) {

  00139	48 8b 4c 24 70	 mov	 rcx, QWORD PTR this$[rsp]
  0013e	e8 00 00 00 00	 call	 ?_Mysize@?$deque@UPoint@@V?$allocator@UPoint@@@std@@@std@@AEAAAEA_KXZ ; std::deque<Point,std::allocator<Point> >::_Mysize
  00143	48 89 44 24 58	 mov	 QWORD PTR tv141[rsp], rax
  00148	48 8b 44 24 58	 mov	 rax, QWORD PTR tv141[rsp]
  0014d	48 8b 00	 mov	 rax, QWORD PTR [rax]
  00150	48 ff c8	 dec	 rax
  00153	48 8b 4c 24 58	 mov	 rcx, QWORD PTR tv141[rsp]
  00158	48 89 01	 mov	 QWORD PTR [rcx], rax
  0015b	48 8b 44 24 58	 mov	 rax, QWORD PTR tv141[rsp]
  00160	48 83 38 00	 cmp	 QWORD PTR [rax], 0
  00164	75 11		 jne	 SHORT $LN6@pop_back

; 1145 :                 _Myoff() = 0;

  00166	48 8b 4c 24 70	 mov	 rcx, QWORD PTR this$[rsp]
  0016b	e8 00 00 00 00	 call	 ?_Myoff@?$deque@UPoint@@V?$allocator@UPoint@@@std@@@std@@AEAAAEA_KXZ ; std::deque<Point,std::allocator<Point> >::_Myoff
  00170	48 c7 00 00 00
	00 00		 mov	 QWORD PTR [rax], 0
$LN6@pop_back:

; 1146 :             }
; 1147 :         }
; 1148 : 
; 1149 : #else // _ITERATOR_DEBUG_LEVEL == 2
; 1150 :         size_type _Newoff = _Myoff() + _Mysize() - 1;
; 1151 :         size_type _Block  = _Getblock(_Newoff);
; 1152 :         _Alty_traits::destroy(_Getal(), _Unfancy(_Map()[_Block] + _Newoff % _Block_size));
; 1153 :         if (--_Mysize() == 0) {
; 1154 :             _Myoff() = 0;
; 1155 :         }
; 1156 : #endif // _ITERATOR_DEBUG_LEVEL == 2
; 1157 :     }

  00177	48 83 c4 60	 add	 rsp, 96			; 00000060H
  0017b	5f		 pop	 rdi
  0017c	c3		 ret	 0
?pop_back@?$deque@UPoint@@V?$allocator@UPoint@@@std@@@std@@QEAAXXZ ENDP ; std::deque<Point,std::allocator<Point> >::pop_back
_TEXT	ENDS
; Function compile flags: /Odtp /RTCsu
; File C:\Program Files (x86)\Microsoft Visual Studio\2019\Community\VC\Tools\MSVC\14.29.30037\include\deque
;	COMDAT ?push_back@?$deque@UPoint@@V?$allocator@UPoint@@@std@@@std@@QEAAXAEBUPoint@@@Z
_TEXT	SEGMENT
this$ = 48
_Val$ = 56
?push_back@?$deque@UPoint@@V?$allocator@UPoint@@@std@@@std@@QEAAXAEBUPoint@@@Z PROC ; std::deque<Point,std::allocator<Point> >::push_back, COMDAT

; 1130 :     void push_back(const _Ty& _Val) {

$LN3:
  00000	48 89 54 24 10	 mov	 QWORD PTR [rsp+16], rdx
  00005	48 89 4c 24 08	 mov	 QWORD PTR [rsp+8], rcx
  0000a	57		 push	 rdi
  0000b	48 83 ec 20	 sub	 rsp, 32			; 00000020H

; 1131 :         _Orphan_all();

  0000f	48 8b 4c 24 30	 mov	 rcx, QWORD PTR this$[rsp]
  00014	e8 00 00 00 00	 call	 ?_Orphan_all@?$deque@UPoint@@V?$allocator@UPoint@@@std@@@std@@AEAAXXZ ; std::deque<Point,std::allocator<Point> >::_Orphan_all

; 1132 :         _Emplace_back_internal(_Val);

  00019	48 8b 54 24 38	 mov	 rdx, QWORD PTR _Val$[rsp]
  0001e	48 8b 4c 24 30	 mov	 rcx, QWORD PTR this$[rsp]
  00023	e8 00 00 00 00	 call	 ??$_Emplace_back_internal@AEBUPoint@@@?$deque@UPoint@@V?$allocator@UPoint@@@std@@@std@@AEAAXAEBUPoint@@@Z ; std::deque<Point,std::allocator<Point> >::_Emplace_back_internal<Point const &>

; 1133 :     }

  00028	48 83 c4 20	 add	 rsp, 32			; 00000020H
  0002c	5f		 pop	 rdi
  0002d	c3		 ret	 0
?push_back@?$deque@UPoint@@V?$allocator@UPoint@@@std@@@std@@QEAAXAEBUPoint@@@Z ENDP ; std::deque<Point,std::allocator<Point> >::push_back
_TEXT	ENDS
; Function compile flags: /Odtp /RTCsu
; File C:\Program Files (x86)\Microsoft Visual Studio\2019\Community\VC\Tools\MSVC\14.29.30037\include\deque
;	COMDAT ?back@?$deque@UPoint@@V?$allocator@UPoint@@@std@@@std@@QEAAAEAUPoint@@XZ
_TEXT	SEGMENT
$T1 = 48
$T2 = 64
$T3 = 80
this$ = 128
?back@?$deque@UPoint@@V?$allocator@UPoint@@@std@@@std@@QEAAAEAUPoint@@XZ PROC ; std::deque<Point,std::allocator<Point> >::back, COMDAT

; 1064 :     _NODISCARD reference back() noexcept /* strengthened */ {

$LN12:
  00000	48 89 4c 24 08	 mov	 QWORD PTR [rsp+8], rcx
  00005	56		 push	 rsi
  00006	57		 push	 rdi
  00007	48 83 ec 68	 sub	 rsp, 104		; 00000068H
$LN4@back:

; 1065 : #if _CONTAINER_DEBUG_LEVEL > 0
; 1066 :         _STL_VERIFY(!empty(), "back() called on empty deque");

  0000b	48 8b 8c 24 80
	00 00 00	 mov	 rcx, QWORD PTR this$[rsp]
  00013	e8 00 00 00 00	 call	 ?empty@?$deque@UPoint@@V?$allocator@UPoint@@@std@@@std@@QEBA_NXZ ; std::deque<Point,std::allocator<Point> >::empty
  00018	0f b6 c0	 movzx	 eax, al
  0001b	85 c0		 test	 eax, eax
  0001d	75 02		 jne	 SHORT $LN7@back
  0001f	eb 6b		 jmp	 SHORT $LN9@back
$LN7@back:
  00021	48 8d 05 00 00
	00 00		 lea	 rax, OFFSET FLAT:??_C@_0BN@OLMACEKN@back?$CI?$CJ?5called?5on?5empty?5deque@
  00028	48 89 44 24 28	 mov	 QWORD PTR [rsp+40], rax
  0002d	48 8d 05 00 00
	00 00		 lea	 rax, OFFSET FLAT:??_C@_02DKCKIIND@?$CFs@
  00034	48 89 44 24 20	 mov	 QWORD PTR [rsp+32], rax
  00039	45 33 c9	 xor	 r9d, r9d
  0003c	41 b8 2a 04 00
	00		 mov	 r8d, 1066		; 0000042aH
  00042	48 8d 15 00 00
	00 00		 lea	 rdx, OFFSET FLAT:??_C@_0GG@FDHPMGE@C?3?2Program?5Files?5?$CIx86?$CJ?2Microsof@
  00049	b9 02 00 00 00	 mov	 ecx, 2
  0004e	ff 15 00 00 00
	00		 call	 QWORD PTR __imp__CrtDbgReport
  00054	83 f8 01	 cmp	 eax, 1
  00057	75 03		 jne	 SHORT $LN11@back
  00059	cc		 int	 3
  0005a	33 c0		 xor	 eax, eax
$LN11@back:
  0005c	48 c7 44 24 20
	00 00 00 00	 mov	 QWORD PTR [rsp+32], 0
  00065	41 b9 2a 04 00
	00		 mov	 r9d, 1066		; 0000042aH
  0006b	4c 8d 05 00 00
	00 00		 lea	 r8, OFFSET FLAT:??_C@_1MM@DPCANHAJ@?$AAC?$AA?3?$AA?2?$AAP?$AAr?$AAo?$AAg?$AAr?$AAa?$AAm?$AA?5?$AAF?$AAi?$AAl?$AAe@
  00072	48 8d 15 00 00
	00 00		 lea	 rdx, OFFSET FLAT:??_C@_1IG@ELIEKPDP@?$AAs?$AAt?$AAd?$AA?3?$AA?3?$AAd?$AAe?$AAq?$AAu?$AAe?$AA?$DM?$AAs?$AAt?$AAr?$AAu@
  00079	48 8d 0d 00 00
	00 00		 lea	 rcx, OFFSET FLAT:??_C@_1DO@OOAHKDGC@?$AA?$CC?$AAb?$AAa?$AAc?$AAk?$AA?$CI?$AA?$CJ?$AA?5?$AAc?$AAa?$AAl?$AAl?$AAe?$AAd?$AA?5@
  00080	ff 15 00 00 00
	00		 call	 QWORD PTR __imp__invalid_parameter
  00086	33 c0		 xor	 eax, eax
  00088	85 c0		 test	 eax, eax
  0008a	75 95		 jne	 SHORT $LN7@back
$LN9@back:
  0008c	33 c0		 xor	 eax, eax
  0008e	85 c0		 test	 eax, eax
  00090	0f 85 75 ff ff
	ff		 jne	 $LN4@back

; 1067 : #endif // _CONTAINER_DEBUG_LEVEL > 0
; 1068 : 
; 1069 :         return *_Prev_iter(_Unchecked_end());

  00096	48 8d 54 24 30	 lea	 rdx, QWORD PTR $T1[rsp]
  0009b	48 8b 8c 24 80
	00 00 00	 mov	 rcx, QWORD PTR this$[rsp]
  000a3	e8 00 00 00 00	 call	 ?_Unchecked_end@?$deque@UPoint@@V?$allocator@UPoint@@@std@@@std@@QEAA?AV?$_Deque_unchecked_iterator@V?$_Deque_val@U?$_Deque_simple_types@UPoint@@@std@@@std@@@2@XZ ; std::deque<Point,std::allocator<Point> >::_Unchecked_end
  000a8	48 8d 4c 24 50	 lea	 rcx, QWORD PTR $T3[rsp]
  000ad	48 8b f9	 mov	 rdi, rcx
  000b0	48 8b f0	 mov	 rsi, rax
  000b3	b9 10 00 00 00	 mov	 ecx, 16
  000b8	f3 a4		 rep movsb
  000ba	48 8d 54 24 50	 lea	 rdx, QWORD PTR $T3[rsp]
  000bf	48 8d 4c 24 40	 lea	 rcx, QWORD PTR $T2[rsp]
  000c4	e8 00 00 00 00	 call	 ??$_Prev_iter@V?$_Deque_unchecked_iterator@V?$_Deque_val@U?$_Deque_simple_types@UPoint@@@std@@@std@@@std@@@std@@YA?AV?$_Deque_unchecked_iterator@V?$_Deque_val@U?$_Deque_simple_types@UPoint@@@std@@@std@@@0@V10@@Z ; std::_Prev_iter<std::_Deque_unchecked_iterator<std::_Deque_val<std::_Deque_simple_types<Point> > > >
  000c9	48 8b c8	 mov	 rcx, rax
  000cc	e8 00 00 00 00	 call	 ??D?$_Deque_unchecked_iterator@V?$_Deque_val@U?$_Deque_simple_types@UPoint@@@std@@@std@@@std@@QEBAAEAUPoint@@XZ ; std::_Deque_unchecked_iterator<std::_Deque_val<std::_Deque_simple_types<Point> > >::operator*
  000d1	90		 npad	 1

; 1070 :     }

  000d2	48 83 c4 68	 add	 rsp, 104		; 00000068H
  000d6	5f		 pop	 rdi
  000d7	5e		 pop	 rsi
  000d8	c3		 ret	 0
?back@?$deque@UPoint@@V?$allocator@UPoint@@@std@@@std@@QEAAAEAUPoint@@XZ ENDP ; std::deque<Point,std::allocator<Point> >::back
_TEXT	ENDS
; Function compile flags: /Odtp /RTCsu
; File C:\Program Files (x86)\Microsoft Visual Studio\2019\Community\VC\Tools\MSVC\14.29.30037\include\deque
;	COMDAT ?empty@?$deque@UPoint@@V?$allocator@UPoint@@@std@@@std@@QEBA_NXZ
_TEXT	SEGMENT
tv67 = 32
this$ = 64
?empty@?$deque@UPoint@@V?$allocator@UPoint@@@std@@@std@@QEBA_NXZ PROC ; std::deque<Point,std::allocator<Point> >::empty, COMDAT

; 1008 :     _NODISCARD bool empty() const noexcept {

$LN5:
  00000	48 89 4c 24 08	 mov	 QWORD PTR [rsp+8], rcx
  00005	57		 push	 rdi
  00006	48 83 ec 30	 sub	 rsp, 48			; 00000030H

; 1009 :         return _Mysize() == 0;

  0000a	48 8b 4c 24 40	 mov	 rcx, QWORD PTR this$[rsp]
  0000f	e8 00 00 00 00	 call	 ?_Mysize@?$deque@UPoint@@V?$allocator@UPoint@@@std@@@std@@AEBAAEB_KXZ ; std::deque<Point,std::allocator<Point> >::_Mysize
  00014	48 83 38 00	 cmp	 QWORD PTR [rax], 0
  00018	75 0a		 jne	 SHORT $LN3@empty
  0001a	c7 44 24 20 01
	00 00 00	 mov	 DWORD PTR tv67[rsp], 1
  00022	eb 08		 jmp	 SHORT $LN4@empty
$LN3@empty:
  00024	c7 44 24 20 00
	00 00 00	 mov	 DWORD PTR tv67[rsp], 0
$LN4@empty:
  0002c	0f b6 44 24 20	 movzx	 eax, BYTE PTR tv67[rsp]

; 1010 :     }

  00031	48 83 c4 30	 add	 rsp, 48			; 00000030H
  00035	5f		 pop	 rdi
  00036	c3		 ret	 0
?empty@?$deque@UPoint@@V?$allocator@UPoint@@@std@@@std@@QEBA_NXZ ENDP ; std::deque<Point,std::allocator<Point> >::empty
_TEXT	ENDS
; Function compile flags: /Odtp /RTCsu
; File C:\Program Files (x86)\Microsoft Visual Studio\2019\Community\VC\Tools\MSVC\14.29.30037\include\deque
;	COMDAT ?max_size@?$deque@UPoint@@V?$allocator@UPoint@@@std@@@std@@QEBA_KXZ
_TEXT	SEGMENT
$T1 = 32
$T2 = 40
this$ = 64
?max_size@?$deque@UPoint@@V?$allocator@UPoint@@@std@@@std@@QEBA_KXZ PROC ; std::deque<Point,std::allocator<Point> >::max_size, COMDAT

; 1003 :     _NODISCARD size_type max_size() const noexcept {

$LN3:
  00000	48 89 4c 24 08	 mov	 QWORD PTR [rsp+8], rcx
  00005	57		 push	 rdi
  00006	48 83 ec 30	 sub	 rsp, 48			; 00000030H

; 1004 :         return (_STD min)(

  0000a	48 8b 4c 24 40	 mov	 rcx, QWORD PTR this$[rsp]
  0000f	e8 00 00 00 00	 call	 ?_Getal@?$deque@UPoint@@V?$allocator@UPoint@@@std@@@std@@AEBAAEBV?$allocator@UPoint@@@2@XZ ; std::deque<Point,std::allocator<Point> >::_Getal
  00014	48 8b c8	 mov	 rcx, rax
  00017	e8 00 00 00 00	 call	 ?max_size@?$_Default_allocator_traits@V?$allocator@UPoint@@@std@@@std@@SA_KAEBV?$allocator@UPoint@@@2@@Z ; std::_Default_allocator_traits<std::allocator<Point> >::max_size
  0001c	48 89 44 24 20	 mov	 QWORD PTR $T1[rsp], rax
  00021	e8 00 00 00 00	 call	 ?max@?$numeric_limits@_J@std@@SA_JXZ ; std::numeric_limits<__int64>::max
  00026	48 89 44 24 28	 mov	 QWORD PTR $T2[rsp], rax
  0002b	48 8d 54 24 20	 lea	 rdx, QWORD PTR $T1[rsp]
  00030	48 8d 4c 24 28	 lea	 rcx, QWORD PTR $T2[rsp]
  00035	e8 00 00 00 00	 call	 ??$min@_K@std@@YAAEB_KAEB_K0@Z ; std::min<unsigned __int64>
  0003a	48 8b 00	 mov	 rax, QWORD PTR [rax]

; 1005 :             static_cast<size_type>((numeric_limits<difference_type>::max)()), _Alty_traits::max_size(_Getal()));
; 1006 :     }

  0003d	48 83 c4 30	 add	 rsp, 48			; 00000030H
  00041	5f		 pop	 rdi
  00042	c3		 ret	 0
?max_size@?$deque@UPoint@@V?$allocator@UPoint@@@std@@@std@@QEBA_KXZ ENDP ; std::deque<Point,std::allocator<Point> >::max_size
_TEXT	ENDS
; Function compile flags: /Odtp /RTCsu
; File C:\Program Files (x86)\Microsoft Visual Studio\2019\Community\VC\Tools\MSVC\14.29.30037\include\deque
;	COMDAT ?size@?$deque@UPoint@@V?$allocator@UPoint@@@std@@@std@@QEBA_KXZ
_TEXT	SEGMENT
this$ = 48
?size@?$deque@UPoint@@V?$allocator@UPoint@@@std@@@std@@QEBA_KXZ PROC ; std::deque<Point,std::allocator<Point> >::size, COMDAT

; 999  :     _NODISCARD size_type size() const noexcept {

$LN3:
  00000	48 89 4c 24 08	 mov	 QWORD PTR [rsp+8], rcx
  00005	57		 push	 rdi
  00006	48 83 ec 20	 sub	 rsp, 32			; 00000020H

; 1000 :         return _Mysize();

  0000a	48 8b 4c 24 30	 mov	 rcx, QWORD PTR this$[rsp]
  0000f	e8 00 00 00 00	 call	 ?_Mysize@?$deque@UPoint@@V?$allocator@UPoint@@@std@@@std@@AEBAAEB_KXZ ; std::deque<Point,std::allocator<Point> >::_Mysize
  00014	48 8b 00	 mov	 rax, QWORD PTR [rax]

; 1001 :     }

  00017	48 83 c4 20	 add	 rsp, 32			; 00000020H
  0001b	5f		 pop	 rdi
  0001c	c3		 ret	 0
?size@?$deque@UPoint@@V?$allocator@UPoint@@@std@@@std@@QEBA_KXZ ENDP ; std::deque<Point,std::allocator<Point> >::size
_TEXT	ENDS
; Function compile flags: /Odtp /RTCsu
; File C:\Program Files (x86)\Microsoft Visual Studio\2019\Community\VC\Tools\MSVC\14.29.30037\include\deque
;	COMDAT ?_Unchecked_end@?$deque@UPoint@@V?$allocator@UPoint@@@std@@@std@@QEAA?AV?$_Deque_unchecked_iterator@V?$_Deque_val@U?$_Deque_simple_types@UPoint@@@std@@@std@@@2@XZ
_TEXT	SEGMENT
tv69 = 32
tv76 = 40
this$ = 64
__$ReturnUdt$ = 72
?_Unchecked_end@?$deque@UPoint@@V?$allocator@UPoint@@@std@@@std@@QEAA?AV?$_Deque_unchecked_iterator@V?$_Deque_val@U?$_Deque_simple_types@UPoint@@@std@@@std@@@2@XZ PROC ; std::deque<Point,std::allocator<Point> >::_Unchecked_end, COMDAT

; 919  :     _Unchecked_iterator _Unchecked_end() noexcept {

$LN3:
  00000	48 89 54 24 10	 mov	 QWORD PTR [rsp+16], rdx
  00005	48 89 4c 24 08	 mov	 QWORD PTR [rsp+8], rcx
  0000a	57		 push	 rdi
  0000b	48 83 ec 30	 sub	 rsp, 48			; 00000030H

; 920  :         return _Unchecked_iterator(_Myoff() + _Mysize(), _STD addressof(_Get_data()));

  0000f	48 8b 4c 24 40	 mov	 rcx, QWORD PTR this$[rsp]
  00014	e8 00 00 00 00	 call	 ?_Get_data@?$deque@UPoint@@V?$allocator@UPoint@@@std@@@std@@AEAAAEAV?$_Deque_val@U?$_Deque_simple_types@UPoint@@@std@@@2@XZ ; std::deque<Point,std::allocator<Point> >::_Get_data
  00019	48 8b c8	 mov	 rcx, rax
  0001c	e8 00 00 00 00	 call	 ??$addressof@V?$_Deque_val@U?$_Deque_simple_types@UPoint@@@std@@@std@@@std@@YAPEAV?$_Deque_val@U?$_Deque_simple_types@UPoint@@@std@@@0@AEAV10@@Z ; std::addressof<std::_Deque_val<std::_Deque_simple_types<Point> > >
  00021	48 89 44 24 20	 mov	 QWORD PTR tv69[rsp], rax
  00026	48 8b 4c 24 40	 mov	 rcx, QWORD PTR this$[rsp]
  0002b	e8 00 00 00 00	 call	 ?_Myoff@?$deque@UPoint@@V?$allocator@UPoint@@@std@@@std@@AEAAAEA_KXZ ; std::deque<Point,std::allocator<Point> >::_Myoff
  00030	48 89 44 24 28	 mov	 QWORD PTR tv76[rsp], rax
  00035	48 8b 4c 24 40	 mov	 rcx, QWORD PTR this$[rsp]
  0003a	e8 00 00 00 00	 call	 ?_Mysize@?$deque@UPoint@@V?$allocator@UPoint@@@std@@@std@@AEAAAEA_KXZ ; std::deque<Point,std::allocator<Point> >::_Mysize
  0003f	48 8b 4c 24 28	 mov	 rcx, QWORD PTR tv76[rsp]
  00044	48 8b 09	 mov	 rcx, QWORD PTR [rcx]
  00047	48 03 08	 add	 rcx, QWORD PTR [rax]
  0004a	48 8b c1	 mov	 rax, rcx
  0004d	48 8b 4c 24 20	 mov	 rcx, QWORD PTR tv69[rsp]
  00052	4c 8b c1	 mov	 r8, rcx
  00055	48 8b d0	 mov	 rdx, rax
  00058	48 8b 4c 24 48	 mov	 rcx, QWORD PTR __$ReturnUdt$[rsp]
  0005d	e8 00 00 00 00	 call	 ??0?$_Deque_unchecked_iterator@V?$_Deque_val@U?$_Deque_simple_types@UPoint@@@std@@@std@@@std@@QEAA@_KPEBU_Container_base12@1@@Z
  00062	48 8b 44 24 48	 mov	 rax, QWORD PTR __$ReturnUdt$[rsp]

; 921  :     }

  00067	48 83 c4 30	 add	 rsp, 48			; 00000030H
  0006b	5f		 pop	 rdi
  0006c	c3		 ret	 0
?_Unchecked_end@?$deque@UPoint@@V?$allocator@UPoint@@@std@@@std@@QEAA?AV?$_Deque_unchecked_iterator@V?$_Deque_val@U?$_Deque_simple_types@UPoint@@@std@@@std@@@2@XZ ENDP ; std::deque<Point,std::allocator<Point> >::_Unchecked_end
_TEXT	ENDS
; Function compile flags: /Odtp /RTCsu
; File C:\Program Files (x86)\Microsoft Visual Studio\2019\Community\VC\Tools\MSVC\14.29.30037\include\deque
;	COMDAT ??1?$deque@UPoint@@V?$allocator@UPoint@@@std@@@std@@QEAA@XZ
_TEXT	SEGMENT
_Proxy_allocator$ = 36
$T4 = 52
this$ = 80
??1?$deque@UPoint@@V?$allocator@UPoint@@@std@@@std@@QEAA@XZ PROC ; std::deque<Point,std::allocator<Point> >::~deque<Point,std::allocator<Point> >, COMDAT

; 867  :     ~deque() noexcept {

$LN3:
  00000	48 89 4c 24 08	 mov	 QWORD PTR [rsp+8], rcx
  00005	57		 push	 rdi
  00006	48 83 ec 40	 sub	 rsp, 64			; 00000040H
  0000a	48 8d 7c 24 20	 lea	 rdi, QWORD PTR [rsp+32]
  0000f	b9 08 00 00 00	 mov	 ecx, 8
  00014	b8 cc cc cc cc	 mov	 eax, -858993460		; ccccccccH
  00019	f3 ab		 rep stosd
  0001b	48 8b 4c 24 50	 mov	 rcx, QWORD PTR [rsp+80]

; 868  :         _Tidy();

  00020	48 8b 4c 24 50	 mov	 rcx, QWORD PTR this$[rsp]
  00025	e8 00 00 00 00	 call	 ?_Tidy@?$deque@UPoint@@V?$allocator@UPoint@@@std@@@std@@AEAAXXZ ; std::deque<Point,std::allocator<Point> >::_Tidy

; 869  :         _Alproxy_ty _Proxy_allocator(_Getal());

  0002a	48 8b 4c 24 50	 mov	 rcx, QWORD PTR this$[rsp]
  0002f	e8 00 00 00 00	 call	 ?_Getal@?$deque@UPoint@@V?$allocator@UPoint@@@std@@@std@@AEAAAEAV?$allocator@UPoint@@@2@XZ ; std::deque<Point,std::allocator<Point> >::_Getal
  00034	48 8b d0	 mov	 rdx, rax
  00037	48 8d 4c 24 24	 lea	 rcx, QWORD PTR _Proxy_allocator$[rsp]
  0003c	e8 00 00 00 00	 call	 ??$?0UPoint@@@?$allocator@U_Container_proxy@std@@@std@@QEAA@AEBV?$allocator@UPoint@@@1@@Z ; std::allocator<std::_Container_proxy>::allocator<std::_Container_proxy><Point>

; 870  :         _Delete_plain_internal(_Proxy_allocator, _STD exchange(_Get_data()._Myproxy, nullptr));

  00041	48 c7 44 24 34
	00 00 00 00	 mov	 QWORD PTR $T4[rsp], 0
  0004a	48 8b 4c 24 50	 mov	 rcx, QWORD PTR this$[rsp]
  0004f	e8 00 00 00 00	 call	 ?_Get_data@?$deque@UPoint@@V?$allocator@UPoint@@@std@@@std@@AEAAAEAV?$_Deque_val@U?$_Deque_simple_types@UPoint@@@std@@@2@XZ ; std::deque<Point,std::allocator<Point> >::_Get_data
  00054	48 8d 54 24 34	 lea	 rdx, QWORD PTR $T4[rsp]
  00059	48 8b c8	 mov	 rcx, rax
  0005c	e8 00 00 00 00	 call	 ??$exchange@PEAU_Container_proxy@std@@$$T@std@@YAPEAU_Container_proxy@0@AEAPEAU10@$$QEA$$T@Z ; std::exchange<std::_Container_proxy *,std::nullptr_t>
  00061	48 8b d0	 mov	 rdx, rax
  00064	48 8d 4c 24 24	 lea	 rcx, QWORD PTR _Proxy_allocator$[rsp]
  00069	e8 00 00 00 00	 call	 ??$_Delete_plain_internal@V?$allocator@U_Container_proxy@std@@@std@@@std@@YAXAEAV?$allocator@U_Container_proxy@std@@@0@QEAU_Container_proxy@0@@Z ; std::_Delete_plain_internal<std::allocator<std::_Container_proxy> >

; 871  :     }

  0006e	48 8b cc	 mov	 rcx, rsp
  00071	48 8d 15 00 00
	00 00		 lea	 rdx, OFFSET FLAT:??1?$deque@UPoint@@V?$allocator@UPoint@@@std@@@std@@QEAA@XZ$rtcFrameData
  00078	e8 00 00 00 00	 call	 _RTC_CheckStackVars
  0007d	48 83 c4 40	 add	 rsp, 64			; 00000040H
  00081	5f		 pop	 rdi
  00082	c3		 ret	 0
??1?$deque@UPoint@@V?$allocator@UPoint@@@std@@@std@@QEAA@XZ ENDP ; std::deque<Point,std::allocator<Point> >::~deque<Point,std::allocator<Point> >
_TEXT	ENDS
; Function compile flags: /Odtp /RTCsu
; File C:\Program Files (x86)\Microsoft Visual Studio\2019\Community\VC\Tools\MSVC\14.29.30037\include\deque
;	COMDAT ??0?$deque@UPoint@@V?$allocator@UPoint@@@std@@@std@@QEAA@XZ
_TEXT	SEGMENT
$T1 = 32
$T2 = 33
tv75 = 40
this$ = 64
??0?$deque@UPoint@@V?$allocator@UPoint@@@std@@@std@@QEAA@XZ PROC ; std::deque<Point,std::allocator<Point> >::deque<Point,std::allocator<Point> >, COMDAT

; 616  :     deque() : _Mypair(_Zero_then_variadic_args_t{}) {

$LN3:
  00000	48 89 4c 24 08	 mov	 QWORD PTR [rsp+8], rcx
  00005	57		 push	 rdi
  00006	48 83 ec 30	 sub	 rsp, 48			; 00000030H
  0000a	48 8b 44 24 40	 mov	 rax, QWORD PTR this$[rsp]
  0000f	0f b6 54 24 20	 movzx	 edx, BYTE PTR $T1[rsp]
  00014	48 8b c8	 mov	 rcx, rax
  00017	e8 00 00 00 00	 call	 ??$?0$$V@?$_Compressed_pair@V?$allocator@UPoint@@@std@@V?$_Deque_val@U?$_Deque_simple_types@UPoint@@@std@@@2@$00@std@@QEAA@U_Zero_then_variadic_args_t@1@@Z ; std::_Compressed_pair<std::allocator<Point>,std::_Deque_val<std::_Deque_simple_types<Point> >,1>::_Compressed_pair<std::allocator<Point>,std::_Deque_val<std::_Deque_simple_types<Point> >,1><>

; 617  :         _Get_data()._Alloc_proxy(static_cast<_Alproxy_ty>(_Getal()));

  0001c	48 8b 4c 24 40	 mov	 rcx, QWORD PTR this$[rsp]
  00021	e8 00 00 00 00	 call	 ?_Getal@?$deque@UPoint@@V?$allocator@UPoint@@@std@@@std@@AEAAAEAV?$allocator@UPoint@@@2@XZ ; std::deque<Point,std::allocator<Point> >::_Getal
  00026	48 8b d0	 mov	 rdx, rax
  00029	48 8d 4c 24 21	 lea	 rcx, QWORD PTR $T2[rsp]
  0002e	e8 00 00 00 00	 call	 ??$?0UPoint@@@?$allocator@U_Container_proxy@std@@@std@@QEAA@AEBV?$allocator@UPoint@@@1@@Z ; std::allocator<std::_Container_proxy>::allocator<std::_Container_proxy><Point>
  00033	48 89 44 24 28	 mov	 QWORD PTR tv75[rsp], rax
  00038	48 8b 4c 24 40	 mov	 rcx, QWORD PTR this$[rsp]
  0003d	e8 00 00 00 00	 call	 ?_Get_data@?$deque@UPoint@@V?$allocator@UPoint@@@std@@@std@@AEAAAEAV?$_Deque_val@U?$_Deque_simple_types@UPoint@@@std@@@2@XZ ; std::deque<Point,std::allocator<Point> >::_Get_data
  00042	48 8b 4c 24 28	 mov	 rcx, QWORD PTR tv75[rsp]
  00047	48 8b d1	 mov	 rdx, rcx
  0004a	48 8b c8	 mov	 rcx, rax
  0004d	e8 00 00 00 00	 call	 ??$_Alloc_proxy@V?$allocator@U_Container_proxy@std@@@std@@@_Container_base12@std@@QEAAX$$QEAV?$allocator@U_Container_proxy@std@@@1@@Z ; std::_Container_base12::_Alloc_proxy<std::allocator<std::_Container_proxy> >

; 618  :     }

  00052	48 8b 44 24 40	 mov	 rax, QWORD PTR this$[rsp]
  00057	48 83 c4 30	 add	 rsp, 48			; 00000030H
  0005b	5f		 pop	 rdi
  0005c	c3		 ret	 0
??0?$deque@UPoint@@V?$allocator@UPoint@@@std@@@std@@QEAA@XZ ENDP ; std::deque<Point,std::allocator<Point> >::deque<Point,std::allocator<Point> >
_TEXT	ENDS
; Function compile flags: /Odtp /RTCsu
; File C:\Program Files (x86)\Microsoft Visual Studio\2019\Community\VC\Tools\MSVC\14.29.30037\include\deque
;	COMDAT ?_Getblock@?$_Deque_val@U?$_Deque_simple_types@UPoint@@@std@@@std@@QEBA_K_K@Z
_TEXT	SEGMENT
this$ = 16
_Off$ = 24
?_Getblock@?$_Deque_val@U?$_Deque_simple_types@UPoint@@@std@@@std@@QEBA_K_K@Z PROC ; std::_Deque_val<std::_Deque_simple_types<Point> >::_Getblock, COMDAT

; 563  :     size_type _Getblock(size_type _Off) const noexcept {

$LN3:
  00000	48 89 54 24 10	 mov	 QWORD PTR [rsp+16], rdx
  00005	48 89 4c 24 08	 mov	 QWORD PTR [rsp+8], rcx
  0000a	57		 push	 rdi

; 564  :         // NB: _Mapsize and _Block_size are guaranteed to be powers of 2
; 565  :         return (_Off / _Block_size) & (_Mapsize - 1);

  0000b	33 d2		 xor	 edx, edx
  0000d	48 8b 44 24 18	 mov	 rax, QWORD PTR _Off$[rsp]
  00012	b9 02 00 00 00	 mov	 ecx, 2
  00017	48 f7 f1	 div	 rcx
  0001a	48 8b 4c 24 10	 mov	 rcx, QWORD PTR this$[rsp]
  0001f	48 8b 49 10	 mov	 rcx, QWORD PTR [rcx+16]
  00023	48 ff c9	 dec	 rcx
  00026	48 23 c1	 and	 rax, rcx

; 566  :     }

  00029	5f		 pop	 rdi
  0002a	c3		 ret	 0
?_Getblock@?$_Deque_val@U?$_Deque_simple_types@UPoint@@@std@@@std@@QEBA_K_K@Z ENDP ; std::_Deque_val<std::_Deque_simple_types<Point> >::_Getblock
_TEXT	ENDS
; Function compile flags: /Odtp /RTCsu
; File C:\Program Files (x86)\Microsoft Visual Studio\2019\Community\VC\Tools\MSVC\14.29.30037\include\deque
;	COMDAT ??0?$_Deque_val@U?$_Deque_simple_types@UPoint@@@std@@@std@@QEAA@XZ
_TEXT	SEGMENT
this$ = 48
??0?$_Deque_val@U?$_Deque_simple_types@UPoint@@@std@@@std@@QEAA@XZ PROC ; std::_Deque_val<std::_Deque_simple_types<Point> >::_Deque_val<std::_Deque_simple_types<Point> >, COMDAT

; 561  :     _Deque_val() noexcept : _Map(), _Mapsize(0), _Myoff(0), _Mysize(0) {}

$LN3:
  00000	48 89 4c 24 08	 mov	 QWORD PTR [rsp+8], rcx
  00005	57		 push	 rdi
  00006	48 83 ec 20	 sub	 rsp, 32			; 00000020H
  0000a	48 8b 4c 24 30	 mov	 rcx, QWORD PTR this$[rsp]
  0000f	e8 00 00 00 00	 call	 ??0_Container_base12@std@@QEAA@XZ ; std::_Container_base12::_Container_base12
  00014	48 8b 44 24 30	 mov	 rax, QWORD PTR this$[rsp]
  00019	48 c7 40 08 00
	00 00 00	 mov	 QWORD PTR [rax+8], 0
  00021	48 8b 44 24 30	 mov	 rax, QWORD PTR this$[rsp]
  00026	48 c7 40 10 00
	00 00 00	 mov	 QWORD PTR [rax+16], 0
  0002e	48 8b 44 24 30	 mov	 rax, QWORD PTR this$[rsp]
  00033	48 c7 40 18 00
	00 00 00	 mov	 QWORD PTR [rax+24], 0
  0003b	48 8b 44 24 30	 mov	 rax, QWORD PTR this$[rsp]
  00040	48 c7 40 20 00
	00 00 00	 mov	 QWORD PTR [rax+32], 0
  00048	48 8b 44 24 30	 mov	 rax, QWORD PTR this$[rsp]
  0004d	48 83 c4 20	 add	 rsp, 32			; 00000020H
  00051	5f		 pop	 rdi
  00052	c3		 ret	 0
??0?$_Deque_val@U?$_Deque_simple_types@UPoint@@@std@@@std@@QEAA@XZ ENDP ; std::_Deque_val<std::_Deque_simple_types<Point> >::_Deque_val<std::_Deque_simple_types<Point> >
_TEXT	ENDS
; Function compile flags: /Odtp /RTCsu
; File C:\Program Files (x86)\Microsoft Visual Studio\2019\Community\VC\Tools\MSVC\14.29.30037\include\xmemory
;	COMDAT ?allocate@?$allocator@PEAUPoint@@@std@@QEAAPEAPEAUPoint@@_K@Z
_TEXT	SEGMENT
this$ = 48
_Count$ = 56
?allocate@?$allocator@PEAUPoint@@@std@@QEAAPEAPEAUPoint@@_K@Z PROC ; std::allocator<Point *>::allocate, COMDAT

; 838  :     _NODISCARD _CONSTEXPR20_DYNALLOC __declspec(allocator) _Ty* allocate(_CRT_GUARDOVERFLOW const size_t _Count) {

$LN3:
  00000	48 89 54 24 10	 mov	 QWORD PTR [rsp+16], rdx
  00005	48 89 4c 24 08	 mov	 QWORD PTR [rsp+8], rcx
  0000a	57		 push	 rdi
  0000b	48 83 ec 20	 sub	 rsp, 32			; 00000020H

; 839  :         return static_cast<_Ty*>(_Allocate<_New_alignof<_Ty>>(_Get_size_of_n<sizeof(_Ty)>(_Count)));

  0000f	48 8b 4c 24 38	 mov	 rcx, QWORD PTR _Count$[rsp]
  00014	e8 00 00 00 00	 call	 ??$_Get_size_of_n@$07@std@@YA_K_K@Z ; std::_Get_size_of_n<8>
  00019	48 8b c8	 mov	 rcx, rax
  0001c	e8 00 00 00 00	 call	 ??$_Allocate@$0BA@U_Default_allocate_traits@std@@$0A@@std@@YAPEAX_K@Z ; std::_Allocate<16,std::_Default_allocate_traits,0>

; 840  :     }

  00021	48 83 c4 20	 add	 rsp, 32			; 00000020H
  00025	5f		 pop	 rdi
  00026	c3		 ret	 0
?allocate@?$allocator@PEAUPoint@@@std@@QEAAPEAPEAUPoint@@_K@Z ENDP ; std::allocator<Point *>::allocate
_TEXT	ENDS
; Function compile flags: /Odtp /RTCsu
; File C:\Program Files (x86)\Microsoft Visual Studio\2019\Community\VC\Tools\MSVC\14.29.30037\include\xmemory
;	COMDAT ?deallocate@?$allocator@PEAUPoint@@@std@@QEAAXQEAPEAUPoint@@_K@Z
_TEXT	SEGMENT
this$ = 48
_Ptr$ = 56
_Count$ = 64
?deallocate@?$allocator@PEAUPoint@@@std@@QEAAXQEAPEAUPoint@@_K@Z PROC ; std::allocator<Point *>::deallocate, COMDAT

; 833  :     _CONSTEXPR20_DYNALLOC void deallocate(_Ty* const _Ptr, const size_t _Count) {

$LN3:
  00000	4c 89 44 24 18	 mov	 QWORD PTR [rsp+24], r8
  00005	48 89 54 24 10	 mov	 QWORD PTR [rsp+16], rdx
  0000a	48 89 4c 24 08	 mov	 QWORD PTR [rsp+8], rcx
  0000f	57		 push	 rdi
  00010	48 83 ec 20	 sub	 rsp, 32			; 00000020H

; 834  :         // no overflow check on the following multiply; we assume _Allocate did that check
; 835  :         _Deallocate<_New_alignof<_Ty>>(_Ptr, sizeof(_Ty) * _Count);

  00014	48 8b 44 24 40	 mov	 rax, QWORD PTR _Count$[rsp]
  00019	48 c1 e0 03	 shl	 rax, 3
  0001d	48 8b d0	 mov	 rdx, rax
  00020	48 8b 4c 24 38	 mov	 rcx, QWORD PTR _Ptr$[rsp]
  00025	e8 00 00 00 00	 call	 ??$_Deallocate@$0BA@$0A@@std@@YAXPEAX_K@Z ; std::_Deallocate<16,0>

; 836  :     }

  0002a	48 83 c4 20	 add	 rsp, 32			; 00000020H
  0002e	5f		 pop	 rdi
  0002f	c3		 ret	 0
?deallocate@?$allocator@PEAUPoint@@@std@@QEAAXQEAPEAUPoint@@_K@Z ENDP ; std::allocator<Point *>::deallocate
_TEXT	ENDS
; Function compile flags: /Odtp /RTCsu
; File C:\Program Files (x86)\Microsoft Visual Studio\2019\Community\VC\Tools\MSVC\14.29.30037\include\xmemory
;	COMDAT ?max_size@?$_Default_allocator_traits@V?$allocator@UPoint@@@std@@@std@@SA_KAEBV?$allocator@UPoint@@@2@@Z
_TEXT	SEGMENT
__formal$ = 16
?max_size@?$_Default_allocator_traits@V?$allocator@UPoint@@@std@@@std@@SA_KAEBV?$allocator@UPoint@@@2@@Z PROC ; std::_Default_allocator_traits<std::allocator<Point> >::max_size, COMDAT

; 727  :     _NODISCARD static _CONSTEXPR20_DYNALLOC size_type max_size(const _Alloc&) noexcept {

$LN3:
  00000	48 89 4c 24 08	 mov	 QWORD PTR [rsp+8], rcx
  00005	57		 push	 rdi

; 728  :         return static_cast<size_t>(-1) / sizeof(value_type);

  00006	48 b8 ff ff ff
	ff ff ff ff 1f	 mov	 rax, 2305843009213693951 ; 1fffffffffffffffH

; 729  :     }

  00010	5f		 pop	 rdi
  00011	c3		 ret	 0
?max_size@?$_Default_allocator_traits@V?$allocator@UPoint@@@std@@@std@@SA_KAEBV?$allocator@UPoint@@@2@@Z ENDP ; std::_Default_allocator_traits<std::allocator<Point> >::max_size
_TEXT	ENDS
; Function compile flags: /Odtp /RTCsu
; File C:\Program Files (x86)\Microsoft Visual Studio\2019\Community\VC\Tools\MSVC\14.29.30037\include\xmemory
;	COMDAT ?allocate@?$allocator@UPoint@@@std@@QEAAPEAUPoint@@_K@Z
_TEXT	SEGMENT
this$ = 48
_Count$ = 56
?allocate@?$allocator@UPoint@@@std@@QEAAPEAUPoint@@_K@Z PROC ; std::allocator<Point>::allocate, COMDAT

; 838  :     _NODISCARD _CONSTEXPR20_DYNALLOC __declspec(allocator) _Ty* allocate(_CRT_GUARDOVERFLOW const size_t _Count) {

$LN3:
  00000	48 89 54 24 10	 mov	 QWORD PTR [rsp+16], rdx
  00005	48 89 4c 24 08	 mov	 QWORD PTR [rsp+8], rcx
  0000a	57		 push	 rdi
  0000b	48 83 ec 20	 sub	 rsp, 32			; 00000020H

; 839  :         return static_cast<_Ty*>(_Allocate<_New_alignof<_Ty>>(_Get_size_of_n<sizeof(_Ty)>(_Count)));

  0000f	48 8b 4c 24 38	 mov	 rcx, QWORD PTR _Count$[rsp]
  00014	e8 00 00 00 00	 call	 ??$_Get_size_of_n@$07@std@@YA_K_K@Z ; std::_Get_size_of_n<8>
  00019	48 8b c8	 mov	 rcx, rax
  0001c	e8 00 00 00 00	 call	 ??$_Allocate@$0BA@U_Default_allocate_traits@std@@$0A@@std@@YAPEAX_K@Z ; std::_Allocate<16,std::_Default_allocate_traits,0>

; 840  :     }

  00021	48 83 c4 20	 add	 rsp, 32			; 00000020H
  00025	5f		 pop	 rdi
  00026	c3		 ret	 0
?allocate@?$allocator@UPoint@@@std@@QEAAPEAUPoint@@_K@Z ENDP ; std::allocator<Point>::allocate
_TEXT	ENDS
; Function compile flags: /Odtp /RTCsu
; File C:\Program Files (x86)\Microsoft Visual Studio\2019\Community\VC\Tools\MSVC\14.29.30037\include\xmemory
;	COMDAT ?deallocate@?$allocator@UPoint@@@std@@QEAAXQEAUPoint@@_K@Z
_TEXT	SEGMENT
this$ = 48
_Ptr$ = 56
_Count$ = 64
?deallocate@?$allocator@UPoint@@@std@@QEAAXQEAUPoint@@_K@Z PROC ; std::allocator<Point>::deallocate, COMDAT

; 833  :     _CONSTEXPR20_DYNALLOC void deallocate(_Ty* const _Ptr, const size_t _Count) {

$LN3:
  00000	4c 89 44 24 18	 mov	 QWORD PTR [rsp+24], r8
  00005	48 89 54 24 10	 mov	 QWORD PTR [rsp+16], rdx
  0000a	48 89 4c 24 08	 mov	 QWORD PTR [rsp+8], rcx
  0000f	57		 push	 rdi
  00010	48 83 ec 20	 sub	 rsp, 32			; 00000020H

; 834  :         // no overflow check on the following multiply; we assume _Allocate did that check
; 835  :         _Deallocate<_New_alignof<_Ty>>(_Ptr, sizeof(_Ty) * _Count);

  00014	48 8b 44 24 40	 mov	 rax, QWORD PTR _Count$[rsp]
  00019	48 c1 e0 03	 shl	 rax, 3
  0001d	48 8b d0	 mov	 rdx, rax
  00020	48 8b 4c 24 38	 mov	 rcx, QWORD PTR _Ptr$[rsp]
  00025	e8 00 00 00 00	 call	 ??$_Deallocate@$0BA@$0A@@std@@YAXPEAX_K@Z ; std::_Deallocate<16,0>

; 836  :     }

  0002a	48 83 c4 20	 add	 rsp, 32			; 00000020H
  0002e	5f		 pop	 rdi
  0002f	c3		 ret	 0
?deallocate@?$allocator@UPoint@@@std@@QEAAXQEAUPoint@@_K@Z ENDP ; std::allocator<Point>::deallocate
_TEXT	ENDS
; Function compile flags: /Odtp /RTCsu
; File C:\Program Files (x86)\Microsoft Visual Studio\2019\Community\VC\Tools\MSVC\14.29.30037\include\xmemory
;	COMDAT ??0?$allocator@UPoint@@@std@@QEAA@XZ
_TEXT	SEGMENT
this$ = 16
??0?$allocator@UPoint@@@std@@QEAA@XZ PROC		; std::allocator<Point>::allocator<Point>, COMDAT

; 825  :     constexpr allocator() noexcept {}

$LN3:
  00000	48 89 4c 24 08	 mov	 QWORD PTR [rsp+8], rcx
  00005	57		 push	 rdi
  00006	48 8b 44 24 10	 mov	 rax, QWORD PTR this$[rsp]
  0000b	5f		 pop	 rdi
  0000c	c3		 ret	 0
??0?$allocator@UPoint@@@std@@QEAA@XZ ENDP		; std::allocator<Point>::allocator<Point>
_TEXT	ENDS
; Function compile flags: /Odtp /RTCsu
; File C:\Program Files (x86)\Microsoft Visual Studio\2019\Community\VC\Tools\MSVC\14.29.30037\include\xstring
;	COMDAT ?eof@?$_Narrow_char_traits@DH@std@@SAHXZ
_TEXT	SEGMENT
?eof@?$_Narrow_char_traits@DH@std@@SAHXZ PROC		; std::_Narrow_char_traits<char,int>::eof, COMDAT

; 477  :     _NODISCARD static constexpr int_type eof() noexcept {

$LN3:
  00000	40 57		 push	 rdi

; 478  :         return static_cast<int_type>(EOF);

  00002	b8 ff ff ff ff	 mov	 eax, -1

; 479  :     }

  00007	5f		 pop	 rdi
  00008	c3		 ret	 0
?eof@?$_Narrow_char_traits@DH@std@@SAHXZ ENDP		; std::_Narrow_char_traits<char,int>::eof
_TEXT	ENDS
; Function compile flags: /Odtp /RTCsu
; File C:\Program Files (x86)\Microsoft Visual Studio\2019\Community\VC\Tools\MSVC\14.29.30037\include\xstring
;	COMDAT ?eq_int_type@?$_Narrow_char_traits@DH@std@@SA_NAEBH0@Z
_TEXT	SEGMENT
tv65 = 0
_Left$ = 32
_Right$ = 40
?eq_int_type@?$_Narrow_char_traits@DH@std@@SA_NAEBH0@Z PROC ; std::_Narrow_char_traits<char,int>::eq_int_type, COMDAT

; 469  :     _NODISCARD static constexpr bool eq_int_type(const int_type& _Left, const int_type& _Right) noexcept {

$LN5:
  00000	48 89 54 24 10	 mov	 QWORD PTR [rsp+16], rdx
  00005	48 89 4c 24 08	 mov	 QWORD PTR [rsp+8], rcx
  0000a	57		 push	 rdi
  0000b	48 83 ec 10	 sub	 rsp, 16

; 470  :         return _Left == _Right;

  0000f	48 8b 44 24 20	 mov	 rax, QWORD PTR _Left$[rsp]
  00014	48 8b 4c 24 28	 mov	 rcx, QWORD PTR _Right$[rsp]
  00019	8b 09		 mov	 ecx, DWORD PTR [rcx]
  0001b	39 08		 cmp	 DWORD PTR [rax], ecx
  0001d	75 09		 jne	 SHORT $LN3@eq_int_typ
  0001f	c7 04 24 01 00
	00 00		 mov	 DWORD PTR tv65[rsp], 1
  00026	eb 07		 jmp	 SHORT $LN4@eq_int_typ
$LN3@eq_int_typ:
  00028	c7 04 24 00 00
	00 00		 mov	 DWORD PTR tv65[rsp], 0
$LN4@eq_int_typ:
  0002f	0f b6 04 24	 movzx	 eax, BYTE PTR tv65[rsp]

; 471  :     }

  00033	48 83 c4 10	 add	 rsp, 16
  00037	5f		 pop	 rdi
  00038	c3		 ret	 0
?eq_int_type@?$_Narrow_char_traits@DH@std@@SA_NAEBH0@Z ENDP ; std::_Narrow_char_traits<char,int>::eq_int_type
_TEXT	ENDS
; Function compile flags: /Odtp /RTCsu
; File C:\Program Files (x86)\Microsoft Visual Studio\2019\Community\VC\Tools\MSVC\14.29.30037\include\xstring
;	COMDAT ?length@?$_Narrow_char_traits@DH@std@@SA_KQEBD@Z
_TEXT	SEGMENT
_First$ = 48
?length@?$_Narrow_char_traits@DH@std@@SA_KQEBD@Z PROC	; std::_Narrow_char_traits<char,int>::length, COMDAT

; 396  :     _NODISCARD static _CONSTEXPR17 size_t length(_In_z_ const _Elem* const _First) noexcept /* strengthened */ {

$LN3:
  00000	48 89 4c 24 08	 mov	 QWORD PTR [rsp+8], rcx
  00005	57		 push	 rdi
  00006	48 83 ec 20	 sub	 rsp, 32			; 00000020H

; 397  :         // find length of null-terminated string
; 398  : #if _HAS_CXX17
; 399  : #ifdef __cpp_char8_t
; 400  :         if constexpr (is_same_v<_Elem, char8_t>) {
; 401  : #if _HAS_U8_INTRINSICS
; 402  :             return __builtin_u8strlen(_First);
; 403  : #else // ^^^ use u8 intrinsics / no u8 intrinsics vvv
; 404  :             return _Primary_char_traits::length(_First);
; 405  : #endif // _HAS_U8_INTRINSICS
; 406  :         } else
; 407  : #endif // __cpp_char8_t
; 408  :         {
; 409  :             return __builtin_strlen(_First);
; 410  :         }
; 411  : #else // _HAS_CXX17
; 412  :         return _CSTD strlen(reinterpret_cast<const char*>(_First));

  0000a	48 8b 4c 24 30	 mov	 rcx, QWORD PTR _First$[rsp]
  0000f	e8 00 00 00 00	 call	 strlen

; 413  : #endif // _HAS_CXX17
; 414  :     }

  00014	48 83 c4 20	 add	 rsp, 32			; 00000020H
  00018	5f		 pop	 rdi
  00019	c3		 ret	 0
?length@?$_Narrow_char_traits@DH@std@@SA_KQEBD@Z ENDP	; std::_Narrow_char_traits<char,int>::length
_TEXT	ENDS
; Function compile flags: /Odtp /RTCsu
;	COMDAT ??4Cmathlibrary@@QEAAAEAV0@$$QEAV0@@Z
_TEXT	SEGMENT
this$ = 16
__that$ = 24
??4Cmathlibrary@@QEAAAEAV0@$$QEAV0@@Z PROC		; Cmathlibrary::operator=, COMDAT
$LN3:
  00000	48 89 54 24 10	 mov	 QWORD PTR [rsp+16], rdx
  00005	48 89 4c 24 08	 mov	 QWORD PTR [rsp+8], rcx
  0000a	57		 push	 rdi
  0000b	48 8b 44 24 10	 mov	 rax, QWORD PTR this$[rsp]
  00010	5f		 pop	 rdi
  00011	c3		 ret	 0
??4Cmathlibrary@@QEAAAEAV0@$$QEAV0@@Z ENDP		; Cmathlibrary::operator=
_TEXT	ENDS
; Function compile flags: /Odtp /RTCsu
;	COMDAT ??4Cmathlibrary@@QEAAAEAV0@AEBV0@@Z
_TEXT	SEGMENT
this$ = 16
__that$ = 24
??4Cmathlibrary@@QEAAAEAV0@AEBV0@@Z PROC		; Cmathlibrary::operator=, COMDAT
$LN3:
  00000	48 89 54 24 10	 mov	 QWORD PTR [rsp+16], rdx
  00005	48 89 4c 24 08	 mov	 QWORD PTR [rsp+8], rcx
  0000a	57		 push	 rdi
  0000b	48 8b 44 24 10	 mov	 rax, QWORD PTR this$[rsp]
  00010	5f		 pop	 rdi
  00011	c3		 ret	 0
??4Cmathlibrary@@QEAAAEAV0@AEBV0@@Z ENDP		; Cmathlibrary::operator=
_TEXT	ENDS
; Function compile flags: /Odtp /RTCsu
; File D:\dev\crashexplorer\crashexplorer\test_projects\test_project\dynamic_library\math_library.cpp
_TEXT	SEGMENT
ymin$ = 32
min$ = 36
i$5 = 40
y$6 = 44
m$ = 48
i$7 = 52
S$ = 72
i$8 = 116
p$9 = 136
$T10 = 148
tv186 = 160
tv191 = 168
this$ = 192
points$ = 200
n$ = 208
?convexHull@Cmathlibrary@@AEAAXQEAUPoint@@H@Z PROC	; Cmathlibrary::convexHull

; 74   : {

$LN22:
  00000	44 89 44 24 18	 mov	 DWORD PTR [rsp+24], r8d
  00005	48 89 54 24 10	 mov	 QWORD PTR [rsp+16], rdx
  0000a	48 89 4c 24 08	 mov	 QWORD PTR [rsp+8], rcx
  0000f	57		 push	 rdi
  00010	48 81 ec b0 00
	00 00		 sub	 rsp, 176		; 000000b0H
  00017	48 8d 7c 24 20	 lea	 rdi, QWORD PTR [rsp+32]
  0001c	b9 24 00 00 00	 mov	 ecx, 36			; 00000024H
  00021	b8 cc cc cc cc	 mov	 eax, -858993460		; ccccccccH
  00026	f3 ab		 rep stosd
  00028	48 8b 8c 24 c0
	00 00 00	 mov	 rcx, QWORD PTR [rsp+192]

; 75   :   // Find the bottommost point
; 76   :   int ymin = points[0].y, min = 0;

  00030	b8 08 00 00 00	 mov	 eax, 8
  00035	48 6b c0 00	 imul	 rax, rax, 0
  00039	48 8b 8c 24 c8
	00 00 00	 mov	 rcx, QWORD PTR points$[rsp]
  00041	8b 44 01 04	 mov	 eax, DWORD PTR [rcx+rax+4]
  00045	89 44 24 20	 mov	 DWORD PTR ymin$[rsp], eax
  00049	c7 44 24 24 00
	00 00 00	 mov	 DWORD PTR min$[rsp], 0

; 77   :   for (int i = 1; i < n; i++)

  00051	c7 44 24 28 01
	00 00 00	 mov	 DWORD PTR i$5[rsp], 1
  00059	eb 0a		 jmp	 SHORT $LN4@convexHull
$LN2@convexHull:
  0005b	8b 44 24 28	 mov	 eax, DWORD PTR i$5[rsp]
  0005f	ff c0		 inc	 eax
  00061	89 44 24 28	 mov	 DWORD PTR i$5[rsp], eax
$LN4@convexHull:
  00065	8b 84 24 d0 00
	00 00		 mov	 eax, DWORD PTR n$[rsp]
  0006c	39 44 24 28	 cmp	 DWORD PTR i$5[rsp], eax
  00070	7d 6e		 jge	 SHORT $LN3@convexHull

; 78   :   {
; 79   :     int y = points[i].y;

  00072	48 63 44 24 28	 movsxd	 rax, DWORD PTR i$5[rsp]
  00077	48 8b 8c 24 c8
	00 00 00	 mov	 rcx, QWORD PTR points$[rsp]
  0007f	8b 44 c1 04	 mov	 eax, DWORD PTR [rcx+rax*8+4]
  00083	89 44 24 2c	 mov	 DWORD PTR y$6[rsp], eax

; 80   : 
; 81   :     // Pick the bottom-most or chose the left
; 82   :     // most point in case of tie
; 83   :     if ((y < ymin) || (ymin == y &&

  00087	8b 44 24 20	 mov	 eax, DWORD PTR ymin$[rsp]
  0008b	39 44 24 2c	 cmp	 DWORD PTR y$6[rsp], eax
  0008f	7c 2d		 jl	 SHORT $LN18@convexHull
  00091	8b 44 24 2c	 mov	 eax, DWORD PTR y$6[rsp]
  00095	39 44 24 20	 cmp	 DWORD PTR ymin$[rsp], eax
  00099	75 40		 jne	 SHORT $LN17@convexHull
  0009b	48 63 44 24 28	 movsxd	 rax, DWORD PTR i$5[rsp]
  000a0	48 63 4c 24 24	 movsxd	 rcx, DWORD PTR min$[rsp]
  000a5	48 8b 94 24 c8
	00 00 00	 mov	 rdx, QWORD PTR points$[rsp]
  000ad	4c 8b 84 24 c8
	00 00 00	 mov	 r8, QWORD PTR points$[rsp]
  000b5	41 8b 0c c8	 mov	 ecx, DWORD PTR [r8+rcx*8]
  000b9	39 0c c2	 cmp	 DWORD PTR [rdx+rax*8], ecx
  000bc	7d 1d		 jge	 SHORT $LN17@convexHull
$LN18@convexHull:

; 84   :       points[i].x < points[min].x))
; 85   :       ymin = points[i].y, min = i;

  000be	48 63 44 24 28	 movsxd	 rax, DWORD PTR i$5[rsp]
  000c3	48 8b 8c 24 c8
	00 00 00	 mov	 rcx, QWORD PTR points$[rsp]
  000cb	8b 44 c1 04	 mov	 eax, DWORD PTR [rcx+rax*8+4]
  000cf	89 44 24 20	 mov	 DWORD PTR ymin$[rsp], eax
  000d3	8b 44 24 28	 mov	 eax, DWORD PTR i$5[rsp]
  000d7	89 44 24 24	 mov	 DWORD PTR min$[rsp], eax
$LN17@convexHull:

; 86   :   }

  000db	e9 7b ff ff ff	 jmp	 $LN2@convexHull
$LN3@convexHull:

; 87   : 
; 88   :   // Place the bottom-most point at first position
; 89   :   swap(points[0], points[min]);

  000e0	48 63 44 24 24	 movsxd	 rax, DWORD PTR min$[rsp]
  000e5	48 8b 8c 24 c8
	00 00 00	 mov	 rcx, QWORD PTR points$[rsp]
  000ed	48 8d 04 c1	 lea	 rax, QWORD PTR [rcx+rax*8]
  000f1	b9 08 00 00 00	 mov	 ecx, 8
  000f6	48 6b c9 00	 imul	 rcx, rcx, 0
  000fa	48 8b 94 24 c8
	00 00 00	 mov	 rdx, QWORD PTR points$[rsp]
  00102	48 03 d1	 add	 rdx, rcx
  00105	48 8b ca	 mov	 rcx, rdx
  00108	4c 8b c0	 mov	 r8, rax
  0010b	48 8b d1	 mov	 rdx, rcx
  0010e	48 8b 8c 24 c0
	00 00 00	 mov	 rcx, QWORD PTR this$[rsp]
  00116	e8 00 00 00 00	 call	 ?swap@Cmathlibrary@@AEAAXAEAUPoint@@0@Z ; Cmathlibrary::swap

; 90   : 
; 91   :   // Sort n-1 points with respect to the first point.
; 92   :   // A point p1 comes before p2 in sorted output if p2
; 93   :   // has larger polar angle (in counterclockwise
; 94   :   // direction) than p1
; 95   :   p0 = points[0];

  0011b	b8 08 00 00 00	 mov	 eax, 8
  00120	48 6b c0 00	 imul	 rax, rax, 0
  00124	48 8b 8c 24 c8
	00 00 00	 mov	 rcx, QWORD PTR points$[rsp]
  0012c	48 8b 04 01	 mov	 rax, QWORD PTR [rcx+rax]
  00130	48 89 05 00 00
	00 00		 mov	 QWORD PTR ?p0@@3UPoint@@A, rax ; p0

; 96   :   qsort(&points[1], n - 1, sizeof(Point), compare);

  00137	8b 84 24 d0 00
	00 00		 mov	 eax, DWORD PTR n$[rsp]
  0013e	ff c8		 dec	 eax
  00140	48 98		 cdqe
  00142	b9 08 00 00 00	 mov	 ecx, 8
  00147	48 6b c9 01	 imul	 rcx, rcx, 1
  0014b	48 8b 94 24 c8
	00 00 00	 mov	 rdx, QWORD PTR points$[rsp]
  00153	48 03 d1	 add	 rdx, rcx
  00156	48 8b ca	 mov	 rcx, rdx
  00159	4c 8d 0d 00 00
	00 00		 lea	 r9, OFFSET FLAT:?compare@@YAHPEBX0@Z ; compare
  00160	41 b8 08 00 00
	00		 mov	 r8d, 8
  00166	48 8b d0	 mov	 rdx, rax
  00169	ff 15 00 00 00
	00		 call	 QWORD PTR __imp_qsort

; 97   : 
; 98   :   // If two or more points make same angle with p0,
; 99   :   // Remove all but the one that is farthest from p0
; 100  :   // Remember that, in above sorting, our criteria was
; 101  :   // to keep the farthest point at the end when more than
; 102  :   // one points have same angle.
; 103  :   int m = 1; // Initialize size of modified array

  0016f	c7 44 24 30 01
	00 00 00	 mov	 DWORD PTR m$[rsp], 1

; 104  :   for (int i = 1; i < n; i++)

  00177	c7 44 24 34 01
	00 00 00	 mov	 DWORD PTR i$7[rsp], 1
  0017f	eb 0a		 jmp	 SHORT $LN7@convexHull
$LN5@convexHull:
  00181	8b 44 24 34	 mov	 eax, DWORD PTR i$7[rsp]
  00185	ff c0		 inc	 eax
  00187	89 44 24 34	 mov	 DWORD PTR i$7[rsp], eax
$LN7@convexHull:
  0018b	8b 84 24 d0 00
	00 00		 mov	 eax, DWORD PTR n$[rsp]
  00192	39 44 24 34	 cmp	 DWORD PTR i$7[rsp], eax
  00196	0f 8d 81 00 00
	00		 jge	 $LN6@convexHull
$LN8@convexHull:

; 105  :   {
; 106  :     // Keep removing i while angle of i and i+1 is same
; 107  :     // with respect to p0
; 108  :     while (i < n - 1 && orientation(p0, points[i],

  0019c	8b 84 24 d0 00
	00 00		 mov	 eax, DWORD PTR n$[rsp]
  001a3	ff c8		 dec	 eax
  001a5	39 44 24 34	 cmp	 DWORD PTR i$7[rsp], eax
  001a9	7d 41		 jge	 SHORT $LN9@convexHull
  001ab	8b 44 24 34	 mov	 eax, DWORD PTR i$7[rsp]
  001af	ff c0		 inc	 eax
  001b1	48 98		 cdqe
  001b3	48 63 4c 24 34	 movsxd	 rcx, DWORD PTR i$7[rsp]
  001b8	48 8b 94 24 c8
	00 00 00	 mov	 rdx, QWORD PTR points$[rsp]
  001c0	4c 8b 04 c2	 mov	 r8, QWORD PTR [rdx+rax*8]
  001c4	48 8b 84 24 c8
	00 00 00	 mov	 rax, QWORD PTR points$[rsp]
  001cc	48 8b 14 c8	 mov	 rdx, QWORD PTR [rax+rcx*8]
  001d0	48 8b 0d 00 00
	00 00		 mov	 rcx, QWORD PTR ?p0@@3UPoint@@A ; p0
  001d7	e8 00 00 00 00	 call	 ?orientation@@YAHUPoint@@00@Z ; orientation
  001dc	85 c0		 test	 eax, eax
  001de	75 0c		 jne	 SHORT $LN9@convexHull

; 109  :       points[i + 1]) == 0)
; 110  :       i++;

  001e0	8b 44 24 34	 mov	 eax, DWORD PTR i$7[rsp]
  001e4	ff c0		 inc	 eax
  001e6	89 44 24 34	 mov	 DWORD PTR i$7[rsp], eax
  001ea	eb b0		 jmp	 SHORT $LN8@convexHull
$LN9@convexHull:

; 111  : 
; 112  : 
; 113  :     points[m] = points[i];

  001ec	48 63 44 24 34	 movsxd	 rax, DWORD PTR i$7[rsp]
  001f1	48 8b 8c 24 c8
	00 00 00	 mov	 rcx, QWORD PTR points$[rsp]
  001f9	48 8b 04 c1	 mov	 rax, QWORD PTR [rcx+rax*8]
  001fd	48 63 4c 24 30	 movsxd	 rcx, DWORD PTR m$[rsp]
  00202	48 8b 94 24 c8
	00 00 00	 mov	 rdx, QWORD PTR points$[rsp]
  0020a	48 89 04 ca	 mov	 QWORD PTR [rdx+rcx*8], rax

; 114  :     m++;  // Update size of modified array

  0020e	8b 44 24 30	 mov	 eax, DWORD PTR m$[rsp]
  00212	ff c0		 inc	 eax
  00214	89 44 24 30	 mov	 DWORD PTR m$[rsp], eax

; 115  :   }

  00218	e9 64 ff ff ff	 jmp	 $LN5@convexHull
$LN6@convexHull:

; 116  : 
; 117  :   // If modified array of points has less than 3 points,
; 118  :   // convex hull is not possible
; 119  :   if (m < 3) return;

  0021d	83 7c 24 30 03	 cmp	 DWORD PTR m$[rsp], 3
  00222	7d 05		 jge	 SHORT $LN19@convexHull
  00224	e9 e4 01 00 00	 jmp	 $LN1@convexHull
$LN19@convexHull:

; 120  : 
; 121  :   // Create an empty stack and push first three points
; 122  :   // to it.
; 123  :   std::stack<Point> S;

  00229	48 8d 4c 24 48	 lea	 rcx, QWORD PTR S$[rsp]
  0022e	e8 00 00 00 00	 call	 ??0?$stack@UPoint@@V?$deque@UPoint@@V?$allocator@UPoint@@@std@@@std@@@std@@QEAA@XZ ; std::stack<Point,std::deque<Point,std::allocator<Point> > >::stack<Point,std::deque<Point,std::allocator<Point> > >
  00233	90		 npad	 1

; 124  :   S.push(points[0]);

  00234	b8 08 00 00 00	 mov	 eax, 8
  00239	48 6b c0 00	 imul	 rax, rax, 0
  0023d	48 8b 8c 24 c8
	00 00 00	 mov	 rcx, QWORD PTR points$[rsp]
  00245	48 03 c8	 add	 rcx, rax
  00248	48 8b c1	 mov	 rax, rcx
  0024b	48 8b d0	 mov	 rdx, rax
  0024e	48 8d 4c 24 48	 lea	 rcx, QWORD PTR S$[rsp]
  00253	e8 00 00 00 00	 call	 ?push@?$stack@UPoint@@V?$deque@UPoint@@V?$allocator@UPoint@@@std@@@std@@@std@@QEAAXAEBUPoint@@@Z ; std::stack<Point,std::deque<Point,std::allocator<Point> > >::push

; 125  :   S.push(points[1]);

  00258	b8 08 00 00 00	 mov	 eax, 8
  0025d	48 6b c0 01	 imul	 rax, rax, 1
  00261	48 8b 8c 24 c8
	00 00 00	 mov	 rcx, QWORD PTR points$[rsp]
  00269	48 03 c8	 add	 rcx, rax
  0026c	48 8b c1	 mov	 rax, rcx
  0026f	48 8b d0	 mov	 rdx, rax
  00272	48 8d 4c 24 48	 lea	 rcx, QWORD PTR S$[rsp]
  00277	e8 00 00 00 00	 call	 ?push@?$stack@UPoint@@V?$deque@UPoint@@V?$allocator@UPoint@@@std@@@std@@@std@@QEAAXAEBUPoint@@@Z ; std::stack<Point,std::deque<Point,std::allocator<Point> > >::push

; 126  :   S.push(points[2]);

  0027c	b8 08 00 00 00	 mov	 eax, 8
  00281	48 6b c0 02	 imul	 rax, rax, 2
  00285	48 8b 8c 24 c8
	00 00 00	 mov	 rcx, QWORD PTR points$[rsp]
  0028d	48 03 c8	 add	 rcx, rax
  00290	48 8b c1	 mov	 rax, rcx
  00293	48 8b d0	 mov	 rdx, rax
  00296	48 8d 4c 24 48	 lea	 rcx, QWORD PTR S$[rsp]
  0029b	e8 00 00 00 00	 call	 ?push@?$stack@UPoint@@V?$deque@UPoint@@V?$allocator@UPoint@@@std@@@std@@@std@@QEAAXAEBUPoint@@@Z ; std::stack<Point,std::deque<Point,std::allocator<Point> > >::push

; 127  : 
; 128  :   // Process remaining n-3 points
; 129  :   for (int i = 3; i < m; i++)

  002a0	c7 44 24 74 03
	00 00 00	 mov	 DWORD PTR i$8[rsp], 3
  002a8	eb 0a		 jmp	 SHORT $LN12@convexHull
$LN10@convexHull:
  002aa	8b 44 24 74	 mov	 eax, DWORD PTR i$8[rsp]
  002ae	ff c0		 inc	 eax
  002b0	89 44 24 74	 mov	 DWORD PTR i$8[rsp], eax
$LN12@convexHull:
  002b4	8b 44 24 30	 mov	 eax, DWORD PTR m$[rsp]
  002b8	39 44 24 74	 cmp	 DWORD PTR i$8[rsp], eax
  002bc	0f 8d a7 00 00
	00		 jge	 $LN15@convexHull
$LN13@convexHull:

; 130  :   {
; 131  :     // Keep removing top while the angle formed by
; 132  :     // points next-to-top, top, and points[i] makes
; 133  :     // a non-left turn
; 134  :     while (S.size() > 1 && orientation(nextToTop(S), S.top(), points[i]) != 2)

  002c2	48 8d 4c 24 48	 lea	 rcx, QWORD PTR S$[rsp]
  002c7	e8 00 00 00 00	 call	 ?size@?$stack@UPoint@@V?$deque@UPoint@@V?$allocator@UPoint@@@std@@@std@@@std@@QEBA_KXZ ; std::stack<Point,std::deque<Point,std::allocator<Point> > >::size
  002cc	48 83 f8 01	 cmp	 rax, 1
  002d0	76 74		 jbe	 SHORT $LN14@convexHull
  002d2	48 63 44 24 74	 movsxd	 rax, DWORD PTR i$8[rsp]
  002d7	48 89 84 24 a0
	00 00 00	 mov	 QWORD PTR tv186[rsp], rax
  002df	48 8d 4c 24 48	 lea	 rcx, QWORD PTR S$[rsp]
  002e4	e8 00 00 00 00	 call	 ?top@?$stack@UPoint@@V?$deque@UPoint@@V?$allocator@UPoint@@@std@@@std@@@std@@QEAAAEAUPoint@@XZ ; std::stack<Point,std::deque<Point,std::allocator<Point> > >::top
  002e9	48 89 84 24 a8
	00 00 00	 mov	 QWORD PTR tv191[rsp], rax
  002f1	4c 8d 44 24 48	 lea	 r8, QWORD PTR S$[rsp]
  002f6	48 8d 94 24 94
	00 00 00	 lea	 rdx, QWORD PTR $T10[rsp]
  002fe	48 8b 8c 24 c0
	00 00 00	 mov	 rcx, QWORD PTR this$[rsp]
  00306	e8 00 00 00 00	 call	 ?nextToTop@Cmathlibrary@@AEAA?AUPoint@@AEAV?$stack@UPoint@@V?$deque@UPoint@@V?$allocator@UPoint@@@std@@@std@@@std@@@Z ; Cmathlibrary::nextToTop
  0030b	48 8b 8c 24 c8
	00 00 00	 mov	 rcx, QWORD PTR points$[rsp]
  00313	48 8b 94 24 a0
	00 00 00	 mov	 rdx, QWORD PTR tv186[rsp]
  0031b	4c 8b 04 d1	 mov	 r8, QWORD PTR [rcx+rdx*8]
  0031f	48 8b 8c 24 a8
	00 00 00	 mov	 rcx, QWORD PTR tv191[rsp]
  00327	48 8b 11	 mov	 rdx, QWORD PTR [rcx]
  0032a	48 8b 08	 mov	 rcx, QWORD PTR [rax]
  0032d	e8 00 00 00 00	 call	 ?orientation@@YAHUPoint@@00@Z ; orientation
  00332	83 f8 02	 cmp	 eax, 2
  00335	74 0f		 je	 SHORT $LN14@convexHull

; 135  :       S.pop();

  00337	48 8d 4c 24 48	 lea	 rcx, QWORD PTR S$[rsp]
  0033c	e8 00 00 00 00	 call	 ?pop@?$stack@UPoint@@V?$deque@UPoint@@V?$allocator@UPoint@@@std@@@std@@@std@@QEAAXXZ ; std::stack<Point,std::deque<Point,std::allocator<Point> > >::pop
  00341	e9 7c ff ff ff	 jmp	 $LN13@convexHull
$LN14@convexHull:

; 136  :     S.push(points[i]);

  00346	48 63 44 24 74	 movsxd	 rax, DWORD PTR i$8[rsp]
  0034b	48 8b 8c 24 c8
	00 00 00	 mov	 rcx, QWORD PTR points$[rsp]
  00353	48 8d 04 c1	 lea	 rax, QWORD PTR [rcx+rax*8]
  00357	48 8b d0	 mov	 rdx, rax
  0035a	48 8d 4c 24 48	 lea	 rcx, QWORD PTR S$[rsp]
  0035f	e8 00 00 00 00	 call	 ?push@?$stack@UPoint@@V?$deque@UPoint@@V?$allocator@UPoint@@@std@@@std@@@std@@QEAAXAEBUPoint@@@Z ; std::stack<Point,std::deque<Point,std::allocator<Point> > >::push

; 137  :   }

  00364	e9 41 ff ff ff	 jmp	 $LN10@convexHull
$LN15@convexHull:

; 138  : 
; 139  :   // Now stack has the output points, print contents of stack
; 140  :   while (!S.empty())

  00369	48 8d 4c 24 48	 lea	 rcx, QWORD PTR S$[rsp]
  0036e	e8 00 00 00 00	 call	 ?empty@?$stack@UPoint@@V?$deque@UPoint@@V?$allocator@UPoint@@@std@@@std@@@std@@QEBA_NXZ ; std::stack<Point,std::deque<Point,std::allocator<Point> > >::empty
  00373	0f b6 c0	 movzx	 eax, al
  00376	85 c0		 test	 eax, eax
  00378	0f 85 85 00 00
	00		 jne	 $LN16@convexHull

; 141  :   {
; 142  :     Point p = S.top();

  0037e	48 8d 4c 24 48	 lea	 rcx, QWORD PTR S$[rsp]
  00383	e8 00 00 00 00	 call	 ?top@?$stack@UPoint@@V?$deque@UPoint@@V?$allocator@UPoint@@@std@@@std@@@std@@QEAAAEAUPoint@@XZ ; std::stack<Point,std::deque<Point,std::allocator<Point> > >::top
  00388	48 8b 00	 mov	 rax, QWORD PTR [rax]
  0038b	48 89 84 24 88
	00 00 00	 mov	 QWORD PTR p$9[rsp], rax

; 143  :     std::cout << "(" << p.x << ", " << p.y << ")" << std::endl;

  00393	48 8d 15 00 00
	00 00		 lea	 rdx, OFFSET FLAT:$SG37214
  0039a	48 8b 0d 00 00
	00 00		 mov	 rcx, QWORD PTR __imp_?cout@std@@3V?$basic_ostream@DU?$char_traits@D@std@@@1@A
  003a1	e8 00 00 00 00	 call	 ??$?6U?$char_traits@D@std@@@std@@YAAEAV?$basic_ostream@DU?$char_traits@D@std@@@0@AEAV10@PEBD@Z ; std::operator<<<std::char_traits<char> >
  003a6	8b 94 24 88 00
	00 00		 mov	 edx, DWORD PTR p$9[rsp]
  003ad	48 8b c8	 mov	 rcx, rax
  003b0	ff 15 00 00 00
	00		 call	 QWORD PTR __imp_??6?$basic_ostream@DU?$char_traits@D@std@@@std@@QEAAAEAV01@H@Z
  003b6	48 8d 15 00 00
	00 00		 lea	 rdx, OFFSET FLAT:$SG37213
  003bd	48 8b c8	 mov	 rcx, rax
  003c0	e8 00 00 00 00	 call	 ??$?6U?$char_traits@D@std@@@std@@YAAEAV?$basic_ostream@DU?$char_traits@D@std@@@0@AEAV10@PEBD@Z ; std::operator<<<std::char_traits<char> >
  003c5	8b 94 24 8c 00
	00 00		 mov	 edx, DWORD PTR p$9[rsp+4]
  003cc	48 8b c8	 mov	 rcx, rax
  003cf	ff 15 00 00 00
	00		 call	 QWORD PTR __imp_??6?$basic_ostream@DU?$char_traits@D@std@@@std@@QEAAAEAV01@H@Z
  003d5	48 8d 15 00 00
	00 00		 lea	 rdx, OFFSET FLAT:$SG37212
  003dc	48 8b c8	 mov	 rcx, rax
  003df	e8 00 00 00 00	 call	 ??$?6U?$char_traits@D@std@@@std@@YAAEAV?$basic_ostream@DU?$char_traits@D@std@@@0@AEAV10@PEBD@Z ; std::operator<<<std::char_traits<char> >
  003e4	48 8d 15 00 00
	00 00		 lea	 rdx, OFFSET FLAT:??$endl@DU?$char_traits@D@std@@@std@@YAAEAV?$basic_ostream@DU?$char_traits@D@std@@@0@AEAV10@@Z ; std::endl<char,std::char_traits<char> >
  003eb	48 8b c8	 mov	 rcx, rax
  003ee	ff 15 00 00 00
	00		 call	 QWORD PTR __imp_??6?$basic_ostream@DU?$char_traits@D@std@@@std@@QEAAAEAV01@P6AAEAV01@AEAV01@@Z@Z

; 144  :     S.pop();

  003f4	48 8d 4c 24 48	 lea	 rcx, QWORD PTR S$[rsp]
  003f9	e8 00 00 00 00	 call	 ?pop@?$stack@UPoint@@V?$deque@UPoint@@V?$allocator@UPoint@@@std@@@std@@@std@@QEAAXXZ ; std::stack<Point,std::deque<Point,std::allocator<Point> > >::pop

; 145  :   }

  003fe	e9 66 ff ff ff	 jmp	 $LN15@convexHull
$LN16@convexHull:

; 146  : }

  00403	48 8d 4c 24 48	 lea	 rcx, QWORD PTR S$[rsp]
  00408	e8 00 00 00 00	 call	 ??1?$stack@UPoint@@V?$deque@UPoint@@V?$allocator@UPoint@@@std@@@std@@@std@@QEAA@XZ
$LN1@convexHull:
  0040d	48 8b cc	 mov	 rcx, rsp
  00410	48 8d 15 00 00
	00 00		 lea	 rdx, OFFSET FLAT:?convexHull@Cmathlibrary@@AEAAXQEAUPoint@@H@Z$rtcFrameData
  00417	e8 00 00 00 00	 call	 _RTC_CheckStackVars
  0041c	48 81 c4 b0 00
	00 00		 add	 rsp, 176		; 000000b0H
  00423	5f		 pop	 rdi
  00424	c3		 ret	 0
?convexHull@Cmathlibrary@@AEAAXQEAUPoint@@H@Z ENDP	; Cmathlibrary::convexHull
_TEXT	ENDS
text$x	SEGMENT
ymin$ = 32
min$ = 36
i$5 = 40
y$6 = 44
m$ = 48
i$7 = 52
S$ = 72
i$8 = 116
p$9 = 136
$T10 = 148
tv186 = 160
tv191 = 168
this$ = 192
points$ = 200
n$ = 208
?dtor$0@?0??convexHull@Cmathlibrary@@AEAAXQEAUPoint@@H@Z@4HA PROC ; `Cmathlibrary::convexHull'::`1'::dtor$0
  00000	48 89 4c 24 08	 mov	 QWORD PTR [rsp+8], rcx
  00005	48 89 54 24 10	 mov	 QWORD PTR [rsp+16], rdx
  0000a	55		 push	 rbp
  0000b	57		 push	 rdi
  0000c	48 83 ec 28	 sub	 rsp, 40			; 00000028H
  00010	48 8b ea	 mov	 rbp, rdx
  00013	48 8d 4d 48	 lea	 rcx, QWORD PTR S$[rbp]
  00017	e8 00 00 00 00	 call	 ??1?$stack@UPoint@@V?$deque@UPoint@@V?$allocator@UPoint@@@std@@@std@@@std@@QEAA@XZ
  0001c	48 83 c4 28	 add	 rsp, 40			; 00000028H
  00020	5f		 pop	 rdi
  00021	5d		 pop	 rbp
  00022	c3		 ret	 0
?dtor$0@?0??convexHull@Cmathlibrary@@AEAAXQEAUPoint@@H@Z@4HA ENDP ; `Cmathlibrary::convexHull'::`1'::dtor$0
text$x	ENDS
; Function compile flags: /Odtp /RTCsu
text$x	SEGMENT
ymin$ = 32
min$ = 36
i$5 = 40
y$6 = 44
m$ = 48
i$7 = 52
S$ = 72
i$8 = 116
p$9 = 136
$T10 = 148
tv186 = 160
tv191 = 168
this$ = 192
points$ = 200
n$ = 208
?dtor$0@?0??convexHull@Cmathlibrary@@AEAAXQEAUPoint@@H@Z@4HA PROC ; `Cmathlibrary::convexHull'::`1'::dtor$0
  00000	48 89 4c 24 08	 mov	 QWORD PTR [rsp+8], rcx
  00005	48 89 54 24 10	 mov	 QWORD PTR [rsp+16], rdx
  0000a	55		 push	 rbp
  0000b	57		 push	 rdi
  0000c	48 83 ec 28	 sub	 rsp, 40			; 00000028H
  00010	48 8b ea	 mov	 rbp, rdx
  00013	48 8d 4d 48	 lea	 rcx, QWORD PTR S$[rbp]
  00017	e8 00 00 00 00	 call	 ??1?$stack@UPoint@@V?$deque@UPoint@@V?$allocator@UPoint@@@std@@@std@@@std@@QEAA@XZ
  0001c	48 83 c4 28	 add	 rsp, 40			; 00000028H
  00020	5f		 pop	 rdi
  00021	5d		 pop	 rbp
  00022	c3		 ret	 0
?dtor$0@?0??convexHull@Cmathlibrary@@AEAAXQEAUPoint@@H@Z@4HA ENDP ; `Cmathlibrary::convexHull'::`1'::dtor$0
text$x	ENDS
; Function compile flags: /Odtp /RTCsu
; File D:\dev\crashexplorer\crashexplorer\test_projects\test_project\dynamic_library\math_library.cpp
_TEXT	SEGMENT
temp$ = 40
this$ = 80
p1$ = 88
p2$ = 96
?swap@Cmathlibrary@@AEAAXAEAUPoint@@0@Z PROC		; Cmathlibrary::swap

; 29   : {

$LN3:
  00000	4c 89 44 24 18	 mov	 QWORD PTR [rsp+24], r8
  00005	48 89 54 24 10	 mov	 QWORD PTR [rsp+16], rdx
  0000a	48 89 4c 24 08	 mov	 QWORD PTR [rsp+8], rcx
  0000f	57		 push	 rdi
  00010	48 83 ec 40	 sub	 rsp, 64			; 00000040H
  00014	48 8d 7c 24 20	 lea	 rdi, QWORD PTR [rsp+32]
  00019	b9 08 00 00 00	 mov	 ecx, 8
  0001e	b8 cc cc cc cc	 mov	 eax, -858993460		; ccccccccH
  00023	f3 ab		 rep stosd
  00025	48 8b 4c 24 50	 mov	 rcx, QWORD PTR [rsp+80]

; 30   :   Point temp = p1;

  0002a	48 8b 44 24 58	 mov	 rax, QWORD PTR p1$[rsp]
  0002f	48 8b 00	 mov	 rax, QWORD PTR [rax]
  00032	48 89 44 24 28	 mov	 QWORD PTR temp$[rsp], rax

; 31   :   p1 = p2;

  00037	48 8b 44 24 60	 mov	 rax, QWORD PTR p2$[rsp]
  0003c	48 8b 00	 mov	 rax, QWORD PTR [rax]
  0003f	48 8b 4c 24 58	 mov	 rcx, QWORD PTR p1$[rsp]
  00044	48 89 01	 mov	 QWORD PTR [rcx], rax

; 32   :   p2 = temp;

  00047	48 8b 44 24 60	 mov	 rax, QWORD PTR p2$[rsp]
  0004c	48 8b 4c 24 28	 mov	 rcx, QWORD PTR temp$[rsp]
  00051	48 89 08	 mov	 QWORD PTR [rax], rcx

; 33   : }

  00054	48 8b cc	 mov	 rcx, rsp
  00057	48 8d 15 00 00
	00 00		 lea	 rdx, OFFSET FLAT:?swap@Cmathlibrary@@AEAAXAEAUPoint@@0@Z$rtcFrameData
  0005e	e8 00 00 00 00	 call	 _RTC_CheckStackVars
  00063	48 83 c4 40	 add	 rsp, 64			; 00000040H
  00067	5f		 pop	 rdi
  00068	c3		 ret	 0
?swap@Cmathlibrary@@AEAAXAEAUPoint@@0@Z ENDP		; Cmathlibrary::swap
_TEXT	ENDS
; Function compile flags: /Odtp /RTCsu
; File D:\dev\crashexplorer\crashexplorer\test_projects\test_project\dynamic_library\math_library.cpp
_TEXT	SEGMENT
p$ = 40
res$ = 72
this$ = 112
__$ReturnUdt$ = 120
S$ = 128
?nextToTop@Cmathlibrary@@AEAA?AUPoint@@AEAV?$stack@UPoint@@V?$deque@UPoint@@V?$allocator@UPoint@@@std@@@std@@@std@@@Z PROC ; Cmathlibrary::nextToTop

; 16   : {

$LN3:
  00000	4c 89 44 24 18	 mov	 QWORD PTR [rsp+24], r8
  00005	48 89 54 24 10	 mov	 QWORD PTR [rsp+16], rdx
  0000a	48 89 4c 24 08	 mov	 QWORD PTR [rsp+8], rcx
  0000f	57		 push	 rdi
  00010	48 83 ec 60	 sub	 rsp, 96			; 00000060H
  00014	48 8d 7c 24 20	 lea	 rdi, QWORD PTR [rsp+32]
  00019	b9 10 00 00 00	 mov	 ecx, 16
  0001e	b8 cc cc cc cc	 mov	 eax, -858993460		; ccccccccH
  00023	f3 ab		 rep stosd
  00025	48 8b 4c 24 70	 mov	 rcx, QWORD PTR [rsp+112]

; 17   :   Point p = S.top();

  0002a	48 8b 8c 24 80
	00 00 00	 mov	 rcx, QWORD PTR S$[rsp]
  00032	e8 00 00 00 00	 call	 ?top@?$stack@UPoint@@V?$deque@UPoint@@V?$allocator@UPoint@@@std@@@std@@@std@@QEAAAEAUPoint@@XZ ; std::stack<Point,std::deque<Point,std::allocator<Point> > >::top
  00037	48 8b 00	 mov	 rax, QWORD PTR [rax]
  0003a	48 89 44 24 28	 mov	 QWORD PTR p$[rsp], rax

; 18   :   S.pop();

  0003f	48 8b 8c 24 80
	00 00 00	 mov	 rcx, QWORD PTR S$[rsp]
  00047	e8 00 00 00 00	 call	 ?pop@?$stack@UPoint@@V?$deque@UPoint@@V?$allocator@UPoint@@@std@@@std@@@std@@QEAAXXZ ; std::stack<Point,std::deque<Point,std::allocator<Point> > >::pop

; 19   :     
; 20   :   *((unsigned int*)0) = 0xDEAD; //TEST crash: write access violation

  0004c	c7 04 25 00 00
	00 00 ad de 00
	00		 mov	 DWORD PTR ds:0, 57005	; 0000deadH

; 21   : 
; 22   :   Point res = S.top();

  00057	48 8b 8c 24 80
	00 00 00	 mov	 rcx, QWORD PTR S$[rsp]
  0005f	e8 00 00 00 00	 call	 ?top@?$stack@UPoint@@V?$deque@UPoint@@V?$allocator@UPoint@@@std@@@std@@@std@@QEAAAEAUPoint@@XZ ; std::stack<Point,std::deque<Point,std::allocator<Point> > >::top
  00064	48 8b 00	 mov	 rax, QWORD PTR [rax]
  00067	48 89 44 24 48	 mov	 QWORD PTR res$[rsp], rax

; 23   :   S.push(p);

  0006c	48 8d 54 24 28	 lea	 rdx, QWORD PTR p$[rsp]
  00071	48 8b 8c 24 80
	00 00 00	 mov	 rcx, QWORD PTR S$[rsp]
  00079	e8 00 00 00 00	 call	 ?push@?$stack@UPoint@@V?$deque@UPoint@@V?$allocator@UPoint@@@std@@@std@@@std@@QEAAXAEBUPoint@@@Z ; std::stack<Point,std::deque<Point,std::allocator<Point> > >::push

; 24   :   return res;

  0007e	48 8b 44 24 78	 mov	 rax, QWORD PTR __$ReturnUdt$[rsp]
  00083	48 8b 4c 24 48	 mov	 rcx, QWORD PTR res$[rsp]
  00088	48 89 08	 mov	 QWORD PTR [rax], rcx
  0008b	48 8b 44 24 78	 mov	 rax, QWORD PTR __$ReturnUdt$[rsp]

; 25   : }

  00090	48 8b f8	 mov	 rdi, rax
  00093	48 8b cc	 mov	 rcx, rsp
  00096	48 8d 15 00 00
	00 00		 lea	 rdx, OFFSET FLAT:?nextToTop@Cmathlibrary@@AEAA?AUPoint@@AEAV?$stack@UPoint@@V?$deque@UPoint@@V?$allocator@UPoint@@@std@@@std@@@std@@@Z$rtcFrameData
  0009d	e8 00 00 00 00	 call	 _RTC_CheckStackVars
  000a2	48 8b c7	 mov	 rax, rdi
  000a5	48 83 c4 60	 add	 rsp, 96			; 00000060H
  000a9	5f		 pop	 rdi
  000aa	c3		 ret	 0
?nextToTop@Cmathlibrary@@AEAA?AUPoint@@AEAV?$stack@UPoint@@V?$deque@UPoint@@V?$allocator@UPoint@@@std@@@std@@@std@@@Z ENDP ; Cmathlibrary::nextToTop
_TEXT	ENDS
; Function compile flags: /Odtp /RTCsu
; File D:\dev\crashexplorer\crashexplorer\test_projects\test_project\dynamic_library\math_library.cpp
_TEXT	SEGMENT
points$ = 48
n$ = 116
__$ArrayPad$ = 128
this$ = 160
?calc_convex_hull@Cmathlibrary@@QEAAHXZ PROC		; Cmathlibrary::calc_convex_hull

; 150  : {

$LN3:
  00000	48 89 4c 24 08	 mov	 QWORD PTR [rsp+8], rcx
  00005	57		 push	 rdi
  00006	48 81 ec 90 00
	00 00		 sub	 rsp, 144		; 00000090H
  0000d	48 8d 7c 24 20	 lea	 rdi, QWORD PTR [rsp+32]
  00012	b9 1c 00 00 00	 mov	 ecx, 28
  00017	b8 cc cc cc cc	 mov	 eax, -858993460		; ccccccccH
  0001c	f3 ab		 rep stosd
  0001e	48 8b 8c 24 a0
	00 00 00	 mov	 rcx, QWORD PTR [rsp+160]
  00026	48 8b 05 00 00
	00 00		 mov	 rax, QWORD PTR __security_cookie
  0002d	48 33 c4	 xor	 rax, rsp
  00030	48 89 84 24 80
	00 00 00	 mov	 QWORD PTR __$ArrayPad$[rsp], rax

; 151  :   Point points[] = { {0, 3}, {1, 1}, {2, 2}, {4, 4},

  00038	c7 44 24 30 00
	00 00 00	 mov	 DWORD PTR points$[rsp], 0
  00040	c7 44 24 34 03
	00 00 00	 mov	 DWORD PTR points$[rsp+4], 3
  00048	c7 44 24 38 01
	00 00 00	 mov	 DWORD PTR points$[rsp+8], 1
  00050	c7 44 24 3c 01
	00 00 00	 mov	 DWORD PTR points$[rsp+12], 1
  00058	c7 44 24 40 02
	00 00 00	 mov	 DWORD PTR points$[rsp+16], 2
  00060	c7 44 24 44 02
	00 00 00	 mov	 DWORD PTR points$[rsp+20], 2
  00068	c7 44 24 48 04
	00 00 00	 mov	 DWORD PTR points$[rsp+24], 4
  00070	c7 44 24 4c 04
	00 00 00	 mov	 DWORD PTR points$[rsp+28], 4

; 152  :                     {0, 0}, {1, 2}, {3, 1}, {3, 3} };

  00078	c7 44 24 50 00
	00 00 00	 mov	 DWORD PTR points$[rsp+32], 0
  00080	c7 44 24 54 00
	00 00 00	 mov	 DWORD PTR points$[rsp+36], 0
  00088	c7 44 24 58 01
	00 00 00	 mov	 DWORD PTR points$[rsp+40], 1
  00090	c7 44 24 5c 02
	00 00 00	 mov	 DWORD PTR points$[rsp+44], 2
  00098	c7 44 24 60 03
	00 00 00	 mov	 DWORD PTR points$[rsp+48], 3
  000a0	c7 44 24 64 01
	00 00 00	 mov	 DWORD PTR points$[rsp+52], 1
  000a8	c7 44 24 68 03
	00 00 00	 mov	 DWORD PTR points$[rsp+56], 3
  000b0	c7 44 24 6c 03
	00 00 00	 mov	 DWORD PTR points$[rsp+60], 3

; 153  :   int n = sizeof(points) / sizeof(points[0]);

  000b8	c7 44 24 74 08
	00 00 00	 mov	 DWORD PTR n$[rsp], 8

; 154  :   convexHull(points, n);

  000c0	44 8b 44 24 74	 mov	 r8d, DWORD PTR n$[rsp]
  000c5	48 8d 54 24 30	 lea	 rdx, QWORD PTR points$[rsp]
  000ca	48 8b 8c 24 a0
	00 00 00	 mov	 rcx, QWORD PTR this$[rsp]
  000d2	e8 00 00 00 00	 call	 ?convexHull@Cmathlibrary@@AEAAXQEAUPoint@@H@Z ; Cmathlibrary::convexHull

; 155  :   return 0;

  000d7	33 c0		 xor	 eax, eax

; 156  : }

  000d9	8b f8		 mov	 edi, eax
  000db	48 8b cc	 mov	 rcx, rsp
  000de	48 8d 15 00 00
	00 00		 lea	 rdx, OFFSET FLAT:?calc_convex_hull@Cmathlibrary@@QEAAHXZ$rtcFrameData
  000e5	e8 00 00 00 00	 call	 _RTC_CheckStackVars
  000ea	8b c7		 mov	 eax, edi
  000ec	48 8b 8c 24 80
	00 00 00	 mov	 rcx, QWORD PTR __$ArrayPad$[rsp]
  000f4	48 33 cc	 xor	 rcx, rsp
  000f7	e8 00 00 00 00	 call	 __security_check_cookie
  000fc	48 81 c4 90 00
	00 00		 add	 rsp, 144		; 00000090H
  00103	5f		 pop	 rdi
  00104	c3		 ret	 0
?calc_convex_hull@Cmathlibrary@@QEAAHXZ ENDP		; Cmathlibrary::calc_convex_hull
_TEXT	ENDS
; Function compile flags: /Odtp /RTCsu
; File D:\dev\crashexplorer\crashexplorer\test_projects\test_project\dynamic_library\math_library.hpp
;	COMDAT ??0Cmathlibrary@@QEAA@XZ
_TEXT	SEGMENT
this$ = 16
??0Cmathlibrary@@QEAA@XZ PROC				; Cmathlibrary::Cmathlibrary, COMDAT

; 24   :   Cmathlibrary(void)

$LN3:
  00000	48 89 4c 24 08	 mov	 QWORD PTR [rsp+8], rcx
  00005	57		 push	 rdi

; 25   :   {
; 26   :   }

  00006	48 8b 44 24 10	 mov	 rax, QWORD PTR this$[rsp]
  0000b	5f		 pop	 rdi
  0000c	c3		 ret	 0
??0Cmathlibrary@@QEAA@XZ ENDP				; Cmathlibrary::Cmathlibrary
_TEXT	ENDS
; Function compile flags: /Odtp /RTCsu
; File C:\Program Files (x86)\Microsoft Visual Studio\2019\Community\VC\Tools\MSVC\14.29.30037\include\xmemory
;	COMDAT ?_Orphan_all_locked@_Container_base12@std@@AEAAXXZ
_TEXT	SEGMENT
_Lock$ = 36
this$ = 80
?_Orphan_all_locked@_Container_base12@std@@AEAAXXZ PROC	; std::_Container_base12::_Orphan_all_locked, COMDAT

; 1095 :     void _Orphan_all_locked() noexcept {

$LN3:
  00000	48 89 4c 24 08	 mov	 QWORD PTR [rsp+8], rcx
  00005	57		 push	 rdi
  00006	48 83 ec 40	 sub	 rsp, 64			; 00000040H
  0000a	48 8d 7c 24 20	 lea	 rdi, QWORD PTR [rsp+32]
  0000f	b9 08 00 00 00	 mov	 ecx, 8
  00014	b8 cc cc cc cc	 mov	 eax, -858993460		; ccccccccH
  00019	f3 ab		 rep stosd
  0001b	48 8b 4c 24 50	 mov	 rcx, QWORD PTR [rsp+80]

; 1096 :         _Lockit _Lock(_LOCK_DEBUG);

  00020	ba 03 00 00 00	 mov	 edx, 3
  00025	48 8d 4c 24 24	 lea	 rcx, QWORD PTR _Lock$[rsp]
  0002a	ff 15 00 00 00
	00		 call	 QWORD PTR __imp_??0_Lockit@std@@QEAA@H@Z

; 1097 :         _Orphan_all_unlocked();

  00030	48 8b 4c 24 50	 mov	 rcx, QWORD PTR this$[rsp]
  00035	e8 00 00 00 00	 call	 ?_Orphan_all_unlocked@_Container_base12@std@@AEAAXXZ ; std::_Container_base12::_Orphan_all_unlocked

; 1098 :     }

  0003a	48 8d 4c 24 24	 lea	 rcx, QWORD PTR _Lock$[rsp]
  0003f	ff 15 00 00 00
	00		 call	 QWORD PTR __imp_??1_Lockit@std@@QEAA@XZ
  00045	48 8b cc	 mov	 rcx, rsp
  00048	48 8d 15 00 00
	00 00		 lea	 rdx, OFFSET FLAT:?_Orphan_all_locked@_Container_base12@std@@AEAAXXZ$rtcFrameData
  0004f	e8 00 00 00 00	 call	 _RTC_CheckStackVars
  00054	48 83 c4 40	 add	 rsp, 64			; 00000040H
  00058	5f		 pop	 rdi
  00059	c3		 ret	 0
?_Orphan_all_locked@_Container_base12@std@@AEAAXXZ ENDP	; std::_Container_base12::_Orphan_all_locked
_TEXT	ENDS
; Function compile flags: /Odtp /RTCsu
; File C:\Program Files (x86)\Microsoft Visual Studio\2019\Community\VC\Tools\MSVC\14.29.30037\include\xmemory
;	COMDAT ?_Orphan_all_unlocked@_Container_base12@std@@AEAAXXZ
_TEXT	SEGMENT
_Pnext$1 = 0
this$ = 32
?_Orphan_all_unlocked@_Container_base12@std@@AEAAXXZ PROC ; std::_Container_base12::_Orphan_all_unlocked, COMDAT

; 1220 : _CONSTEXPR20_CONTAINER void _Container_base12::_Orphan_all_unlocked() noexcept {

$LN6:
  00000	48 89 4c 24 08	 mov	 QWORD PTR [rsp+8], rcx
  00005	57		 push	 rdi
  00006	48 83 ec 10	 sub	 rsp, 16

; 1221 :     for (auto& _Pnext = _Myproxy->_Myfirstiter; _Pnext; _Pnext = _Pnext->_Mynextiter) { // TRANSITION, VSO-1269037

  0000a	48 8b 44 24 20	 mov	 rax, QWORD PTR this$[rsp]
  0000f	48 8b 00	 mov	 rax, QWORD PTR [rax]
  00012	48 83 c0 08	 add	 rax, 8
  00016	48 89 04 24	 mov	 QWORD PTR _Pnext$1[rsp], rax
  0001a	eb 12		 jmp	 SHORT $LN4@Orphan_all
$LN2@Orphan_all:
  0001c	48 8b 04 24	 mov	 rax, QWORD PTR _Pnext$1[rsp]
  00020	48 8b 00	 mov	 rax, QWORD PTR [rax]
  00023	48 8b 0c 24	 mov	 rcx, QWORD PTR _Pnext$1[rsp]
  00027	48 8b 40 08	 mov	 rax, QWORD PTR [rax+8]
  0002b	48 89 01	 mov	 QWORD PTR [rcx], rax
$LN4@Orphan_all:
  0002e	48 8b 04 24	 mov	 rax, QWORD PTR _Pnext$1[rsp]
  00032	48 83 38 00	 cmp	 QWORD PTR [rax], 0
  00036	74 10		 je	 SHORT $LN3@Orphan_all

; 1222 :         _Pnext->_Myproxy = nullptr;

  00038	48 8b 04 24	 mov	 rax, QWORD PTR _Pnext$1[rsp]
  0003c	48 8b 00	 mov	 rax, QWORD PTR [rax]
  0003f	48 c7 00 00 00
	00 00		 mov	 QWORD PTR [rax], 0

; 1223 :     }

  00046	eb d4		 jmp	 SHORT $LN2@Orphan_all
$LN3@Orphan_all:

; 1224 :     _Myproxy->_Myfirstiter = nullptr;

  00048	48 8b 44 24 20	 mov	 rax, QWORD PTR this$[rsp]
  0004d	48 8b 00	 mov	 rax, QWORD PTR [rax]
  00050	48 c7 40 08 00
	00 00 00	 mov	 QWORD PTR [rax+8], 0

; 1225 : }

  00058	48 83 c4 10	 add	 rsp, 16
  0005c	5f		 pop	 rdi
  0005d	c3		 ret	 0
?_Orphan_all_unlocked@_Container_base12@std@@AEAAXXZ ENDP ; std::_Container_base12::_Orphan_all_unlocked
_TEXT	ENDS
; Function compile flags: /Odtp /RTCsu
; File C:\Program Files (x86)\Microsoft Visual Studio\2019\Community\VC\Tools\MSVC\14.29.30037\include\xmemory
;	COMDAT ?_Orphan_all@_Container_base12@std@@QEAAXXZ
_TEXT	SEGMENT
this$ = 48
?_Orphan_all@_Container_base12@std@@QEAAXXZ PROC	; std::_Container_base12::_Orphan_all, COMDAT

; 1227 : _CONSTEXPR20_CONTAINER void _Container_base12::_Orphan_all() noexcept {

$LN4:
  00000	48 89 4c 24 08	 mov	 QWORD PTR [rsp+8], rcx
  00005	57		 push	 rdi
  00006	48 83 ec 20	 sub	 rsp, 32			; 00000020H

; 1228 : #if _ITERATOR_DEBUG_LEVEL == 2
; 1229 :     if (_Myproxy) { // proxy allocated, drain it

  0000a	48 8b 44 24 30	 mov	 rax, QWORD PTR this$[rsp]
  0000f	48 83 38 00	 cmp	 QWORD PTR [rax], 0
  00013	74 0a		 je	 SHORT $LN2@Orphan_all

; 1230 : #ifdef __cpp_lib_constexpr_dynamic_alloc
; 1231 :         if (_STD is_constant_evaluated()) {
; 1232 :             _Orphan_all_unlocked();
; 1233 :         } else
; 1234 : #endif // __cpp_lib_constexpr_dynamic_alloc
; 1235 :         {
; 1236 :             _Orphan_all_locked();

  00015	48 8b 4c 24 30	 mov	 rcx, QWORD PTR this$[rsp]
  0001a	e8 00 00 00 00	 call	 ?_Orphan_all_locked@_Container_base12@std@@AEAAXXZ ; std::_Container_base12::_Orphan_all_locked
$LN2@Orphan_all:

; 1237 :         }
; 1238 :     }
; 1239 : #endif // _ITERATOR_DEBUG_LEVEL == 2
; 1240 : }

  0001f	48 83 c4 20	 add	 rsp, 32			; 00000020H
  00023	5f		 pop	 rdi
  00024	c3		 ret	 0
?_Orphan_all@_Container_base12@std@@QEAAXXZ ENDP	; std::_Container_base12::_Orphan_all
_TEXT	ENDS
; Function compile flags: /Odtp /RTCsu
; File C:\Program Files (x86)\Microsoft Visual Studio\2019\Community\VC\Tools\MSVC\14.29.30037\include\xmemory
;	COMDAT ??0_Container_base12@std@@QEAA@XZ
_TEXT	SEGMENT
this$ = 16
??0_Container_base12@std@@QEAA@XZ PROC			; std::_Container_base12::_Container_base12, COMDAT

; 1064 :     _CONSTEXPR20_CONTAINER _Container_base12() noexcept = default;

$LN3:
  00000	48 89 4c 24 08	 mov	 QWORD PTR [rsp+8], rcx
  00005	57		 push	 rdi

; 1065 : 
; 1066 :     _Container_base12(const _Container_base12&) = delete;
; 1067 :     _Container_base12& operator=(const _Container_base12&) = delete;
; 1068 : 
; 1069 :     _CONSTEXPR20_CONTAINER void _Orphan_all() noexcept;
; 1070 :     _CONSTEXPR20_CONTAINER void _Swap_proxy_and_iterators(_Container_base12&) noexcept;
; 1071 : 
; 1072 :     template <class _Alloc>
; 1073 :     _CONSTEXPR20_CONTAINER void _Alloc_proxy(_Alloc&& _Al) {
; 1074 :         _Container_proxy* const _New_proxy = _Unfancy(_Al.allocate(1));
; 1075 :         _Construct_in_place(*_New_proxy, this);
; 1076 :         _Myproxy            = _New_proxy;
; 1077 :         _New_proxy->_Mycont = this;
; 1078 :     }
; 1079 : 
; 1080 :     template <class _Alloc>
; 1081 :     _CONSTEXPR20_CONTAINER void _Reload_proxy(_Alloc&& _Old_alloc, _Alloc&& _New_alloc) {
; 1082 :         // pre: no iterators refer to the existing proxy
; 1083 :         _Container_proxy* const _New_proxy = _Unfancy(_New_alloc.allocate(1));
; 1084 :         _Construct_in_place(*_New_proxy, this);
; 1085 :         _New_proxy->_Mycont = this;
; 1086 :         _Delete_plain_internal(_Old_alloc, _STD exchange(_Myproxy, _New_proxy));
; 1087 :     }
; 1088 : 
; 1089 :     _Container_proxy* _Myproxy = nullptr;

  00006	48 8b 44 24 10	 mov	 rax, QWORD PTR this$[rsp]
  0000b	48 c7 00 00 00
	00 00		 mov	 QWORD PTR [rax], 0

; 1064 :     _CONSTEXPR20_CONTAINER _Container_base12() noexcept = default;

  00012	48 8b 44 24 10	 mov	 rax, QWORD PTR this$[rsp]
  00017	5f		 pop	 rdi
  00018	c3		 ret	 0
??0_Container_base12@std@@QEAA@XZ ENDP			; std::_Container_base12::_Container_base12
_TEXT	ENDS
; Function compile flags: /Odtp /RTCsu
; File C:\Program Files (x86)\Microsoft Visual Studio\2019\Community\VC\Tools\MSVC\14.29.30037\include\xmemory
;	COMDAT ??0_Container_proxy@std@@QEAA@PEAU_Container_base12@1@@Z
_TEXT	SEGMENT
this$ = 16
_Mycont_$ = 24
??0_Container_proxy@std@@QEAA@PEAU_Container_base12@1@@Z PROC ; std::_Container_proxy::_Container_proxy, COMDAT

; 1056 :     _CONSTEXPR20_CONTAINER _Container_proxy(_Container_base12* _Mycont_) noexcept : _Mycont(_Mycont_) {}

$LN3:
  00000	48 89 54 24 10	 mov	 QWORD PTR [rsp+16], rdx
  00005	48 89 4c 24 08	 mov	 QWORD PTR [rsp+8], rcx
  0000a	57		 push	 rdi
  0000b	48 8b 44 24 10	 mov	 rax, QWORD PTR this$[rsp]
  00010	48 8b 4c 24 18	 mov	 rcx, QWORD PTR _Mycont_$[rsp]
  00015	48 89 08	 mov	 QWORD PTR [rax], rcx

; 1057 : 
; 1058 :     const _Container_base12* _Mycont       = nullptr;
; 1059 :     mutable _Iterator_base12* _Myfirstiter = nullptr;

  00018	48 8b 44 24 10	 mov	 rax, QWORD PTR this$[rsp]
  0001d	48 c7 40 08 00
	00 00 00	 mov	 QWORD PTR [rax+8], 0

; 1056 :     _CONSTEXPR20_CONTAINER _Container_proxy(_Container_base12* _Mycont_) noexcept : _Mycont(_Mycont_) {}

  00025	48 8b 44 24 10	 mov	 rax, QWORD PTR this$[rsp]
  0002a	5f		 pop	 rdi
  0002b	c3		 ret	 0
??0_Container_proxy@std@@QEAA@PEAU_Container_base12@1@@Z ENDP ; std::_Container_proxy::_Container_proxy
_TEXT	ENDS
; Function compile flags: /Odtp /RTCsu
; File C:\Program Files (x86)\Microsoft Visual Studio\2019\Community\VC\Tools\MSVC\14.29.30037\include\xmemory
;	COMDAT ?_Adjust_manually_vector_aligned@std@@YAXAEAPEAXAEA_K@Z
_TEXT	SEGMENT
_Ptr_user$ = 48
_Ptr_container$ = 56
_Min_back_shift$ = 64
_Back_shift$ = 72
_Ptr$ = 96
_Bytes$ = 104
?_Adjust_manually_vector_aligned@std@@YAXAEAPEAXAEA_K@Z PROC ; std::_Adjust_manually_vector_aligned, COMDAT

; 153  : inline void _Adjust_manually_vector_aligned(void*& _Ptr, size_t& _Bytes) {

$LN21:
  00000	48 89 54 24 10	 mov	 QWORD PTR [rsp+16], rdx
  00005	48 89 4c 24 08	 mov	 QWORD PTR [rsp+8], rcx
  0000a	57		 push	 rdi
  0000b	48 83 ec 50	 sub	 rsp, 80			; 00000050H

; 154  :     // adjust parameters from _Allocate_manually_vector_aligned to pass to operator delete
; 155  :     _Bytes += _Non_user_size;

  0000f	48 8b 44 24 68	 mov	 rax, QWORD PTR _Bytes$[rsp]
  00014	48 8b 00	 mov	 rax, QWORD PTR [rax]
  00017	48 83 c0 2f	 add	 rax, 47			; 0000002fH
  0001b	48 8b 4c 24 68	 mov	 rcx, QWORD PTR _Bytes$[rsp]
  00020	48 89 01	 mov	 QWORD PTR [rcx], rax

; 156  : 
; 157  :     const uintptr_t* const _Ptr_user = reinterpret_cast<uintptr_t*>(_Ptr);

  00023	48 8b 44 24 60	 mov	 rax, QWORD PTR _Ptr$[rsp]
  00028	48 8b 00	 mov	 rax, QWORD PTR [rax]
  0002b	48 89 44 24 30	 mov	 QWORD PTR _Ptr_user$[rsp], rax

; 158  :     const uintptr_t _Ptr_container   = _Ptr_user[-1];

  00030	b8 08 00 00 00	 mov	 eax, 8
  00035	48 6b c0 ff	 imul	 rax, rax, -1
  00039	48 8b 4c 24 30	 mov	 rcx, QWORD PTR _Ptr_user$[rsp]
  0003e	48 8b 04 01	 mov	 rax, QWORD PTR [rcx+rax]
  00042	48 89 44 24 38	 mov	 QWORD PTR _Ptr_container$[rsp], rax
$LN4@Adjust_man:

; 159  : 
; 160  :     // If the following asserts, it likely means that we are performing
; 161  :     // an aligned delete on memory coming from an unaligned allocation.
; 162  :     _STL_ASSERT(_Ptr_user[-2] == _Big_allocation_sentinel, "invalid argument");

  00047	b8 08 00 00 00	 mov	 eax, 8
  0004c	48 6b c0 fe	 imul	 rax, rax, -2
  00050	48 8b 4c 24 30	 mov	 rcx, QWORD PTR _Ptr_user$[rsp]
  00055	48 ba fa fa fa
	fa fa fa fa fa	 mov	 rdx, -361700864190383366 ; fafafafafafafafaH
  0005f	48 39 14 01	 cmp	 QWORD PTR [rcx+rax], rdx
  00063	75 02		 jne	 SHORT $LN14@Adjust_man
  00065	eb 6b		 jmp	 SHORT $LN15@Adjust_man
$LN14@Adjust_man:
$LN7@Adjust_man:
  00067	48 8d 05 00 00
	00 00		 lea	 rax, OFFSET FLAT:??_C@_0BB@FCMFBGOM@invalid?5argument@
  0006e	48 89 44 24 28	 mov	 QWORD PTR [rsp+40], rax
  00073	48 8d 05 00 00
	00 00		 lea	 rax, OFFSET FLAT:??_C@_02DKCKIIND@?$CFs@
  0007a	48 89 44 24 20	 mov	 QWORD PTR [rsp+32], rax
  0007f	45 33 c9	 xor	 r9d, r9d
  00082	41 b8 a2 00 00
	00		 mov	 r8d, 162		; 000000a2H
  00088	48 8d 15 00 00
	00 00		 lea	 rdx, OFFSET FLAT:??_C@_0GI@KDIDHNIL@C?3?2Program?5Files?5?$CIx86?$CJ?2Microsof@
  0008f	b9 02 00 00 00	 mov	 ecx, 2
  00094	ff 15 00 00 00
	00		 call	 QWORD PTR __imp__CrtDbgReport
  0009a	83 f8 01	 cmp	 eax, 1
  0009d	75 03		 jne	 SHORT $LN19@Adjust_man
  0009f	cc		 int	 3
  000a0	33 c0		 xor	 eax, eax
$LN19@Adjust_man:
  000a2	48 c7 44 24 20
	00 00 00 00	 mov	 QWORD PTR [rsp+32], 0
  000ab	41 b9 a2 00 00
	00		 mov	 r9d, 162		; 000000a2H
  000b1	4c 8d 05 00 00
	00 00		 lea	 r8, OFFSET FLAT:??_C@_1NA@FOAKNOEL@?$AAC?$AA?3?$AA?2?$AAP?$AAr?$AAo?$AAg?$AAr?$AAa?$AAm?$AA?5?$AAF?$AAi?$AAl?$AAe@
  000b8	48 8d 15 00 00
	00 00		 lea	 rdx, OFFSET FLAT:??_C@_1EK@NIFDJFDG@?$AAs?$AAt?$AAd?$AA?3?$AA?3?$AA_?$AAA?$AAd?$AAj?$AAu?$AAs?$AAt?$AA_?$AAm?$AAa@
  000bf	48 8d 0d 00 00
	00 00		 lea	 rcx, OFFSET FLAT:??_C@_1CG@JNLFBNGN@?$AA?$CC?$AAi?$AAn?$AAv?$AAa?$AAl?$AAi?$AAd?$AA?5?$AAa?$AAr?$AAg?$AAu?$AAm?$AAe@
  000c6	ff 15 00 00 00
	00		 call	 QWORD PTR __imp__invalid_parameter
  000cc	33 c0		 xor	 eax, eax
  000ce	85 c0		 test	 eax, eax
  000d0	75 95		 jne	 SHORT $LN7@Adjust_man
$LN15@Adjust_man:
  000d2	33 c0		 xor	 eax, eax
  000d4	85 c0		 test	 eax, eax
  000d6	0f 85 6b ff ff
	ff		 jne	 $LN4@Adjust_man

; 163  : 
; 164  :     // Extra paranoia on aligned allocation/deallocation; ensure _Ptr_container is
; 165  :     // in range [_Min_back_shift, _Non_user_size]
; 166  : #ifdef _DEBUG
; 167  :     constexpr uintptr_t _Min_back_shift = 2 * sizeof(void*);

  000dc	48 c7 44 24 40
	10 00 00 00	 mov	 QWORD PTR _Min_back_shift$[rsp], 16

; 168  : #else // ^^^ _DEBUG ^^^ // vvv !_DEBUG vvv
; 169  :     constexpr uintptr_t _Min_back_shift = sizeof(void*);
; 170  : #endif // _DEBUG
; 171  :     const uintptr_t _Back_shift = reinterpret_cast<uintptr_t>(_Ptr) - _Ptr_container;

  000e5	48 8b 44 24 60	 mov	 rax, QWORD PTR _Ptr$[rsp]
  000ea	48 8b 4c 24 38	 mov	 rcx, QWORD PTR _Ptr_container$[rsp]
  000ef	48 8b 00	 mov	 rax, QWORD PTR [rax]
  000f2	48 2b c1	 sub	 rax, rcx
  000f5	48 89 44 24 48	 mov	 QWORD PTR _Back_shift$[rsp], rax
$LN10@Adjust_man:

; 172  :     _STL_VERIFY(_Back_shift >= _Min_back_shift && _Back_shift <= _Non_user_size, "invalid argument");

  000fa	48 83 7c 24 48
	10		 cmp	 QWORD PTR _Back_shift$[rsp], 16
  00100	72 0a		 jb	 SHORT $LN16@Adjust_man
  00102	48 83 7c 24 48
	2f		 cmp	 QWORD PTR _Back_shift$[rsp], 47 ; 0000002fH
  00108	77 02		 ja	 SHORT $LN16@Adjust_man
  0010a	eb 6b		 jmp	 SHORT $LN17@Adjust_man
$LN16@Adjust_man:
$LN13@Adjust_man:
  0010c	48 8d 05 00 00
	00 00		 lea	 rax, OFFSET FLAT:??_C@_0BB@FCMFBGOM@invalid?5argument@
  00113	48 89 44 24 28	 mov	 QWORD PTR [rsp+40], rax
  00118	48 8d 05 00 00
	00 00		 lea	 rax, OFFSET FLAT:??_C@_02DKCKIIND@?$CFs@
  0011f	48 89 44 24 20	 mov	 QWORD PTR [rsp+32], rax
  00124	45 33 c9	 xor	 r9d, r9d
  00127	41 b8 ac 00 00
	00		 mov	 r8d, 172		; 000000acH
  0012d	48 8d 15 00 00
	00 00		 lea	 rdx, OFFSET FLAT:??_C@_0GI@KDIDHNIL@C?3?2Program?5Files?5?$CIx86?$CJ?2Microsof@
  00134	b9 02 00 00 00	 mov	 ecx, 2
  00139	ff 15 00 00 00
	00		 call	 QWORD PTR __imp__CrtDbgReport
  0013f	83 f8 01	 cmp	 eax, 1
  00142	75 03		 jne	 SHORT $LN20@Adjust_man
  00144	cc		 int	 3
  00145	33 c0		 xor	 eax, eax
$LN20@Adjust_man:
  00147	48 c7 44 24 20
	00 00 00 00	 mov	 QWORD PTR [rsp+32], 0
  00150	41 b9 ac 00 00
	00		 mov	 r9d, 172		; 000000acH
  00156	4c 8d 05 00 00
	00 00		 lea	 r8, OFFSET FLAT:??_C@_1NA@FOAKNOEL@?$AAC?$AA?3?$AA?2?$AAP?$AAr?$AAo?$AAg?$AAr?$AAa?$AAm?$AA?5?$AAF?$AAi?$AAl?$AAe@
  0015d	48 8d 15 00 00
	00 00		 lea	 rdx, OFFSET FLAT:??_C@_1EK@NIFDJFDG@?$AAs?$AAt?$AAd?$AA?3?$AA?3?$AA_?$AAA?$AAd?$AAj?$AAu?$AAs?$AAt?$AA_?$AAm?$AAa@
  00164	48 8d 0d 00 00
	00 00		 lea	 rcx, OFFSET FLAT:??_C@_1CG@JNLFBNGN@?$AA?$CC?$AAi?$AAn?$AAv?$AAa?$AAl?$AAi?$AAd?$AA?5?$AAa?$AAr?$AAg?$AAu?$AAm?$AAe@
  0016b	ff 15 00 00 00
	00		 call	 QWORD PTR __imp__invalid_parameter
  00171	33 c0		 xor	 eax, eax
  00173	85 c0		 test	 eax, eax
  00175	75 95		 jne	 SHORT $LN13@Adjust_man
$LN17@Adjust_man:
  00177	33 c0		 xor	 eax, eax
  00179	85 c0		 test	 eax, eax
  0017b	0f 85 79 ff ff
	ff		 jne	 $LN10@Adjust_man

; 173  :     _Ptr = reinterpret_cast<void*>(_Ptr_container);

  00181	48 8b 44 24 60	 mov	 rax, QWORD PTR _Ptr$[rsp]
  00186	48 8b 4c 24 38	 mov	 rcx, QWORD PTR _Ptr_container$[rsp]
  0018b	48 89 08	 mov	 QWORD PTR [rax], rcx

; 174  : }

  0018e	48 83 c4 50	 add	 rsp, 80			; 00000050H
  00192	5f		 pop	 rdi
  00193	c3		 ret	 0
?_Adjust_manually_vector_aligned@std@@YAXAEAPEAXAEA_K@Z ENDP ; std::_Adjust_manually_vector_aligned
_TEXT	ENDS
; Function compile flags: /Odtp /RTCsu
; File C:\Program Files (x86)\Microsoft Visual Studio\2019\Community\VC\Tools\MSVC\14.29.30037\include\xmemory
;	COMDAT ?_Allocate@_Default_allocate_traits@std@@SAPEAX_K@Z
_TEXT	SEGMENT
_Bytes$ = 48
?_Allocate@_Default_allocate_traits@std@@SAPEAX_K@Z PROC ; std::_Default_allocate_traits::_Allocate, COMDAT

; 84   :         void* _Allocate(const size_t _Bytes) {

$LN3:
  00000	48 89 4c 24 08	 mov	 QWORD PTR [rsp+8], rcx
  00005	57		 push	 rdi
  00006	48 83 ec 20	 sub	 rsp, 32			; 00000020H

; 85   :         return ::operator new(_Bytes);

  0000a	48 8b 4c 24 30	 mov	 rcx, QWORD PTR _Bytes$[rsp]
  0000f	e8 00 00 00 00	 call	 ??2@YAPEAX_K@Z		; operator new

; 86   :     }

  00014	48 83 c4 20	 add	 rsp, 32			; 00000020H
  00018	5f		 pop	 rdi
  00019	c3		 ret	 0
?_Allocate@_Default_allocate_traits@std@@SAPEAX_K@Z ENDP ; std::_Default_allocate_traits::_Allocate
_TEXT	ENDS
; Function compile flags: /Odtp /RTCsu
; File C:\Program Files (x86)\Microsoft Visual Studio\2019\Community\VC\Tools\MSVC\14.29.30037\include\exception
;	COMDAT ?_Throw_bad_array_new_length@std@@YAXXZ
_TEXT	SEGMENT
$T1 = 32
?_Throw_bad_array_new_length@std@@YAXXZ PROC		; std::_Throw_bad_array_new_length, COMDAT

; 320  : [[noreturn]] inline void _Throw_bad_array_new_length() {

$LN3:
  00000	40 57		 push	 rdi
  00002	48 83 ec 40	 sub	 rsp, 64			; 00000040H

; 321  :     _THROW(bad_array_new_length{});

  00006	48 8d 4c 24 20	 lea	 rcx, QWORD PTR $T1[rsp]
  0000b	e8 00 00 00 00	 call	 ??0bad_array_new_length@std@@QEAA@XZ ; std::bad_array_new_length::bad_array_new_length
  00010	48 8d 15 00 00
	00 00		 lea	 rdx, OFFSET FLAT:_TI3?AVbad_array_new_length@std@@
  00017	48 8d 4c 24 20	 lea	 rcx, QWORD PTR $T1[rsp]
  0001c	e8 00 00 00 00	 call	 _CxxThrowException
$LN2@Throw_bad_:

; 322  : }

  00021	48 83 c4 40	 add	 rsp, 64			; 00000040H
  00025	5f		 pop	 rdi
  00026	c3		 ret	 0
?_Throw_bad_array_new_length@std@@YAXXZ ENDP		; std::_Throw_bad_array_new_length
_TEXT	ENDS
; Function compile flags: /Odtp /RTCsu
;	COMDAT ??_Gbad_array_new_length@std@@UEAAPEAXI@Z
_TEXT	SEGMENT
this$ = 48
__flags$ = 56
??_Gbad_array_new_length@std@@UEAAPEAXI@Z PROC		; std::bad_array_new_length::`scalar deleting destructor', COMDAT
$LN4:
  00000	89 54 24 10	 mov	 DWORD PTR [rsp+16], edx
  00004	48 89 4c 24 08	 mov	 QWORD PTR [rsp+8], rcx
  00009	57		 push	 rdi
  0000a	48 83 ec 20	 sub	 rsp, 32			; 00000020H
  0000e	48 8b 4c 24 30	 mov	 rcx, QWORD PTR this$[rsp]
  00013	e8 00 00 00 00	 call	 ??1bad_array_new_length@std@@UEAA@XZ
  00018	8b 44 24 38	 mov	 eax, DWORD PTR __flags$[rsp]
  0001c	83 e0 01	 and	 eax, 1
  0001f	85 c0		 test	 eax, eax
  00021	74 0f		 je	 SHORT $LN2@scalar
  00023	ba 18 00 00 00	 mov	 edx, 24
  00028	48 8b 4c 24 30	 mov	 rcx, QWORD PTR this$[rsp]
  0002d	e8 00 00 00 00	 call	 ??3@YAXPEAX_K@Z		; operator delete
$LN2@scalar:
  00032	48 8b 44 24 30	 mov	 rax, QWORD PTR this$[rsp]
  00037	48 83 c4 20	 add	 rsp, 32			; 00000020H
  0003b	5f		 pop	 rdi
  0003c	c3		 ret	 0
??_Gbad_array_new_length@std@@UEAAPEAXI@Z ENDP		; std::bad_array_new_length::`scalar deleting destructor'
_TEXT	ENDS
; Function compile flags: /Odtp /RTCsu
;	COMDAT ??0bad_array_new_length@std@@QEAA@AEBV01@@Z
_TEXT	SEGMENT
this$ = 48
__that$ = 56
??0bad_array_new_length@std@@QEAA@AEBV01@@Z PROC	; std::bad_array_new_length::bad_array_new_length, COMDAT
$LN3:
  00000	48 89 54 24 10	 mov	 QWORD PTR [rsp+16], rdx
  00005	48 89 4c 24 08	 mov	 QWORD PTR [rsp+8], rcx
  0000a	57		 push	 rdi
  0000b	48 83 ec 20	 sub	 rsp, 32			; 00000020H
  0000f	48 8b 54 24 38	 mov	 rdx, QWORD PTR __that$[rsp]
  00014	48 8b 4c 24 30	 mov	 rcx, QWORD PTR this$[rsp]
  00019	e8 00 00 00 00	 call	 ??0bad_alloc@std@@QEAA@AEBV01@@Z
  0001e	48 8b 44 24 30	 mov	 rax, QWORD PTR this$[rsp]
  00023	48 8d 0d 00 00
	00 00		 lea	 rcx, OFFSET FLAT:??_7bad_array_new_length@std@@6B@
  0002a	48 89 08	 mov	 QWORD PTR [rax], rcx
  0002d	48 8b 44 24 30	 mov	 rax, QWORD PTR this$[rsp]
  00032	48 83 c4 20	 add	 rsp, 32			; 00000020H
  00036	5f		 pop	 rdi
  00037	c3		 ret	 0
??0bad_array_new_length@std@@QEAA@AEBV01@@Z ENDP	; std::bad_array_new_length::bad_array_new_length
_TEXT	ENDS
; Function compile flags: /Odtp /RTCsu
;	COMDAT ??1bad_array_new_length@std@@UEAA@XZ
_TEXT	SEGMENT
this$ = 48
??1bad_array_new_length@std@@UEAA@XZ PROC		; std::bad_array_new_length::~bad_array_new_length, COMDAT
$LN3:
  00000	48 89 4c 24 08	 mov	 QWORD PTR [rsp+8], rcx
  00005	57		 push	 rdi
  00006	48 83 ec 20	 sub	 rsp, 32			; 00000020H
  0000a	48 8b 4c 24 30	 mov	 rcx, QWORD PTR this$[rsp]
  0000f	e8 00 00 00 00	 call	 ??1bad_alloc@std@@UEAA@XZ
  00014	48 83 c4 20	 add	 rsp, 32			; 00000020H
  00018	5f		 pop	 rdi
  00019	c3		 ret	 0
??1bad_array_new_length@std@@UEAA@XZ ENDP		; std::bad_array_new_length::~bad_array_new_length
_TEXT	ENDS
; Function compile flags: /Odtp /RTCsu
; File C:\Program Files (x86)\Microsoft Visual Studio\2019\Community\VC\Tools\MSVC\14.29.30037\include\vcruntime_exception.h
;	COMDAT ??0bad_array_new_length@std@@QEAA@XZ
_TEXT	SEGMENT
this$ = 48
??0bad_array_new_length@std@@QEAA@XZ PROC		; std::bad_array_new_length::bad_array_new_length, COMDAT

; 141  :     {

$LN3:
  00000	48 89 4c 24 08	 mov	 QWORD PTR [rsp+8], rcx
  00005	57		 push	 rdi
  00006	48 83 ec 20	 sub	 rsp, 32			; 00000020H

; 140  :         : bad_alloc("bad array new length")

  0000a	48 8d 15 00 00
	00 00		 lea	 rdx, OFFSET FLAT:??_C@_0BF@KINCDENJ@bad?5array?5new?5length@
  00011	48 8b 4c 24 30	 mov	 rcx, QWORD PTR this$[rsp]
  00016	e8 00 00 00 00	 call	 ??0bad_alloc@std@@AEAA@QEBD@Z ; std::bad_alloc::bad_alloc

; 141  :     {

  0001b	48 8b 44 24 30	 mov	 rax, QWORD PTR this$[rsp]
  00020	48 8d 0d 00 00
	00 00		 lea	 rcx, OFFSET FLAT:??_7bad_array_new_length@std@@6B@
  00027	48 89 08	 mov	 QWORD PTR [rax], rcx

; 142  :     }

  0002a	48 8b 44 24 30	 mov	 rax, QWORD PTR this$[rsp]
  0002f	48 83 c4 20	 add	 rsp, 32			; 00000020H
  00033	5f		 pop	 rdi
  00034	c3		 ret	 0
??0bad_array_new_length@std@@QEAA@XZ ENDP		; std::bad_array_new_length::bad_array_new_length
_TEXT	ENDS
; Function compile flags: /Odtp /RTCsu
;	COMDAT ??_Gbad_alloc@std@@UEAAPEAXI@Z
_TEXT	SEGMENT
this$ = 48
__flags$ = 56
??_Gbad_alloc@std@@UEAAPEAXI@Z PROC			; std::bad_alloc::`scalar deleting destructor', COMDAT
$LN4:
  00000	89 54 24 10	 mov	 DWORD PTR [rsp+16], edx
  00004	48 89 4c 24 08	 mov	 QWORD PTR [rsp+8], rcx
  00009	57		 push	 rdi
  0000a	48 83 ec 20	 sub	 rsp, 32			; 00000020H
  0000e	48 8b 4c 24 30	 mov	 rcx, QWORD PTR this$[rsp]
  00013	e8 00 00 00 00	 call	 ??1bad_alloc@std@@UEAA@XZ
  00018	8b 44 24 38	 mov	 eax, DWORD PTR __flags$[rsp]
  0001c	83 e0 01	 and	 eax, 1
  0001f	85 c0		 test	 eax, eax
  00021	74 0f		 je	 SHORT $LN2@scalar
  00023	ba 18 00 00 00	 mov	 edx, 24
  00028	48 8b 4c 24 30	 mov	 rcx, QWORD PTR this$[rsp]
  0002d	e8 00 00 00 00	 call	 ??3@YAXPEAX_K@Z		; operator delete
$LN2@scalar:
  00032	48 8b 44 24 30	 mov	 rax, QWORD PTR this$[rsp]
  00037	48 83 c4 20	 add	 rsp, 32			; 00000020H
  0003b	5f		 pop	 rdi
  0003c	c3		 ret	 0
??_Gbad_alloc@std@@UEAAPEAXI@Z ENDP			; std::bad_alloc::`scalar deleting destructor'
_TEXT	ENDS
; Function compile flags: /Odtp /RTCsu
;	COMDAT ??0bad_alloc@std@@QEAA@AEBV01@@Z
_TEXT	SEGMENT
this$ = 48
__that$ = 56
??0bad_alloc@std@@QEAA@AEBV01@@Z PROC			; std::bad_alloc::bad_alloc, COMDAT
$LN3:
  00000	48 89 54 24 10	 mov	 QWORD PTR [rsp+16], rdx
  00005	48 89 4c 24 08	 mov	 QWORD PTR [rsp+8], rcx
  0000a	57		 push	 rdi
  0000b	48 83 ec 20	 sub	 rsp, 32			; 00000020H
  0000f	48 8b 54 24 38	 mov	 rdx, QWORD PTR __that$[rsp]
  00014	48 8b 4c 24 30	 mov	 rcx, QWORD PTR this$[rsp]
  00019	e8 00 00 00 00	 call	 ??0exception@std@@QEAA@AEBV01@@Z ; std::exception::exception
  0001e	48 8b 44 24 30	 mov	 rax, QWORD PTR this$[rsp]
  00023	48 8d 0d 00 00
	00 00		 lea	 rcx, OFFSET FLAT:??_7bad_alloc@std@@6B@
  0002a	48 89 08	 mov	 QWORD PTR [rax], rcx
  0002d	48 8b 44 24 30	 mov	 rax, QWORD PTR this$[rsp]
  00032	48 83 c4 20	 add	 rsp, 32			; 00000020H
  00036	5f		 pop	 rdi
  00037	c3		 ret	 0
??0bad_alloc@std@@QEAA@AEBV01@@Z ENDP			; std::bad_alloc::bad_alloc
_TEXT	ENDS
; Function compile flags: /Odtp /RTCsu
;	COMDAT ??1bad_alloc@std@@UEAA@XZ
_TEXT	SEGMENT
this$ = 48
??1bad_alloc@std@@UEAA@XZ PROC				; std::bad_alloc::~bad_alloc, COMDAT
$LN3:
  00000	48 89 4c 24 08	 mov	 QWORD PTR [rsp+8], rcx
  00005	57		 push	 rdi
  00006	48 83 ec 20	 sub	 rsp, 32			; 00000020H
  0000a	48 8b 4c 24 30	 mov	 rcx, QWORD PTR this$[rsp]
  0000f	e8 00 00 00 00	 call	 ??1exception@std@@UEAA@XZ ; std::exception::~exception
  00014	48 83 c4 20	 add	 rsp, 32			; 00000020H
  00018	5f		 pop	 rdi
  00019	c3		 ret	 0
??1bad_alloc@std@@UEAA@XZ ENDP				; std::bad_alloc::~bad_alloc
_TEXT	ENDS
; Function compile flags: /Odtp /RTCsu
; File C:\Program Files (x86)\Microsoft Visual Studio\2019\Community\VC\Tools\MSVC\14.29.30037\include\vcruntime_exception.h
;	COMDAT ??0bad_alloc@std@@AEAA@QEBD@Z
_TEXT	SEGMENT
this$ = 48
_Message$ = 56
??0bad_alloc@std@@AEAA@QEBD@Z PROC			; std::bad_alloc::bad_alloc, COMDAT

; 130  :     {

$LN3:
  00000	48 89 54 24 10	 mov	 QWORD PTR [rsp+16], rdx
  00005	48 89 4c 24 08	 mov	 QWORD PTR [rsp+8], rcx
  0000a	57		 push	 rdi
  0000b	48 83 ec 20	 sub	 rsp, 32			; 00000020H

; 129  :         : exception(_Message, 1)

  0000f	41 b8 01 00 00
	00		 mov	 r8d, 1
  00015	48 8b 54 24 38	 mov	 rdx, QWORD PTR _Message$[rsp]
  0001a	48 8b 4c 24 30	 mov	 rcx, QWORD PTR this$[rsp]
  0001f	e8 00 00 00 00	 call	 ??0exception@std@@QEAA@QEBDH@Z ; std::exception::exception

; 130  :     {

  00024	48 8b 44 24 30	 mov	 rax, QWORD PTR this$[rsp]
  00029	48 8d 0d 00 00
	00 00		 lea	 rcx, OFFSET FLAT:??_7bad_alloc@std@@6B@
  00030	48 89 08	 mov	 QWORD PTR [rax], rcx

; 131  :     }

  00033	48 8b 44 24 30	 mov	 rax, QWORD PTR this$[rsp]
  00038	48 83 c4 20	 add	 rsp, 32			; 00000020H
  0003c	5f		 pop	 rdi
  0003d	c3		 ret	 0
??0bad_alloc@std@@AEAA@QEBD@Z ENDP			; std::bad_alloc::bad_alloc
_TEXT	ENDS
; Function compile flags: /Odtp /RTCsu
;	COMDAT ??_Gexception@std@@UEAAPEAXI@Z
_TEXT	SEGMENT
this$ = 48
__flags$ = 56
??_Gexception@std@@UEAAPEAXI@Z PROC			; std::exception::`scalar deleting destructor', COMDAT
$LN4:
  00000	89 54 24 10	 mov	 DWORD PTR [rsp+16], edx
  00004	48 89 4c 24 08	 mov	 QWORD PTR [rsp+8], rcx
  00009	57		 push	 rdi
  0000a	48 83 ec 20	 sub	 rsp, 32			; 00000020H
  0000e	48 8b 4c 24 30	 mov	 rcx, QWORD PTR this$[rsp]
  00013	e8 00 00 00 00	 call	 ??1exception@std@@UEAA@XZ ; std::exception::~exception
  00018	8b 44 24 38	 mov	 eax, DWORD PTR __flags$[rsp]
  0001c	83 e0 01	 and	 eax, 1
  0001f	85 c0		 test	 eax, eax
  00021	74 0f		 je	 SHORT $LN2@scalar
  00023	ba 18 00 00 00	 mov	 edx, 24
  00028	48 8b 4c 24 30	 mov	 rcx, QWORD PTR this$[rsp]
  0002d	e8 00 00 00 00	 call	 ??3@YAXPEAX_K@Z		; operator delete
$LN2@scalar:
  00032	48 8b 44 24 30	 mov	 rax, QWORD PTR this$[rsp]
  00037	48 83 c4 20	 add	 rsp, 32			; 00000020H
  0003b	5f		 pop	 rdi
  0003c	c3		 ret	 0
??_Gexception@std@@UEAAPEAXI@Z ENDP			; std::exception::`scalar deleting destructor'
_TEXT	ENDS
; Function compile flags: /Odtp /RTCsu
; File C:\Program Files (x86)\Microsoft Visual Studio\2019\Community\VC\Tools\MSVC\14.29.30037\include\vcruntime_exception.h
;	COMDAT ?what@exception@std@@UEBAPEBDXZ
_TEXT	SEGMENT
tv69 = 0
this$ = 32
?what@exception@std@@UEBAPEBDXZ PROC			; std::exception::what, COMDAT

; 94   :     {

$LN5:
  00000	48 89 4c 24 08	 mov	 QWORD PTR [rsp+8], rcx
  00005	57		 push	 rdi
  00006	48 83 ec 10	 sub	 rsp, 16

; 95   :         return _Data._What ? _Data._What : "Unknown exception";

  0000a	48 8b 44 24 20	 mov	 rax, QWORD PTR this$[rsp]
  0000f	48 83 78 08 00	 cmp	 QWORD PTR [rax+8], 0
  00014	74 0f		 je	 SHORT $LN3@what
  00016	48 8b 44 24 20	 mov	 rax, QWORD PTR this$[rsp]
  0001b	48 8b 40 08	 mov	 rax, QWORD PTR [rax+8]
  0001f	48 89 04 24	 mov	 QWORD PTR tv69[rsp], rax
  00023	eb 0b		 jmp	 SHORT $LN4@what
$LN3@what:
  00025	48 8d 05 00 00
	00 00		 lea	 rax, OFFSET FLAT:??_C@_0BC@EOODALEL@Unknown?5exception@
  0002c	48 89 04 24	 mov	 QWORD PTR tv69[rsp], rax
$LN4@what:
  00030	48 8b 04 24	 mov	 rax, QWORD PTR tv69[rsp]

; 96   :     }

  00034	48 83 c4 10	 add	 rsp, 16
  00038	5f		 pop	 rdi
  00039	c3		 ret	 0
?what@exception@std@@UEBAPEBDXZ ENDP			; std::exception::what
_TEXT	ENDS
; Function compile flags: /Odtp /RTCsu
; File C:\Program Files (x86)\Microsoft Visual Studio\2019\Community\VC\Tools\MSVC\14.29.30037\include\vcruntime_exception.h
;	COMDAT ??1exception@std@@UEAA@XZ
_TEXT	SEGMENT
this$ = 48
??1exception@std@@UEAA@XZ PROC				; std::exception::~exception, COMDAT

; 89   :     {

$LN3:
  00000	48 89 4c 24 08	 mov	 QWORD PTR [rsp+8], rcx
  00005	57		 push	 rdi
  00006	48 83 ec 20	 sub	 rsp, 32			; 00000020H
  0000a	48 8b 44 24 30	 mov	 rax, QWORD PTR this$[rsp]
  0000f	48 8d 0d 00 00
	00 00		 lea	 rcx, OFFSET FLAT:??_7exception@std@@6B@
  00016	48 89 08	 mov	 QWORD PTR [rax], rcx

; 90   :         __std_exception_destroy(&_Data);

  00019	48 8b 44 24 30	 mov	 rax, QWORD PTR this$[rsp]
  0001e	48 83 c0 08	 add	 rax, 8
  00022	48 8b c8	 mov	 rcx, rax
  00025	e8 00 00 00 00	 call	 __std_exception_destroy

; 91   :     }

  0002a	48 83 c4 20	 add	 rsp, 32			; 00000020H
  0002e	5f		 pop	 rdi
  0002f	c3		 ret	 0
??1exception@std@@UEAA@XZ ENDP				; std::exception::~exception
_TEXT	ENDS
; Function compile flags: /Odtp /RTCsu
; File C:\Program Files (x86)\Microsoft Visual Studio\2019\Community\VC\Tools\MSVC\14.29.30037\include\vcruntime_exception.h
;	COMDAT ??0exception@std@@QEAA@AEBV01@@Z
_TEXT	SEGMENT
this$ = 48
_Other$ = 56
??0exception@std@@QEAA@AEBV01@@Z PROC			; std::exception::exception, COMDAT

; 72   :     {

$LN3:
  00000	48 89 54 24 10	 mov	 QWORD PTR [rsp+16], rdx
  00005	48 89 4c 24 08	 mov	 QWORD PTR [rsp+8], rcx
  0000a	57		 push	 rdi
  0000b	48 83 ec 20	 sub	 rsp, 32			; 00000020H
  0000f	48 8b 44 24 30	 mov	 rax, QWORD PTR this$[rsp]
  00014	48 8d 0d 00 00
	00 00		 lea	 rcx, OFFSET FLAT:??_7exception@std@@6B@
  0001b	48 89 08	 mov	 QWORD PTR [rax], rcx

; 71   :         : _Data()

  0001e	48 8b 44 24 30	 mov	 rax, QWORD PTR this$[rsp]
  00023	48 83 c0 08	 add	 rax, 8
  00027	48 8b f8	 mov	 rdi, rax
  0002a	33 c0		 xor	 eax, eax
  0002c	b9 10 00 00 00	 mov	 ecx, 16
  00031	f3 aa		 rep stosb

; 73   :         __std_exception_copy(&_Other._Data, &_Data);

  00033	48 8b 44 24 30	 mov	 rax, QWORD PTR this$[rsp]
  00038	48 83 c0 08	 add	 rax, 8
  0003c	48 8b 4c 24 38	 mov	 rcx, QWORD PTR _Other$[rsp]
  00041	48 83 c1 08	 add	 rcx, 8
  00045	48 8b d0	 mov	 rdx, rax
  00048	e8 00 00 00 00	 call	 __std_exception_copy

; 74   :     }

  0004d	48 8b 44 24 30	 mov	 rax, QWORD PTR this$[rsp]
  00052	48 83 c4 20	 add	 rsp, 32			; 00000020H
  00056	5f		 pop	 rdi
  00057	c3		 ret	 0
??0exception@std@@QEAA@AEBV01@@Z ENDP			; std::exception::exception
_TEXT	ENDS
; Function compile flags: /Odtp /RTCsu
; File C:\Program Files (x86)\Microsoft Visual Studio\2019\Community\VC\Tools\MSVC\14.29.30037\include\vcruntime_exception.h
;	COMDAT ??0exception@std@@QEAA@QEBDH@Z
_TEXT	SEGMENT
this$ = 16
_Message$ = 24
__formal$ = 32
??0exception@std@@QEAA@QEBDH@Z PROC			; std::exception::exception, COMDAT

; 66   :     {

$LN3:
  00000	44 89 44 24 18	 mov	 DWORD PTR [rsp+24], r8d
  00005	48 89 54 24 10	 mov	 QWORD PTR [rsp+16], rdx
  0000a	48 89 4c 24 08	 mov	 QWORD PTR [rsp+8], rcx
  0000f	57		 push	 rdi
  00010	48 8b 44 24 10	 mov	 rax, QWORD PTR this$[rsp]
  00015	48 8d 0d 00 00
	00 00		 lea	 rcx, OFFSET FLAT:??_7exception@std@@6B@
  0001c	48 89 08	 mov	 QWORD PTR [rax], rcx

; 65   :         : _Data()

  0001f	48 8b 44 24 10	 mov	 rax, QWORD PTR this$[rsp]
  00024	48 83 c0 08	 add	 rax, 8
  00028	48 8b f8	 mov	 rdi, rax
  0002b	33 c0		 xor	 eax, eax
  0002d	b9 10 00 00 00	 mov	 ecx, 16
  00032	f3 aa		 rep stosb

; 67   :         _Data._What = _Message;

  00034	48 8b 44 24 10	 mov	 rax, QWORD PTR this$[rsp]
  00039	48 8b 4c 24 18	 mov	 rcx, QWORD PTR _Message$[rsp]
  0003e	48 89 48 08	 mov	 QWORD PTR [rax+8], rcx

; 68   :     }

  00042	48 8b 44 24 10	 mov	 rax, QWORD PTR this$[rsp]
  00047	5f		 pop	 rdi
  00048	c3		 ret	 0
??0exception@std@@QEAA@QEBDH@Z ENDP			; std::exception::exception
_TEXT	ENDS
; Function compile flags: /Odtp /RTCsu
; File C:\Program Files (x86)\Microsoft Visual Studio\2019\Community\VC\Tools\MSVC\14.29.30037\include\vcruntime_new.h
;	COMDAT ??2@YAPEAX_KPEAX@Z
_TEXT	SEGMENT
_Size$ = 16
_Where$ = 24
??2@YAPEAX_KPEAX@Z PROC					; operator new, COMDAT

; 167  :     {

$LN3:
  00000	48 89 54 24 10	 mov	 QWORD PTR [rsp+16], rdx
  00005	48 89 4c 24 08	 mov	 QWORD PTR [rsp+8], rcx
  0000a	57		 push	 rdi

; 168  :         (void)_Size;
; 169  :         return _Where;

  0000b	48 8b 44 24 18	 mov	 rax, QWORD PTR _Where$[rsp]

; 170  :     }

  00010	5f		 pop	 rdi
  00011	c3		 ret	 0
??2@YAPEAX_KPEAX@Z ENDP					; operator new
_TEXT	ENDS
; Function compile flags: /Odtp /RTCsu
; File C:\Program Files (x86)\Microsoft Visual Studio\2019\Community\VC\Tools\MSVC\14.29.30037\include\limits
;	COMDAT ?max@?$numeric_limits@_J@std@@SA_JXZ
_TEXT	SEGMENT
?max@?$numeric_limits@_J@std@@SA_JXZ PROC		; std::numeric_limits<__int64>::max, COMDAT

; 647  :     _NODISCARD static constexpr long long(max)() noexcept {

$LN3:
  00000	40 57		 push	 rdi

; 648  :         return LLONG_MAX;

  00002	48 b8 ff ff ff
	ff ff ff ff 7f	 mov	 rax, 9223372036854775807 ; 7fffffffffffffffH

; 649  :     }

  0000c	5f		 pop	 rdi
  0000d	c3		 ret	 0
?max@?$numeric_limits@_J@std@@SA_JXZ ENDP		; std::numeric_limits<__int64>::max
_TEXT	ENDS
; Function compile flags: /Odtp /RTCsu
; File D:\dev\crashexplorer\crashexplorer\test_projects\test_project\dynamic_library\math_library.cpp
;	COMDAT ?__empty_global_delete@@YAXPEAX_K@Z
_TEXT	SEGMENT
__formal$ = 16
__formal$ = 24
?__empty_global_delete@@YAXPEAX_K@Z PROC		; __empty_global_delete, COMDAT

$LN3:
  00000	48 89 54 24 10	 mov	 QWORD PTR [rsp+16], rdx
  00005	48 89 4c 24 08	 mov	 QWORD PTR [rsp+8], rcx
  0000a	57		 push	 rdi
  0000b	5f		 pop	 rdi
  0000c	c3		 ret	 0
?__empty_global_delete@@YAXPEAX_K@Z ENDP		; __empty_global_delete
_TEXT	ENDS
; Function compile flags: /Odtp /RTCsu
; File D:\dev\crashexplorer\crashexplorer\test_projects\test_project\dynamic_library\math_library.cpp
;	COMDAT ?__empty_global_delete@@YAXPEAX@Z
_TEXT	SEGMENT
__formal$ = 16
?__empty_global_delete@@YAXPEAX@Z PROC			; __empty_global_delete, COMDAT

$LN3:
  00000	48 89 4c 24 08	 mov	 QWORD PTR [rsp+8], rcx
  00005	57		 push	 rdi
  00006	5f		 pop	 rdi
  00007	c3		 ret	 0
?__empty_global_delete@@YAXPEAX@Z ENDP			; __empty_global_delete
_TEXT	ENDS
END
