; Listing generated by Microsoft (R) Optimizing Compiler Version 19.29.30038.1 

include listing.inc

INCLUDELIB MSVCRTD
INCLUDELIB OLDNAMES

CONST	SEGMENT
$SG39746 DB	' to ', 00H
	ORG $+3
$SG39747 DB	' appears from ', 00H
	ORG $+1
$SG39748 DB	'Word ', 00H
	ORG $+2
$SG39757 DB	'he', 00H
	ORG $+1
$SG39758 DB	'she', 00H
$SG39759 DB	'hers', 00H
	ORG $+3
$SG39760 DB	'his', 00H
$SG48088 DB	'%s', 00H
	ORG $+1
$SG39761 DB	'ahishers', 00H
	ORG $+7
$SG48087 DB	'invalid argument', 00H
	ORG $+7
$SG48089 DB	'C:\Program Files (x86)\Microsoft Visual Studio\2019\Comm'
	DB	'unity\VC\Tools\MSVC\14.29.30037\include\xmemory', 00H
	ORG $+8
$SG48090 DB	'C', 00H, ':', 00H, '\', 00H, 'P', 00H, 'r', 00H, 'o', 00H
	DB	'g', 00H, 'r', 00H, 'a', 00H, 'm', 00H, ' ', 00H, 'F', 00H, 'i'
	DB	00H, 'l', 00H, 'e', 00H, 's', 00H, ' ', 00H, '(', 00H, 'x', 00H
	DB	'8', 00H, '6', 00H, ')', 00H, '\', 00H, 'M', 00H, 'i', 00H, 'c'
	DB	00H, 'r', 00H, 'o', 00H, 's', 00H, 'o', 00H, 'f', 00H, 't', 00H
	DB	' ', 00H, 'V', 00H, 'i', 00H, 's', 00H, 'u', 00H, 'a', 00H, 'l'
	DB	00H, ' ', 00H, 'S', 00H, 't', 00H, 'u', 00H, 'd', 00H, 'i', 00H
	DB	'o', 00H, '\', 00H, '2', 00H, '0', 00H, '1', 00H, '9', 00H, '\'
	DB	00H, 'C', 00H, 'o', 00H, 'm', 00H, 'm', 00H, 'u', 00H, 'n', 00H
	DB	'i', 00H, 't', 00H, 'y', 00H, '\', 00H, 'V', 00H, 'C', 00H, '\'
	DB	00H, 'T', 00H, 'o', 00H, 'o', 00H, 'l', 00H, 's', 00H, '\', 00H
	DB	'M', 00H, 'S', 00H, 'V', 00H, 'C', 00H, '\', 00H, '1', 00H, '4'
	DB	00H, '.', 00H, '2', 00H, '9', 00H, '.', 00H, '3', 00H, '0', 00H
	DB	'0', 00H, '3', 00H, '7', 00H, '\', 00H, 'i', 00H, 'n', 00H, 'c'
	DB	00H, 'l', 00H, 'u', 00H, 'd', 00H, 'e', 00H, '\', 00H, 'x', 00H
	DB	'm', 00H, 'e', 00H, 'm', 00H, 'o', 00H, 'r', 00H, 'y', 00H, 00H
	DB	00H
$SG48091 DB	's', 00H, 't', 00H, 'd', 00H, ':', 00H, ':', 00H, '_', 00H
	DB	'A', 00H, 'l', 00H, 'l', 00H, 'o', 00H, 'c', 00H, 'a', 00H, 't'
	DB	00H, 'e', 00H, '_', 00H, 'm', 00H, 'a', 00H, 'n', 00H, 'u', 00H
	DB	'a', 00H, 'l', 00H, 'l', 00H, 'y', 00H, '_', 00H, 'v', 00H, 'e'
	DB	00H, 'c', 00H, 't', 00H, 'o', 00H, 'r', 00H, '_', 00H, 'a', 00H
	DB	'l', 00H, 'i', 00H, 'g', 00H, 'n', 00H, 'e', 00H, 'd', 00H, 00H
	DB	00H
	ORG $+2
$SG48092 DB	'"', 00H, 'i', 00H, 'n', 00H, 'v', 00H, 'a', 00H, 'l', 00H
	DB	'i', 00H, 'd', 00H, ' ', 00H, 'a', 00H, 'r', 00H, 'g', 00H, 'u'
	DB	00H, 'm', 00H, 'e', 00H, 'n', 00H, 't', 00H, '"', 00H, 00H, 00H
	ORG $+10
$SG48272 DB	'C:\Program Files (x86)\Microsoft Visual Studio\2019\Comm'
	DB	'unity\VC\Tools\MSVC\14.29.30037\include\xlocale', 00H
CONST	ENDS
PUBLIC	?__empty_global_delete@@YAXPEAX@Z		; __empty_global_delete
PUBLIC	?__empty_global_delete@@YAXPEAX_K@Z		; __empty_global_delete
PUBLIC	??2@YAPEAX_KPEAX@Z				; operator new
PUBLIC	?max@?$numeric_limits@_J@std@@SA_JXZ		; std::numeric_limits<__int64>::max
PUBLIC	??0exception@std@@QEAA@QEBDH@Z			; std::exception::exception
PUBLIC	??0exception@std@@QEAA@AEBV01@@Z		; std::exception::exception
PUBLIC	??1exception@std@@UEAA@XZ			; std::exception::~exception
PUBLIC	?what@exception@std@@UEBAPEBDXZ			; std::exception::what
PUBLIC	??_Gexception@std@@UEAAPEAXI@Z			; std::exception::`scalar deleting destructor'
PUBLIC	??0bad_alloc@std@@AEAA@QEBD@Z			; std::bad_alloc::bad_alloc
PUBLIC	??1bad_alloc@std@@UEAA@XZ			; std::bad_alloc::~bad_alloc
PUBLIC	??0bad_alloc@std@@QEAA@AEBV01@@Z		; std::bad_alloc::bad_alloc
PUBLIC	??_Gbad_alloc@std@@UEAAPEAXI@Z			; std::bad_alloc::`scalar deleting destructor'
PUBLIC	??0bad_array_new_length@std@@QEAA@XZ		; std::bad_array_new_length::bad_array_new_length
PUBLIC	??1bad_array_new_length@std@@UEAA@XZ		; std::bad_array_new_length::~bad_array_new_length
PUBLIC	??0bad_array_new_length@std@@QEAA@AEBV01@@Z	; std::bad_array_new_length::bad_array_new_length
PUBLIC	??_Gbad_array_new_length@std@@UEAAPEAXI@Z	; std::bad_array_new_length::`scalar deleting destructor'
PUBLIC	?_Throw_bad_array_new_length@std@@YAXXZ		; std::_Throw_bad_array_new_length
PUBLIC	?_Allocate@_Default_allocate_traits@std@@SAPEAX_K@Z ; std::_Default_allocate_traits::_Allocate
PUBLIC	?_Adjust_manually_vector_aligned@std@@YAXAEAPEAXAEA_K@Z ; std::_Adjust_manually_vector_aligned
PUBLIC	??$_Convert_size@_K@std@@YA_K_K@Z		; std::_Convert_size<unsigned __int64>
PUBLIC	??0_Container_proxy@std@@QEAA@PEAU_Container_base12@1@@Z ; std::_Container_proxy::_Container_proxy
PUBLIC	??0_Container_base12@std@@QEAA@XZ		; std::_Container_base12::_Container_base12
PUBLIC	?_Orphan_all@_Container_base12@std@@QEAAXXZ	; std::_Container_base12::_Orphan_all
PUBLIC	?_Orphan_all_unlocked@_Container_base12@std@@AEAAXXZ ; std::_Container_base12::_Orphan_all_unlocked
PUBLIC	?_Orphan_all_locked@_Container_base12@std@@AEAAXXZ ; std::_Container_base12::_Orphan_all_locked
PUBLIC	?_Release@_Basic_container_proxy_ptr12@std@@QEAAXXZ ; std::_Basic_container_proxy_ptr12::_Release
PUBLIC	??0_Basic_container_proxy_ptr12@std@@IEAA@XZ	; std::_Basic_container_proxy_ptr12::_Basic_container_proxy_ptr12
PUBLIC	?copy@?$_Char_traits@DH@std@@SAPEADQEADQEBD_K@Z	; std::_Char_traits<char,int>::copy
PUBLIC	?move@?$_Char_traits@DH@std@@SAPEADQEADQEBD_K@Z	; std::_Char_traits<char,int>::move
PUBLIC	?length@?$_Narrow_char_traits@DH@std@@SA_KQEBD@Z ; std::_Narrow_char_traits<char,int>::length
PUBLIC	?assign@?$_Narrow_char_traits@DH@std@@SAXAEADAEBD@Z ; std::_Narrow_char_traits<char,int>::assign
PUBLIC	?eq_int_type@?$_Narrow_char_traits@DH@std@@SA_NAEBH0@Z ; std::_Narrow_char_traits<char,int>::eq_int_type
PUBLIC	?eof@?$_Narrow_char_traits@DH@std@@SAHXZ	; std::_Narrow_char_traits<char,int>::eof
PUBLIC	?_Xlen_string@std@@YAXXZ			; std::_Xlen_string
PUBLIC	??0?$allocator@D@std@@QEAA@XZ			; std::allocator<char>::allocator<char>
PUBLIC	?deallocate@?$allocator@D@std@@QEAAXQEAD_K@Z	; std::allocator<char>::deallocate
PUBLIC	?allocate@?$allocator@D@std@@QEAAPEAD_K@Z	; std::allocator<char>::allocate
PUBLIC	?max_size@?$_Default_allocator_traits@V?$allocator@D@std@@@std@@SA_KAEBV?$allocator@D@2@@Z ; std::_Default_allocator_traits<std::allocator<char> >::max_size
PUBLIC	?select_on_container_copy_construction@?$_Default_allocator_traits@V?$allocator@D@std@@@std@@SA?AV?$allocator@D@2@AEBV32@@Z ; std::_Default_allocator_traits<std::allocator<char> >::select_on_container_copy_construction
PUBLIC	??0?$_String_val@U?$_Simple_types@D@std@@@std@@QEAA@XZ ; std::_String_val<std::_Simple_types<char> >::_String_val<std::_Simple_types<char> >
PUBLIC	?_Myptr@?$_String_val@U?$_Simple_types@D@std@@@std@@QEAAPEADXZ ; std::_String_val<std::_Simple_types<char> >::_Myptr
PUBLIC	?_Myptr@?$_String_val@U?$_Simple_types@D@std@@@std@@QEBAPEBDXZ ; std::_String_val<std::_Simple_types<char> >::_Myptr
PUBLIC	?_Large_string_engaged@?$_String_val@U?$_Simple_types@D@std@@@std@@QEBA_NXZ ; std::_String_val<std::_Simple_types<char> >::_Large_string_engaged
PUBLIC	??0_Bxty@?$_String_val@U?$_Simple_types@D@std@@@std@@QEAA@XZ ; std::_String_val<std::_Simple_types<char> >::_Bxty::_Bxty
PUBLIC	??1_Bxty@?$_String_val@U?$_Simple_types@D@std@@@std@@QEAA@XZ ; std::_String_val<std::_Simple_types<char> >::_Bxty::~_Bxty
PUBLIC	??1?$_String_val@U?$_Simple_types@D@std@@@std@@QEAA@XZ ; std::_String_val<std::_Simple_types<char> >::~_String_val<std::_Simple_types<char> >
PUBLIC	??0?$basic_string@DU?$char_traits@D@std@@V?$allocator@D@2@@std@@QEAA@AEBV01@@Z ; std::basic_string<char,std::char_traits<char>,std::allocator<char> >::basic_string<char,std::char_traits<char>,std::allocator<char> >
PUBLIC	??0?$basic_string@DU?$char_traits@D@std@@V?$allocator@D@2@@std@@QEAA@QEBD@Z ; std::basic_string<char,std::char_traits<char>,std::allocator<char> >::basic_string<char,std::char_traits<char>,std::allocator<char> >
PUBLIC	?_Construct_lv_contents@?$basic_string@DU?$char_traits@D@std@@V?$allocator@D@2@@std@@AEAAXAEBV12@@Z ; std::basic_string<char,std::char_traits<char>,std::allocator<char> >::_Construct_lv_contents
PUBLIC	??1?$basic_string@DU?$char_traits@D@std@@V?$allocator@D@2@@std@@QEAA@XZ ; std::basic_string<char,std::char_traits<char>,std::allocator<char> >::~basic_string<char,std::char_traits<char>,std::allocator<char> >
PUBLIC	?assign@?$basic_string@DU?$char_traits@D@std@@V?$allocator@D@2@@std@@QEAAAEAV12@QEBD_K@Z ; std::basic_string<char,std::char_traits<char>,std::allocator<char> >::assign
PUBLIC	?assign@?$basic_string@DU?$char_traits@D@std@@V?$allocator@D@2@@std@@QEAAAEAV12@QEBD@Z ; std::basic_string<char,std::char_traits<char>,std::allocator<char> >::assign
PUBLIC	??A?$basic_string@DU?$char_traits@D@std@@V?$allocator@D@2@@std@@QEAAAEAD_K@Z ; std::basic_string<char,std::char_traits<char>,std::allocator<char> >::operator[]
PUBLIC	??A?$basic_string@DU?$char_traits@D@std@@V?$allocator@D@2@@std@@QEBAAEBD_K@Z ; std::basic_string<char,std::char_traits<char>,std::allocator<char> >::operator[]
PUBLIC	?data@?$basic_string@DU?$char_traits@D@std@@V?$allocator@D@2@@std@@QEBAPEBDXZ ; std::basic_string<char,std::char_traits<char>,std::allocator<char> >::data
PUBLIC	?size@?$basic_string@DU?$char_traits@D@std@@V?$allocator@D@2@@std@@QEBA_KXZ ; std::basic_string<char,std::char_traits<char>,std::allocator<char> >::size
PUBLIC	?max_size@?$basic_string@DU?$char_traits@D@std@@V?$allocator@D@2@@std@@QEBA_KXZ ; std::basic_string<char,std::char_traits<char>,std::allocator<char> >::max_size
PUBLIC	?_Calculate_growth@?$basic_string@DU?$char_traits@D@std@@V?$allocator@D@2@@std@@CA_K_K00@Z ; std::basic_string<char,std::char_traits<char>,std::allocator<char> >::_Calculate_growth
PUBLIC	?_Calculate_growth@?$basic_string@DU?$char_traits@D@std@@V?$allocator@D@2@@std@@AEBA_K_K@Z ; std::basic_string<char,std::char_traits<char>,std::allocator<char> >::_Calculate_growth
PUBLIC	?_Tidy_init@?$basic_string@DU?$char_traits@D@std@@V?$allocator@D@2@@std@@AEAAXXZ ; std::basic_string<char,std::char_traits<char>,std::allocator<char> >::_Tidy_init
PUBLIC	?_Tidy_deallocate@?$basic_string@DU?$char_traits@D@std@@V?$allocator@D@2@@std@@AEAAXXZ ; std::basic_string<char,std::char_traits<char>,std::allocator<char> >::_Tidy_deallocate
PUBLIC	?_Getal@?$basic_string@DU?$char_traits@D@std@@V?$allocator@D@2@@std@@AEAAAEAV?$allocator@D@2@XZ ; std::basic_string<char,std::char_traits<char>,std::allocator<char> >::_Getal
PUBLIC	?_Getal@?$basic_string@DU?$char_traits@D@std@@V?$allocator@D@2@@std@@AEBAAEBV?$allocator@D@2@XZ ; std::basic_string<char,std::char_traits<char>,std::allocator<char> >::_Getal
PUBLIC	?_Get_first@?$_Compressed_pair@V?$allocator@D@std@@V?$_String_val@U?$_Simple_types@D@std@@@2@$00@std@@QEAAAEAV?$allocator@D@2@XZ ; std::_Compressed_pair<std::allocator<char>,std::_String_val<std::_Simple_types<char> >,1>::_Get_first
PUBLIC	?_Get_first@?$_Compressed_pair@V?$allocator@D@std@@V?$_String_val@U?$_Simple_types@D@std@@@2@$00@std@@QEBAAEBV?$allocator@D@2@XZ ; std::_Compressed_pair<std::allocator<char>,std::_String_val<std::_Simple_types<char> >,1>::_Get_first
PUBLIC	??1?$_Compressed_pair@V?$allocator@D@std@@V?$_String_val@U?$_Simple_types@D@std@@@2@$00@std@@QEAA@XZ ; std::_Compressed_pair<std::allocator<char>,std::_String_val<std::_Simple_types<char> >,1>::~_Compressed_pair<std::allocator<char>,std::_String_val<std::_Simple_types<char> >,1>
PUBLIC	?search@pattern_searcher_t@@QEAAHXZ		; pattern_searcher_t::search
PUBLIC	?buildMatchingMachine@pattern_searcher_t@@AEAAHQEAV?$basic_string@DU?$char_traits@D@std@@V?$allocator@D@2@@std@@H@Z ; pattern_searcher_t::buildMatchingMachine
PUBLIC	?findNextState@pattern_searcher_t@@AEAAHHD@Z	; pattern_searcher_t::findNextState
PUBLIC	?searchWords@pattern_searcher_t@@AEAAXQEAV?$basic_string@DU?$char_traits@D@std@@V?$allocator@D@2@@std@@HV23@@Z ; pattern_searcher_t::searchWords
PUBLIC	??0?$allocator@H@std@@QEAA@XZ			; std::allocator<int>::allocator<int>
PUBLIC	?deallocate@?$allocator@H@std@@QEAAXQEAH_K@Z	; std::allocator<int>::deallocate
PUBLIC	?allocate@?$allocator@H@std@@QEAAPEAH_K@Z	; std::allocator<int>::allocate
PUBLIC	?max_size@?$_Default_allocator_traits@V?$allocator@H@std@@@std@@SA_KAEBV?$allocator@H@2@@Z ; std::_Default_allocator_traits<std::allocator<int> >::max_size
PUBLIC	?deallocate@?$allocator@PEAH@std@@QEAAXQEAPEAH_K@Z ; std::allocator<int *>::deallocate
PUBLIC	?allocate@?$allocator@PEAH@std@@QEAAPEAPEAH_K@Z	; std::allocator<int *>::allocate
PUBLIC	??0?$_Deque_val@U?$_Deque_simple_types@H@std@@@std@@QEAA@XZ ; std::_Deque_val<std::_Deque_simple_types<int> >::_Deque_val<std::_Deque_simple_types<int> >
PUBLIC	?_Getblock@?$_Deque_val@U?$_Deque_simple_types@H@std@@@std@@QEBA_K_K@Z ; std::_Deque_val<std::_Deque_simple_types<int> >::_Getblock
PUBLIC	??0?$deque@HV?$allocator@H@std@@@std@@QEAA@XZ	; std::deque<int,std::allocator<int> >::deque<int,std::allocator<int> >
PUBLIC	??1?$deque@HV?$allocator@H@std@@@std@@QEAA@XZ	; std::deque<int,std::allocator<int> >::~deque<int,std::allocator<int> >
PUBLIC	?_Unchecked_begin@?$deque@HV?$allocator@H@std@@@std@@QEAA?AV?$_Deque_unchecked_iterator@V?$_Deque_val@U?$_Deque_simple_types@H@std@@@std@@@2@XZ ; std::deque<int,std::allocator<int> >::_Unchecked_begin
PUBLIC	?size@?$deque@HV?$allocator@H@std@@@std@@QEBA_KXZ ; std::deque<int,std::allocator<int> >::size
PUBLIC	?max_size@?$deque@HV?$allocator@H@std@@@std@@QEBA_KXZ ; std::deque<int,std::allocator<int> >::max_size
PUBLIC	?empty@?$deque@HV?$allocator@H@std@@@std@@QEBA_NXZ ; std::deque<int,std::allocator<int> >::empty
PUBLIC	?front@?$deque@HV?$allocator@H@std@@@std@@QEAAAEAHXZ ; std::deque<int,std::allocator<int> >::front
PUBLIC	?pop_front@?$deque@HV?$allocator@H@std@@@std@@QEAAXXZ ; std::deque<int,std::allocator<int> >::pop_front
PUBLIC	?push_back@?$deque@HV?$allocator@H@std@@@std@@QEAAXAEBH@Z ; std::deque<int,std::allocator<int> >::push_back
PUBLIC	?pop_back@?$deque@HV?$allocator@H@std@@@std@@QEAAXXZ ; std::deque<int,std::allocator<int> >::pop_back
PUBLIC	?_Xlen@?$deque@HV?$allocator@H@std@@@std@@AEBAXXZ ; std::deque<int,std::allocator<int> >::_Xlen
PUBLIC	?_Growmap@?$deque@HV?$allocator@H@std@@@std@@AEAAX_K@Z ; std::deque<int,std::allocator<int> >::_Growmap
PUBLIC	?_Tidy@?$deque@HV?$allocator@H@std@@@std@@AEAAXXZ ; std::deque<int,std::allocator<int> >::_Tidy
PUBLIC	?_Orphan_off@?$deque@HV?$allocator@H@std@@@std@@AEBAX_K@Z ; std::deque<int,std::allocator<int> >::_Orphan_off
PUBLIC	?_Getblock@?$deque@HV?$allocator@H@std@@@std@@AEBA_K_K@Z ; std::deque<int,std::allocator<int> >::_Getblock
PUBLIC	?_Orphan_all@?$deque@HV?$allocator@H@std@@@std@@AEAAXXZ ; std::deque<int,std::allocator<int> >::_Orphan_all
PUBLIC	?_Getal@?$deque@HV?$allocator@H@std@@@std@@AEAAAEAV?$allocator@H@2@XZ ; std::deque<int,std::allocator<int> >::_Getal
PUBLIC	?_Getal@?$deque@HV?$allocator@H@std@@@std@@AEBAAEBV?$allocator@H@2@XZ ; std::deque<int,std::allocator<int> >::_Getal
PUBLIC	?_Get_data@?$deque@HV?$allocator@H@std@@@std@@AEAAAEAV?$_Deque_val@U?$_Deque_simple_types@H@std@@@2@XZ ; std::deque<int,std::allocator<int> >::_Get_data
PUBLIC	?_Get_data@?$deque@HV?$allocator@H@std@@@std@@AEBAAEBV?$_Deque_val@U?$_Deque_simple_types@H@std@@@2@XZ ; std::deque<int,std::allocator<int> >::_Get_data
PUBLIC	?_Map@?$deque@HV?$allocator@H@std@@@std@@AEAAAEAPEAPEAHXZ ; std::deque<int,std::allocator<int> >::_Map
PUBLIC	?_Mapsize@?$deque@HV?$allocator@H@std@@@std@@AEAAAEA_KXZ ; std::deque<int,std::allocator<int> >::_Mapsize
PUBLIC	?_Myoff@?$deque@HV?$allocator@H@std@@@std@@AEAAAEA_KXZ ; std::deque<int,std::allocator<int> >::_Myoff
PUBLIC	?_Myoff@?$deque@HV?$allocator@H@std@@@std@@AEBAAEB_KXZ ; std::deque<int,std::allocator<int> >::_Myoff
PUBLIC	?_Mysize@?$deque@HV?$allocator@H@std@@@std@@AEAAAEA_KXZ ; std::deque<int,std::allocator<int> >::_Mysize
PUBLIC	?_Mysize@?$deque@HV?$allocator@H@std@@@std@@AEBAAEB_KXZ ; std::deque<int,std::allocator<int> >::_Mysize
PUBLIC	?_Get_first@?$_Compressed_pair@V?$allocator@H@std@@V?$_Deque_val@U?$_Deque_simple_types@H@std@@@2@$00@std@@QEAAAEAV?$allocator@H@2@XZ ; std::_Compressed_pair<std::allocator<int>,std::_Deque_val<std::_Deque_simple_types<int> >,1>::_Get_first
PUBLIC	?_Get_first@?$_Compressed_pair@V?$allocator@H@std@@V?$_Deque_val@U?$_Deque_simple_types@H@std@@@2@$00@std@@QEBAAEBV?$allocator@H@2@XZ ; std::_Compressed_pair<std::allocator<int>,std::_Deque_val<std::_Deque_simple_types<int> >,1>::_Get_first
PUBLIC	??0?$queue@HV?$deque@HV?$allocator@H@std@@@std@@@std@@QEAA@XZ ; std::queue<int,std::deque<int,std::allocator<int> > >::queue<int,std::deque<int,std::allocator<int> > >
PUBLIC	?size@?$queue@HV?$deque@HV?$allocator@H@std@@@std@@@std@@QEBA_KXZ ; std::queue<int,std::deque<int,std::allocator<int> > >::size
PUBLIC	?front@?$queue@HV?$deque@HV?$allocator@H@std@@@std@@@std@@QEAAAEAHXZ ; std::queue<int,std::deque<int,std::allocator<int> > >::front
PUBLIC	?push@?$queue@HV?$deque@HV?$allocator@H@std@@@std@@@std@@QEAAXAEBH@Z ; std::queue<int,std::deque<int,std::allocator<int> > >::push
PUBLIC	?pop@?$queue@HV?$deque@HV?$allocator@H@std@@@std@@@std@@QEAAXXZ ; std::queue<int,std::deque<int,std::allocator<int> > >::pop
PUBLIC	??1?$queue@HV?$deque@HV?$allocator@H@std@@@std@@@std@@QEAA@XZ ; std::queue<int,std::deque<int,std::allocator<int> > >::~queue<int,std::deque<int,std::allocator<int> > >
PUBLIC	??$?6U?$char_traits@D@std@@@std@@YAAEAV?$basic_ostream@DU?$char_traits@D@std@@@0@AEAV10@PEBD@Z ; std::operator<<<std::char_traits<char> >
PUBLIC	??$?6DU?$char_traits@D@std@@V?$allocator@D@1@@std@@YAAEAV?$basic_ostream@DU?$char_traits@D@std@@@0@AEAV10@AEBV?$basic_string@DU?$char_traits@D@std@@V?$allocator@D@2@@0@@Z ; std::operator<<<char,std::char_traits<char>,std::allocator<char> >
PUBLIC	??$endl@DU?$char_traits@D@std@@@std@@YAAEAV?$basic_ostream@DU?$char_traits@D@std@@@0@AEAV10@@Z ; std::endl<char,std::char_traits<char> >
PUBLIC	?allocate@?$allocator@U_Container_proxy@std@@@std@@QEAAPEAU_Container_proxy@2@_K@Z ; std::allocator<std::_Container_proxy>::allocate
PUBLIC	??$?0H@?$allocator@U_Container_proxy@std@@@std@@QEAA@AEBV?$allocator@H@1@@Z ; std::allocator<std::_Container_proxy>::allocator<std::_Container_proxy><int>
PUBLIC	??$exchange@PEAU_Container_proxy@std@@$$T@std@@YAPEAU_Container_proxy@0@AEAPEAU10@$$QEA$$T@Z ; std::exchange<std::_Container_proxy *,std::nullptr_t>
PUBLIC	??$_Delete_plain_internal@V?$allocator@U_Container_proxy@std@@@std@@@std@@YAXAEAV?$allocator@U_Container_proxy@std@@@0@QEAU_Container_proxy@0@@Z ; std::_Delete_plain_internal<std::allocator<std::_Container_proxy> >
PUBLIC	??$?0$$V@?$_Compressed_pair@V?$allocator@H@std@@V?$_Deque_val@U?$_Deque_simple_types@H@std@@@2@$00@std@@QEAA@U_Zero_then_variadic_args_t@1@@Z ; std::_Compressed_pair<std::allocator<int>,std::_Deque_val<std::_Deque_simple_types<int> >,1>::_Compressed_pair<std::allocator<int>,std::_Deque_val<std::_Deque_simple_types<int> >,1><>
PUBLIC	??$_Alloc_proxy@V?$allocator@U_Container_proxy@std@@@std@@@_Container_base12@std@@QEAAX$$QEAV?$allocator@U_Container_proxy@std@@@1@@Z ; std::_Container_base12::_Alloc_proxy<std::allocator<std::_Container_proxy> >
PUBLIC	??0_Sentry_base@?$basic_ostream@DU?$char_traits@D@std@@@std@@QEAA@AEAV12@@Z ; std::basic_ostream<char,std::char_traits<char> >::_Sentry_base::_Sentry_base
PUBLIC	??1_Sentry_base@?$basic_ostream@DU?$char_traits@D@std@@@std@@QEAA@XZ ; std::basic_ostream<char,std::char_traits<char> >::_Sentry_base::~_Sentry_base
PUBLIC	??0sentry@?$basic_ostream@DU?$char_traits@D@std@@@std@@QEAA@AEAV12@@Z ; std::basic_ostream<char,std::char_traits<char> >::sentry::sentry
PUBLIC	??1sentry@?$basic_ostream@DU?$char_traits@D@std@@@std@@QEAA@XZ ; std::basic_ostream<char,std::char_traits<char> >::sentry::~sentry
PUBLIC	??Bsentry@?$basic_ostream@DU?$char_traits@D@std@@@std@@QEBA_NXZ ; std::basic_ostream<char,std::char_traits<char> >::sentry::operator bool
PUBLIC	??$min@_K@std@@YAAEB_KAEB_K0@Z			; std::min<unsigned __int64>
PUBLIC	??0?$_Container_proxy_ptr12@V?$allocator@U_Container_proxy@std@@@std@@@std@@QEAA@AEAV?$allocator@U_Container_proxy@std@@@1@AEAU_Container_base12@1@@Z ; std::_Container_proxy_ptr12<std::allocator<std::_Container_proxy> >::_Container_proxy_ptr12<std::allocator<std::_Container_proxy> >
PUBLIC	??1?$_Container_proxy_ptr12@V?$allocator@U_Container_proxy@std@@@std@@@std@@QEAA@XZ ; std::_Container_proxy_ptr12<std::allocator<std::_Container_proxy> >::~_Container_proxy_ptr12<std::allocator<std::_Container_proxy> >
PUBLIC	??$?0D@?$allocator@U_Container_proxy@std@@@std@@QEAA@AEBV?$allocator@D@1@@Z ; std::allocator<std::_Container_proxy>::allocator<std::_Container_proxy><char>
PUBLIC	??$?0V?$allocator@D@std@@$$V@?$_Compressed_pair@V?$allocator@D@std@@V?$_String_val@U?$_Simple_types@D@std@@@2@$00@std@@QEAA@U_One_then_variadic_args_t@1@$$QEAV?$allocator@D@1@@Z ; std::_Compressed_pair<std::allocator<char>,std::_String_val<std::_Simple_types<char> >,1>::_Compressed_pair<std::allocator<char>,std::_String_val<std::_Simple_types<char> >,1><std::allocator<char> >
PUBLIC	??$?0$$V@?$_Compressed_pair@V?$allocator@D@std@@V?$_String_val@U?$_Simple_types@D@std@@@2@$00@std@@QEAA@U_Zero_then_variadic_args_t@1@@Z ; std::_Compressed_pair<std::allocator<char>,std::_String_val<std::_Simple_types<char> >,1>::_Compressed_pair<std::allocator<char>,std::_String_val<std::_Simple_types<char> >,1><>
PUBLIC	??$_Unfancy@U_Container_proxy@std@@@std@@YAPEAU_Container_proxy@0@PEAU10@@Z ; std::_Unfancy<std::_Container_proxy>
PUBLIC	??$addressof@U_Container_base12@std@@@std@@YAPEAU_Container_base12@0@AEAU10@@Z ; std::addressof<std::_Container_base12>
PUBLIC	??$_Construct_in_place@U_Container_proxy@std@@PEAU_Container_base12@2@@std@@YAXAEAU_Container_proxy@0@$$QEAPEAU_Container_base12@0@@Z ; std::_Construct_in_place<std::_Container_proxy,std::_Container_base12 *>
PUBLIC	??$?0H@?$allocator@PEAH@std@@QEAA@AEBV?$allocator@H@1@@Z ; std::allocator<int *>::allocator<int *><int>
PUBLIC	??$_Destroy_in_place@PEAH@std@@YAXAEAPEAH@Z	; std::_Destroy_in_place<int *>
PUBLIC	??$_Emplace_back_internal@AEBH@?$deque@HV?$allocator@H@std@@@std@@AEAAXAEBH@Z ; std::deque<int,std::allocator<int> >::_Emplace_back_internal<int const &>
PUBLIC	??$_Unfancy@H@std@@YAPEAHPEAH@Z			; std::_Unfancy<int>
PUBLIC	??$destroy@H@?$_Default_allocator_traits@V?$allocator@H@std@@@std@@SAXAEAV?$allocator@H@1@QEAH@Z ; std::_Default_allocator_traits<std::allocator<int> >::destroy<int>
PUBLIC	??0?$_Deque_unchecked_const_iterator@V?$_Deque_val@U?$_Deque_simple_types@H@std@@@std@@@std@@QEAA@_KPEBU_Container_base12@1@@Z ; std::_Deque_unchecked_const_iterator<std::_Deque_val<std::_Deque_simple_types<int> > >::_Deque_unchecked_const_iterator<std::_Deque_val<std::_Deque_simple_types<int> > >
PUBLIC	??D?$_Deque_unchecked_const_iterator@V?$_Deque_val@U?$_Deque_simple_types@H@std@@@std@@@std@@QEBAAEBHXZ ; std::_Deque_unchecked_const_iterator<std::_Deque_val<std::_Deque_simple_types<int> > >::operator*
PUBLIC	??D?$_Deque_unchecked_iterator@V?$_Deque_val@U?$_Deque_simple_types@H@std@@@std@@@std@@QEBAAEAHXZ ; std::_Deque_unchecked_iterator<std::_Deque_val<std::_Deque_simple_types<int> > >::operator*
PUBLIC	??0?$_Deque_unchecked_iterator@V?$_Deque_val@U?$_Deque_simple_types@H@std@@@std@@@std@@QEAA@_KPEBU_Container_base12@1@@Z ; std::_Deque_unchecked_iterator<std::_Deque_val<std::_Deque_simple_types<int> > >::_Deque_unchecked_iterator<std::_Deque_val<std::_Deque_simple_types<int> > >
PUBLIC	??$_Destroy_in_place@PEAD@std@@YAXAEAPEAD@Z	; std::_Destroy_in_place<char *>
PUBLIC	??R<lambda_66f57f934f28d61049862f64df852ff0>@@QEBA@QEAD_KQEBD@Z ; <lambda_66f57f934f28d61049862f64df852ff0>::operator()
PUBLIC	??$_Reallocate_for@V<lambda_66f57f934f28d61049862f64df852ff0>@@PEBD@?$basic_string@DU?$char_traits@D@std@@V?$allocator@D@2@@std@@AEAAAEAV01@_KV<lambda_66f57f934f28d61049862f64df852ff0>@@PEBD@Z ; std::basic_string<char,std::char_traits<char>,std::allocator<char> >::_Reallocate_for<<lambda_66f57f934f28d61049862f64df852ff0>,char const *>
PUBLIC	??$_Construct_in_place@PEADAEBQEAD@std@@YAXAEAPEADAEBQEAD@Z ; std::_Construct_in_place<char *,char * const &>
PUBLIC	??$_Unfancy@D@std@@YAPEADPEAD@Z			; std::_Unfancy<char>
PUBLIC	??$max@_K@std@@YAAEB_KAEB_K0@Z			; std::max<unsigned __int64>
PUBLIC	??$_Get_size_of_n@$0BA@@std@@YA_K_K@Z		; std::_Get_size_of_n<16>
PUBLIC	??$_Allocate@$0BA@U_Default_allocate_traits@std@@$0A@@std@@YAPEAX_K@Z ; std::_Allocate<16,std::_Default_allocate_traits,0>
PUBLIC	??$addressof@V?$_Deque_val@U?$_Deque_simple_types@H@std@@@std@@@std@@YAPEAV?$_Deque_val@U?$_Deque_simple_types@H@std@@@0@AEAV10@@Z ; std::addressof<std::_Deque_val<std::_Deque_simple_types<int> > >
PUBLIC	??$_Deallocate@$0BA@$0A@@std@@YAXPEAX_K@Z	; std::_Deallocate<16,0>
PUBLIC	??$_Get_size_of_n@$00@std@@YA_K_K@Z		; std::_Get_size_of_n<1>
PUBLIC	??$_Insert_string@DU?$char_traits@D@std@@_K@std@@YAAEAV?$basic_ostream@DU?$char_traits@D@std@@@0@AEAV10@QEBD_K@Z ; std::_Insert_string<char,std::char_traits<char>,unsigned __int64>
PUBLIC	??$_Deallocate_plain@V?$allocator@U_Container_proxy@std@@@std@@@std@@YAXAEAV?$allocator@U_Container_proxy@std@@@0@QEAU_Container_proxy@0@@Z ; std::_Deallocate_plain<std::allocator<std::_Container_proxy> >
PUBLIC	??$forward@V?$allocator@D@std@@@std@@YA$$QEAV?$allocator@D@0@AEAV10@@Z ; std::forward<std::allocator<char> >
PUBLIC	??$addressof@U_Container_proxy@std@@@std@@YAPEAU_Container_proxy@0@AEAU10@@Z ; std::addressof<std::_Container_proxy>
PUBLIC	??$_Voidify_iter@PEAU_Container_proxy@std@@@std@@YAPEAXPEAU_Container_proxy@0@@Z ; std::_Voidify_iter<std::_Container_proxy *>
PUBLIC	??$forward@PEAU_Container_base12@std@@@std@@YA$$QEAPEAU_Container_base12@0@AEAPEAU10@@Z ; std::forward<std::_Container_base12 *>
PUBLIC	??$forward@AEBH@std@@YAAEBHAEBH@Z		; std::forward<int const &>
PUBLIC	??$construct@HAEBH@?$_Default_allocator_traits@V?$allocator@H@std@@@std@@SAXAEAV?$allocator@H@1@QEAHAEBH@Z ; std::_Default_allocator_traits<std::allocator<int> >::construct<int,int const &>
PUBLIC	??$addressof@PEAD@std@@YAPEAPEADAEAPEAD@Z	; std::addressof<char *>
PUBLIC	??$_Voidify_iter@PEAPEAD@std@@YAPEAXPEAPEAD@Z	; std::_Voidify_iter<char * *>
PUBLIC	??$forward@AEBQEAD@std@@YAAEBQEADAEBQEAD@Z	; std::forward<char * const &>
PUBLIC	??$_Allocate_manually_vector_aligned@U_Default_allocate_traits@std@@@std@@YAPEAX_K@Z ; std::_Allocate_manually_vector_aligned<std::_Default_allocate_traits>
PUBLIC	??$uninitialized_copy@PEAPEAHPEAPEAH@std@@YAPEAPEAHQEAPEAH0PEAPEAH@Z ; std::uninitialized_copy<int * *,int * *>
PUBLIC	??$_Uninitialized_value_construct_n_unchecked1@PEAPEAH_K@std@@YAPEAPEAHPEAPEAH_K@Z ; std::_Uninitialized_value_construct_n_unchecked1<int * *,unsigned __int64>
PUBLIC	??$_Destroy_range@PEAPEAHPEAPEAH@std@@YAXPEAPEAHQEAPEAH@Z ; std::_Destroy_range<int * *,int * *>
PUBLIC	??$_Get_size_of_n@$03@std@@YA_K_K@Z		; std::_Get_size_of_n<4>
PUBLIC	??$_Get_size_of_n@$07@std@@YA_K_K@Z		; std::_Get_size_of_n<8>
PUBLIC	?deallocate@?$_Default_allocator_traits@V?$allocator@U_Container_proxy@std@@@std@@@std@@SAXAEAV?$allocator@U_Container_proxy@std@@@2@QEAU_Container_proxy@2@_K@Z ; std::_Default_allocator_traits<std::allocator<std::_Container_proxy> >::deallocate
PUBLIC	??$_Voidify_iter@PEAH@std@@YAPEAXPEAH@Z		; std::_Voidify_iter<int *>
PUBLIC	??$_Adl_verify_range@PEAPEAHPEAPEAH@std@@YAXAEBQEAPEAH0@Z ; std::_Adl_verify_range<int * *,int * *>
PUBLIC	??$_Get_unwrapped@AEBQEAPEAH@std@@YA?A_TAEBQEAPEAH@Z ; std::_Get_unwrapped<int * * const &>
PUBLIC	??$_Idl_distance@PEAPEAHPEAPEAH@std@@YA?A_PAEBQEAPEAH0@Z ; std::_Idl_distance<int * *,int * *>
PUBLIC	??$_Get_unwrapped_n@AEAPEAPEAH_J@std@@YA?A_TAEAPEAPEAH_J@Z ; std::_Get_unwrapped_n<int * * &,__int64>
PUBLIC	??$_Uninitialized_copy_unchecked@PEAPEAHPEAPEAH@std@@YAPEAPEAHPEAPEAHQEAPEAH0@Z ; std::_Uninitialized_copy_unchecked<int * *,int * *>
PUBLIC	??$_Seek_wrapped@PEAPEAHPEAPEAH@std@@YAXAEAPEAPEAH$$QEAPEAPEAH@Z ; std::_Seek_wrapped<int * *,int * *>
PUBLIC	??$_Zero_range@PEAPEAH@std@@YAPEAPEAHQEAPEAH0@Z	; std::_Zero_range<int * *>
PUBLIC	??$_Verify_range@PEAH@std@@YAXQEBQEAH0@Z	; std::_Verify_range<int *>
PUBLIC	??$_Copy_memmove@PEAPEAHPEAPEAH@std@@YAPEAPEAHPEAPEAH00@Z ; std::_Copy_memmove<int * *,int * *>
PUBLIC	??0?$_Uninitialized_backout@PEAPEAH@std@@QEAA@PEAPEAH@Z ; std::_Uninitialized_backout<int * *>::_Uninitialized_backout<int * *>
PUBLIC	??1?$_Uninitialized_backout@PEAPEAH@std@@QEAA@XZ ; std::_Uninitialized_backout<int * *>::~_Uninitialized_backout<int * *>
PUBLIC	?_Release@?$_Uninitialized_backout@PEAPEAH@std@@QEAAPEAPEAHXZ ; std::_Uninitialized_backout<int * *>::_Release
PUBLIC	??$_Emplace_back@AEAPEAH@?$_Uninitialized_backout@PEAPEAH@std@@QEAAXAEAPEAH@Z ; std::_Uninitialized_backout<int * *>::_Emplace_back<int * &>
PUBLIC	??$forward@PEAPEAH@std@@YA$$QEAPEAPEAHAEAPEAPEAH@Z ; std::forward<int * *>
PUBLIC	??$_To_address@PEAPEAH@std@@YA?A_PAEBQEAPEAH@Z	; std::_To_address<int * *>
PUBLIC	??$forward@AEAPEAH@std@@YAAEAPEAHAEAPEAH@Z	; std::forward<int * &>
PUBLIC	??$_Construct_in_place@PEAHAEAPEAH@std@@YAXAEAPEAH0@Z ; std::_Construct_in_place<int *,int * &>
PUBLIC	??$addressof@PEAH@std@@YAPEAPEAHAEAPEAH@Z	; std::addressof<int *>
PUBLIC	??$_Voidify_iter@PEAPEAH@std@@YAPEAXPEAPEAH@Z	; std::_Voidify_iter<int * *>
PUBLIC	??_7exception@std@@6B@				; std::exception::`vftable'
PUBLIC	??_C@_0BC@EOODALEL@Unknown?5exception@		; `string'
PUBLIC	??_7bad_alloc@std@@6B@				; std::bad_alloc::`vftable'
PUBLIC	??_7bad_array_new_length@std@@6B@		; std::bad_array_new_length::`vftable'
PUBLIC	??_C@_0BF@KINCDENJ@bad?5array?5new?5length@	; `string'
PUBLIC	_TI3?AVbad_array_new_length@std@@
PUBLIC	_CTA3?AVbad_array_new_length@std@@
PUBLIC	??_R0?AVbad_array_new_length@std@@@8		; std::bad_array_new_length `RTTI Type Descriptor'
PUBLIC	_CT??_R0?AVbad_array_new_length@std@@@8??0bad_array_new_length@std@@QEAA@AEBV01@@Z24
PUBLIC	??_R0?AVbad_alloc@std@@@8			; std::bad_alloc `RTTI Type Descriptor'
PUBLIC	_CT??_R0?AVbad_alloc@std@@@8??0bad_alloc@std@@QEAA@AEBV01@@Z24
PUBLIC	??_R0?AVexception@std@@@8			; std::exception `RTTI Type Descriptor'
PUBLIC	_CT??_R0?AVexception@std@@@8??0exception@std@@QEAA@AEBV01@@Z24
PUBLIC	??_C@_0BB@FCMFBGOM@invalid?5argument@		; `string'
PUBLIC	??_C@_02DKCKIIND@?$CFs@				; `string'
PUBLIC	??_C@_0GI@KDIDHNIL@C?3?2Program?5Files?5?$CIx86?$CJ?2Microsof@ ; `string'
PUBLIC	??_C@_1NA@FOAKNOEL@?$AAC?$AA?3?$AA?2?$AAP?$AAr?$AAo?$AAg?$AAr?$AAa?$AAm?$AA?5?$AAF?$AAi?$AAl?$AAe@ ; `string'
PUBLIC	??_C@_1EK@NIFDJFDG@?$AAs?$AAt?$AAd?$AA?3?$AA?3?$AA_?$AAA?$AAd?$AAj?$AAu?$AAs?$AAt?$AA_?$AAm?$AAa@ ; `string'
PUBLIC	??_C@_1CG@JNLFBNGN@?$AA?$CC?$AAi?$AAn?$AAv?$AAa?$AAl?$AAi?$AAd?$AA?5?$AAa?$AAr?$AAg?$AAu?$AAm?$AAe@ ; `string'
PUBLIC	??_C@_0BA@JFNIOLAK@string?5too?5long@		; `string'
PUBLIC	??_C@_0BO@LFGPDMIB@string?5subscript?5out?5of?5range@ ; `string'
PUBLIC	??_C@_0GI@FKEOHBGC@C?3?2Program?5Files?5?$CIx86?$CJ?2Microsof@ ; `string'
PUBLIC	??_C@_1NA@LAIGCHJK@?$AAC?$AA?3?$AA?2?$AAP?$AAr?$AAo?$AAg?$AAr?$AAa?$AAm?$AA?5?$AAF?$AAi?$AAl?$AAe@ ; `string'
PUBLIC	??_C@_1EA@OADAPGGK@?$AA?$CC?$AAs?$AAt?$AAr?$AAi?$AAn?$AAg?$AA?5?$AAs?$AAu?$AAb?$AAs?$AAc?$AAr?$AAi@ ; `string'
PUBLIC	??_C@_1LO@NPPEKPAI@?$AAs?$AAt?$AAd?$AA?3?$AA?3?$AAb?$AAa?$AAs?$AAi?$AAc?$AA_?$AAs?$AAt?$AAr?$AAi@ ; `string'
PUBLIC	??_C@_0BH@EDKEEENI@deque?5empty?5before?5pop@	; `string'
PUBLIC	??_C@_0GG@FDHPMGE@C?3?2Program?5Files?5?$CIx86?$CJ?2Microsof@ ; `string'
PUBLIC	??_C@_1MM@DPCANHAJ@?$AAC?$AA?3?$AA?2?$AAP?$AAr?$AAo?$AAg?$AAr?$AAa?$AAm?$AA?5?$AAF?$AAi?$AAl?$AAe@ ; `string'
PUBLIC	??_C@_1GM@CDKPHBPK@?$AAs?$AAt?$AAd?$AA?3?$AA?3?$AAd?$AAe?$AAq?$AAu?$AAe?$AA?$DM?$AAi?$AAn?$AAt?$AA?0@ ; `string'
PUBLIC	??_C@_1DC@NJAACHCD@?$AA?$CC?$AAd?$AAe?$AAq?$AAu?$AAe?$AA?5?$AAe?$AAm?$AAp?$AAt?$AAy?$AA?5?$AAb?$AAe@ ; `string'
PUBLIC	??_C@_0BO@PEOHNLIM@front?$CI?$CJ?5called?5on?5empty?5deque@ ; `string'
PUBLIC	??_C@_1GE@NOEMPIO@?$AAs?$AAt?$AAd?$AA?3?$AA?3?$AAd?$AAe?$AAq?$AAu?$AAe?$AA?$DM?$AAi?$AAn?$AAt?$AA?0@ ; `string'
PUBLIC	??_C@_1EA@EELNAHHD@?$AA?$CC?$AAf?$AAr?$AAo?$AAn?$AAt?$AA?$CI?$AA?$CJ?$AA?5?$AAc?$AAa?$AAl?$AAl?$AAe?$AAd@ ; `string'
PUBLIC	??_C@_1GK@DKJEHNEJ@?$AAs?$AAt?$AAd?$AA?3?$AA?3?$AAd?$AAe?$AAq?$AAu?$AAe?$AA?$DM?$AAi?$AAn?$AAt?$AA?0@ ; `string'
PUBLIC	??_C@_0BC@KBDMBKEH@deque?$DMT?$DO?5too?5long@	; `string'
PUBLIC	??_C@_0BJ@HAJGEHKO@transposed?5pointer?5range@	; `string'
PUBLIC	??_C@_0GJ@LJDCNNIF@C?3?2Program?5Files?5?$CIx86?$CJ?2Microsof@ ; `string'
PUBLIC	??_C@_1NC@HPCGBKBF@?$AAC?$AA?3?$AA?2?$AAP?$AAr?$AAo?$AAg?$AAr?$AAa?$AAm?$AA?5?$AAF?$AAi?$AAl?$AAe@ ; `string'
PUBLIC	??_C@_1CG@LJCPDKEJ@?$AAs?$AAt?$AAd?$AA?3?$AA?3?$AA_?$AAV?$AAe?$AAr?$AAi?$AAf?$AAy?$AA_?$AAr?$AAa@ ; `string'
PUBLIC	??_C@_1DG@FJIKMGFD@?$AA?$CC?$AAt?$AAr?$AAa?$AAn?$AAs?$AAp?$AAo?$AAs?$AAe?$AAd?$AA?5?$AAp?$AAo?$AAi@ ; `string'
PUBLIC	??_R4exception@std@@6B@				; std::exception::`RTTI Complete Object Locator'
PUBLIC	??_R3exception@std@@8				; std::exception::`RTTI Class Hierarchy Descriptor'
PUBLIC	??_R2exception@std@@8				; std::exception::`RTTI Base Class Array'
PUBLIC	??_R1A@?0A@EA@exception@std@@8			; std::exception::`RTTI Base Class Descriptor at (0,-1,0,64)'
PUBLIC	??_R4bad_alloc@std@@6B@				; std::bad_alloc::`RTTI Complete Object Locator'
PUBLIC	??_R3bad_alloc@std@@8				; std::bad_alloc::`RTTI Class Hierarchy Descriptor'
PUBLIC	??_R2bad_alloc@std@@8				; std::bad_alloc::`RTTI Base Class Array'
PUBLIC	??_R1A@?0A@EA@bad_alloc@std@@8			; std::bad_alloc::`RTTI Base Class Descriptor at (0,-1,0,64)'
PUBLIC	??_R4bad_array_new_length@std@@6B@		; std::bad_array_new_length::`RTTI Complete Object Locator'
PUBLIC	??_R3bad_array_new_length@std@@8		; std::bad_array_new_length::`RTTI Class Hierarchy Descriptor'
PUBLIC	??_R2bad_array_new_length@std@@8		; std::bad_array_new_length::`RTTI Base Class Array'
PUBLIC	??_R1A@?0A@EA@bad_array_new_length@std@@8	; std::bad_array_new_length::`RTTI Base Class Descriptor at (0,-1,0,64)'
EXTRN	??_M@YAXPEAX_K1P6AX0@Z@Z:PROC			; `eh vector destructor iterator'
EXTRN	??2@YAPEAX_K@Z:PROC				; operator new
EXTRN	??3@YAXPEAX_K@Z:PROC				; operator delete
EXTRN	__imp__invalid_parameter:PROC
EXTRN	__imp__CrtDbgReport:PROC
EXTRN	__imp_??0_Lockit@std@@QEAA@H@Z:PROC
EXTRN	__imp_??1_Lockit@std@@QEAA@XZ:PROC
EXTRN	memcpy:PROC
EXTRN	memmove:PROC
EXTRN	memset:PROC
EXTRN	strlen:PROC
EXTRN	?uncaught_exception@std@@YA_NXZ:PROC		; std::uncaught_exception
EXTRN	__std_exception_copy:PROC
EXTRN	__std_exception_destroy:PROC
EXTRN	??_Eexception@std@@UEAAPEAXI@Z:PROC		; std::exception::`vector deleting destructor'
EXTRN	??_Ebad_alloc@std@@UEAAPEAXI@Z:PROC		; std::bad_alloc::`vector deleting destructor'
EXTRN	??_Ebad_array_new_length@std@@UEAAPEAXI@Z:PROC	; std::bad_array_new_length::`vector deleting destructor'
EXTRN	?_Xlength_error@std@@YAXPEBD@Z:PROC		; std::_Xlength_error
EXTRN	__imp_?good@ios_base@std@@QEBA_NXZ:PROC
EXTRN	__imp_?flags@ios_base@std@@QEBAHXZ:PROC
EXTRN	__imp_?width@ios_base@std@@QEBA_JXZ:PROC
EXTRN	__imp_?width@ios_base@std@@QEAA_J_J@Z:PROC
EXTRN	__imp_?sputc@?$basic_streambuf@DU?$char_traits@D@std@@@std@@QEAAHD@Z:PROC
EXTRN	__imp_?sputn@?$basic_streambuf@DU?$char_traits@D@std@@@std@@QEAA_JPEBD_J@Z:PROC
EXTRN	__imp_?setstate@?$basic_ios@DU?$char_traits@D@std@@@std@@QEAAXH_N@Z:PROC
EXTRN	__imp_?tie@?$basic_ios@DU?$char_traits@D@std@@@std@@QEBAPEAV?$basic_ostream@DU?$char_traits@D@std@@@2@XZ:PROC
EXTRN	__imp_?rdbuf@?$basic_ios@DU?$char_traits@D@std@@@std@@QEBAPEAV?$basic_streambuf@DU?$char_traits@D@std@@@2@XZ:PROC
EXTRN	__imp_?fill@?$basic_ios@DU?$char_traits@D@std@@@std@@QEBADXZ:PROC
EXTRN	__imp_?widen@?$basic_ios@DU?$char_traits@D@std@@@std@@QEBADD@Z:PROC
EXTRN	__imp_?_Osfx@?$basic_ostream@DU?$char_traits@D@std@@@std@@QEAAXXZ:PROC
EXTRN	__imp_??6?$basic_ostream@DU?$char_traits@D@std@@@std@@QEAAAEAV01@P6AAEAV01@AEAV01@@Z@Z:PROC
EXTRN	__imp_??6?$basic_ostream@DU?$char_traits@D@std@@@std@@QEAAAEAV01@H@Z:PROC
EXTRN	__imp_??6?$basic_ostream@DU?$char_traits@D@std@@@std@@QEAAAEAV01@_K@Z:PROC
EXTRN	__imp_?put@?$basic_ostream@DU?$char_traits@D@std@@@std@@QEAAAEAV12@D@Z:PROC
EXTRN	__imp_?flush@?$basic_ostream@DU?$char_traits@D@std@@@std@@QEAAAEAV12@XZ:PROC
EXTRN	_CxxThrowException:PROC
EXTRN	_RTC_CheckStackVars:PROC
EXTRN	_RTC_InitBase:PROC
EXTRN	_RTC_Shutdown:PROC
EXTRN	__CxxFrameHandler4:PROC
EXTRN	__GSHandlerCheck_EH4:PROC
EXTRN	__security_check_cookie:PROC
EXTRN	??_7type_info@@6B@:BYTE				; type_info::`vftable'
EXTRN	__imp_?cout@std@@3V?$basic_ostream@DU?$char_traits@D@std@@@1@A:BYTE
EXTRN	__security_cookie:QWORD
;	COMDAT pdata
pdata	SEGMENT
$pdata$?__empty_global_delete@@YAXPEAX@Z DD imagerel $LN3
	DD	imagerel $LN3+8
	DD	imagerel $unwind$?__empty_global_delete@@YAXPEAX@Z
pdata	ENDS
;	COMDAT pdata
pdata	SEGMENT
$pdata$?__empty_global_delete@@YAXPEAX_K@Z DD imagerel $LN3
	DD	imagerel $LN3+13
	DD	imagerel $unwind$?__empty_global_delete@@YAXPEAX_K@Z
pdata	ENDS
;	COMDAT pdata
pdata	SEGMENT
$pdata$??2@YAPEAX_KPEAX@Z DD imagerel $LN3
	DD	imagerel $LN3+18
	DD	imagerel $unwind$??2@YAPEAX_KPEAX@Z
pdata	ENDS
;	COMDAT pdata
pdata	SEGMENT
$pdata$?max@?$numeric_limits@_J@std@@SA_JXZ DD imagerel $LN3
	DD	imagerel $LN3+14
	DD	imagerel $unwind$?max@?$numeric_limits@_J@std@@SA_JXZ
pdata	ENDS
;	COMDAT pdata
pdata	SEGMENT
$pdata$??0exception@std@@QEAA@QEBDH@Z DD imagerel $LN3
	DD	imagerel $LN3+73
	DD	imagerel $unwind$??0exception@std@@QEAA@QEBDH@Z
pdata	ENDS
;	COMDAT pdata
pdata	SEGMENT
$pdata$??0exception@std@@QEAA@AEBV01@@Z DD imagerel $LN3
	DD	imagerel $LN3+88
	DD	imagerel $unwind$??0exception@std@@QEAA@AEBV01@@Z
pdata	ENDS
;	COMDAT pdata
pdata	SEGMENT
$pdata$??1exception@std@@UEAA@XZ DD imagerel $LN3
	DD	imagerel $LN3+48
	DD	imagerel $unwind$??1exception@std@@UEAA@XZ
pdata	ENDS
;	COMDAT pdata
pdata	SEGMENT
$pdata$?what@exception@std@@UEBAPEBDXZ DD imagerel $LN5
	DD	imagerel $LN5+58
	DD	imagerel $unwind$?what@exception@std@@UEBAPEBDXZ
pdata	ENDS
;	COMDAT pdata
pdata	SEGMENT
$pdata$??_Gexception@std@@UEAAPEAXI@Z DD imagerel $LN4
	DD	imagerel $LN4+61
	DD	imagerel $unwind$??_Gexception@std@@UEAAPEAXI@Z
pdata	ENDS
;	COMDAT pdata
pdata	SEGMENT
$pdata$??0bad_alloc@std@@AEAA@QEBD@Z DD imagerel $LN3
	DD	imagerel $LN3+62
	DD	imagerel $unwind$??0bad_alloc@std@@AEAA@QEBD@Z
pdata	ENDS
;	COMDAT pdata
pdata	SEGMENT
$pdata$??1bad_alloc@std@@UEAA@XZ DD imagerel $LN3
	DD	imagerel $LN3+26
	DD	imagerel $unwind$??1bad_alloc@std@@UEAA@XZ
pdata	ENDS
;	COMDAT pdata
pdata	SEGMENT
$pdata$??0bad_alloc@std@@QEAA@AEBV01@@Z DD imagerel $LN3
	DD	imagerel $LN3+56
	DD	imagerel $unwind$??0bad_alloc@std@@QEAA@AEBV01@@Z
pdata	ENDS
;	COMDAT pdata
pdata	SEGMENT
$pdata$??_Gbad_alloc@std@@UEAAPEAXI@Z DD imagerel $LN4
	DD	imagerel $LN4+61
	DD	imagerel $unwind$??_Gbad_alloc@std@@UEAAPEAXI@Z
pdata	ENDS
;	COMDAT pdata
pdata	SEGMENT
$pdata$??0bad_array_new_length@std@@QEAA@XZ DD imagerel $LN3
	DD	imagerel $LN3+53
	DD	imagerel $unwind$??0bad_array_new_length@std@@QEAA@XZ
pdata	ENDS
;	COMDAT pdata
pdata	SEGMENT
$pdata$??1bad_array_new_length@std@@UEAA@XZ DD imagerel $LN3
	DD	imagerel $LN3+26
	DD	imagerel $unwind$??1bad_array_new_length@std@@UEAA@XZ
pdata	ENDS
;	COMDAT pdata
pdata	SEGMENT
$pdata$??0bad_array_new_length@std@@QEAA@AEBV01@@Z DD imagerel $LN3
	DD	imagerel $LN3+56
	DD	imagerel $unwind$??0bad_array_new_length@std@@QEAA@AEBV01@@Z
pdata	ENDS
;	COMDAT pdata
pdata	SEGMENT
$pdata$??_Gbad_array_new_length@std@@UEAAPEAXI@Z DD imagerel $LN4
	DD	imagerel $LN4+61
	DD	imagerel $unwind$??_Gbad_array_new_length@std@@UEAAPEAXI@Z
pdata	ENDS
;	COMDAT pdata
pdata	SEGMENT
$pdata$?_Throw_bad_array_new_length@std@@YAXXZ DD imagerel $LN3
	DD	imagerel $LN3+39
	DD	imagerel $unwind$?_Throw_bad_array_new_length@std@@YAXXZ
pdata	ENDS
;	COMDAT pdata
pdata	SEGMENT
$pdata$?_Allocate@_Default_allocate_traits@std@@SAPEAX_K@Z DD imagerel $LN3
	DD	imagerel $LN3+26
	DD	imagerel $unwind$?_Allocate@_Default_allocate_traits@std@@SAPEAX_K@Z
pdata	ENDS
;	COMDAT pdata
pdata	SEGMENT
$pdata$?_Adjust_manually_vector_aligned@std@@YAXAEAPEAXAEA_K@Z DD imagerel $LN21
	DD	imagerel $LN21+404
	DD	imagerel $unwind$?_Adjust_manually_vector_aligned@std@@YAXAEAPEAXAEA_K@Z
pdata	ENDS
;	COMDAT pdata
pdata	SEGMENT
$pdata$??$_Convert_size@_K@std@@YA_K_K@Z DD imagerel $LN3
	DD	imagerel $LN3+13
	DD	imagerel $unwind$??$_Convert_size@_K@std@@YA_K_K@Z
pdata	ENDS
;	COMDAT pdata
pdata	SEGMENT
$pdata$??0_Container_proxy@std@@QEAA@PEAU_Container_base12@1@@Z DD imagerel $LN3
	DD	imagerel $LN3+44
	DD	imagerel $unwind$??0_Container_proxy@std@@QEAA@PEAU_Container_base12@1@@Z
pdata	ENDS
;	COMDAT pdata
pdata	SEGMENT
$pdata$??0_Container_base12@std@@QEAA@XZ DD imagerel $LN3
	DD	imagerel $LN3+25
	DD	imagerel $unwind$??0_Container_base12@std@@QEAA@XZ
pdata	ENDS
;	COMDAT pdata
pdata	SEGMENT
$pdata$?_Orphan_all@_Container_base12@std@@QEAAXXZ DD imagerel $LN4
	DD	imagerel $LN4+37
	DD	imagerel $unwind$?_Orphan_all@_Container_base12@std@@QEAAXXZ
pdata	ENDS
;	COMDAT pdata
pdata	SEGMENT
$pdata$?_Orphan_all_unlocked@_Container_base12@std@@AEAAXXZ DD imagerel $LN6
	DD	imagerel $LN6+94
	DD	imagerel $unwind$?_Orphan_all_unlocked@_Container_base12@std@@AEAAXXZ
pdata	ENDS
;	COMDAT pdata
pdata	SEGMENT
$pdata$?_Orphan_all_locked@_Container_base12@std@@AEAAXXZ DD imagerel $LN3
	DD	imagerel $LN3+90
	DD	imagerel $unwind$?_Orphan_all_locked@_Container_base12@std@@AEAAXXZ
pdata	ENDS
;	COMDAT pdata
pdata	SEGMENT
$pdata$?_Release@_Basic_container_proxy_ptr12@std@@QEAAXXZ DD imagerel $LN3
	DD	imagerel $LN3+20
	DD	imagerel $unwind$?_Release@_Basic_container_proxy_ptr12@std@@QEAAXXZ
pdata	ENDS
;	COMDAT pdata
pdata	SEGMENT
$pdata$??0_Basic_container_proxy_ptr12@std@@IEAA@XZ DD imagerel $LN3
	DD	imagerel $LN3+25
	DD	imagerel $unwind$??0_Basic_container_proxy_ptr12@std@@IEAA@XZ
pdata	ENDS
;	COMDAT pdata
pdata	SEGMENT
$pdata$?copy@?$_Char_traits@DH@std@@SAPEADQEADQEBD_K@Z DD imagerel $LN3
	DD	imagerel $LN3+51
	DD	imagerel $unwind$?copy@?$_Char_traits@DH@std@@SAPEADQEADQEBD_K@Z
pdata	ENDS
;	COMDAT pdata
pdata	SEGMENT
$pdata$?move@?$_Char_traits@DH@std@@SAPEADQEADQEBD_K@Z DD imagerel $LN3
	DD	imagerel $LN3+51
	DD	imagerel $unwind$?move@?$_Char_traits@DH@std@@SAPEADQEADQEBD_K@Z
pdata	ENDS
;	COMDAT pdata
pdata	SEGMENT
$pdata$?length@?$_Narrow_char_traits@DH@std@@SA_KQEBD@Z DD imagerel $LN3
	DD	imagerel $LN3+26
	DD	imagerel $unwind$?length@?$_Narrow_char_traits@DH@std@@SA_KQEBD@Z
pdata	ENDS
;	COMDAT pdata
pdata	SEGMENT
$pdata$?assign@?$_Narrow_char_traits@DH@std@@SAXAEADAEBD@Z DD imagerel $LN3
	DD	imagerel $LN3+28
	DD	imagerel $unwind$?assign@?$_Narrow_char_traits@DH@std@@SAXAEADAEBD@Z
pdata	ENDS
;	COMDAT pdata
pdata	SEGMENT
$pdata$?eq_int_type@?$_Narrow_char_traits@DH@std@@SA_NAEBH0@Z DD imagerel $LN5
	DD	imagerel $LN5+57
	DD	imagerel $unwind$?eq_int_type@?$_Narrow_char_traits@DH@std@@SA_NAEBH0@Z
pdata	ENDS
;	COMDAT pdata
pdata	SEGMENT
$pdata$?eof@?$_Narrow_char_traits@DH@std@@SAHXZ DD imagerel $LN3
	DD	imagerel $LN3+9
	DD	imagerel $unwind$?eof@?$_Narrow_char_traits@DH@std@@SAHXZ
pdata	ENDS
;	COMDAT pdata
pdata	SEGMENT
$pdata$?_Xlen_string@std@@YAXXZ DD imagerel $LN3
	DD	imagerel $LN3+24
	DD	imagerel $unwind$?_Xlen_string@std@@YAXXZ
pdata	ENDS
;	COMDAT pdata
pdata	SEGMENT
$pdata$??0?$allocator@D@std@@QEAA@XZ DD imagerel $LN3
	DD	imagerel $LN3+13
	DD	imagerel $unwind$??0?$allocator@D@std@@QEAA@XZ
pdata	ENDS
;	COMDAT pdata
pdata	SEGMENT
$pdata$?deallocate@?$allocator@D@std@@QEAAXQEAD_K@Z DD imagerel $LN3
	DD	imagerel $LN3+41
	DD	imagerel $unwind$?deallocate@?$allocator@D@std@@QEAAXQEAD_K@Z
pdata	ENDS
;	COMDAT pdata
pdata	SEGMENT
$pdata$?allocate@?$allocator@D@std@@QEAAPEAD_K@Z DD imagerel $LN3
	DD	imagerel $LN3+39
	DD	imagerel $unwind$?allocate@?$allocator@D@std@@QEAAPEAD_K@Z
pdata	ENDS
;	COMDAT pdata
pdata	SEGMENT
$pdata$?max_size@?$_Default_allocator_traits@V?$allocator@D@std@@@std@@SA_KAEBV?$allocator@D@2@@Z DD imagerel $LN3
	DD	imagerel $LN3+15
	DD	imagerel $unwind$?max_size@?$_Default_allocator_traits@V?$allocator@D@std@@@std@@SA_KAEBV?$allocator@D@2@@Z
pdata	ENDS
;	COMDAT pdata
pdata	SEGMENT
$pdata$?select_on_container_copy_construction@?$_Default_allocator_traits@V?$allocator@D@std@@@std@@SA?AV?$allocator@D@2@AEBV32@@Z DD imagerel $LN3
	DD	imagerel $LN3+18
	DD	imagerel $unwind$?select_on_container_copy_construction@?$_Default_allocator_traits@V?$allocator@D@std@@@std@@SA?AV?$allocator@D@2@AEBV32@@Z
pdata	ENDS
;	COMDAT pdata
pdata	SEGMENT
$pdata$??0?$_String_val@U?$_Simple_types@D@std@@@std@@QEAA@XZ DD imagerel $LN3
	DD	imagerel $LN3+74
	DD	imagerel $unwind$??0?$_String_val@U?$_Simple_types@D@std@@@std@@QEAA@XZ
pdata	ENDS
;	COMDAT pdata
pdata	SEGMENT
$pdata$?_Myptr@?$_String_val@U?$_Simple_types@D@std@@@std@@QEAAPEADXZ DD imagerel $LN4
	DD	imagerel $LN4+71
	DD	imagerel $unwind$?_Myptr@?$_String_val@U?$_Simple_types@D@std@@@std@@QEAAPEADXZ
pdata	ENDS
;	COMDAT pdata
pdata	SEGMENT
$pdata$?_Myptr@?$_String_val@U?$_Simple_types@D@std@@@std@@QEBAPEBDXZ DD imagerel $LN4
	DD	imagerel $LN4+71
	DD	imagerel $unwind$?_Myptr@?$_String_val@U?$_Simple_types@D@std@@@std@@QEBAPEBDXZ
pdata	ENDS
;	COMDAT pdata
pdata	SEGMENT
$pdata$?_Large_string_engaged@?$_String_val@U?$_Simple_types@D@std@@@std@@QEBA_NXZ DD imagerel $LN5
	DD	imagerel $LN5+48
	DD	imagerel $unwind$?_Large_string_engaged@?$_String_val@U?$_Simple_types@D@std@@@std@@QEBA_NXZ
pdata	ENDS
;	COMDAT pdata
pdata	SEGMENT
$pdata$??0_Bxty@?$_String_val@U?$_Simple_types@D@std@@@std@@QEAA@XZ DD imagerel $LN3
	DD	imagerel $LN3+25
	DD	imagerel $unwind$??0_Bxty@?$_String_val@U?$_Simple_types@D@std@@@std@@QEAA@XZ
pdata	ENDS
;	COMDAT pdata
pdata	SEGMENT
$pdata$??1_Bxty@?$_String_val@U?$_Simple_types@D@std@@@std@@QEAA@XZ DD imagerel $LN3
	DD	imagerel $LN3+8
	DD	imagerel $unwind$??1_Bxty@?$_String_val@U?$_Simple_types@D@std@@@std@@QEAA@XZ
pdata	ENDS
;	COMDAT pdata
pdata	SEGMENT
$pdata$??1?$_String_val@U?$_Simple_types@D@std@@@std@@QEAA@XZ DD imagerel $LN3
	DD	imagerel $LN3+33
	DD	imagerel $unwind$??1?$_String_val@U?$_Simple_types@D@std@@@std@@QEAA@XZ
pdata	ENDS
;	COMDAT pdata
pdata	SEGMENT
$pdata$??0?$basic_string@DU?$char_traits@D@std@@V?$allocator@D@2@@std@@QEAA@AEBV01@@Z DD imagerel $LN5
	DD	imagerel $LN5+235
	DD	imagerel $unwind$??0?$basic_string@DU?$char_traits@D@std@@V?$allocator@D@2@@std@@QEAA@AEBV01@@Z
pdata	ENDS
;	COMDAT pdata
pdata	SEGMENT
$pdata$?dtor$0@?0???0?$basic_string@DU?$char_traits@D@std@@V?$allocator@D@2@@std@@QEAA@AEBV01@@Z@4HA DD imagerel ?dtor$0@?0???0?$basic_string@DU?$char_traits@D@std@@V?$allocator@D@2@@std@@QEAA@AEBV01@@Z@4HA
	DD	imagerel ?dtor$0@?0???0?$basic_string@DU?$char_traits@D@std@@V?$allocator@D@2@@std@@QEAA@AEBV01@@Z@4HA+38
	DD	imagerel $unwind$?dtor$0@?0???0?$basic_string@DU?$char_traits@D@std@@V?$allocator@D@2@@std@@QEAA@AEBV01@@Z@4HA
pdata	ENDS
;	COMDAT pdata
pdata	SEGMENT
$pdata$?dtor$1@?0???0?$basic_string@DU?$char_traits@D@std@@V?$allocator@D@2@@std@@QEAA@AEBV01@@Z@4HA DD imagerel ?dtor$1@?0???0?$basic_string@DU?$char_traits@D@std@@V?$allocator@D@2@@std@@QEAA@AEBV01@@Z@4HA
	DD	imagerel ?dtor$1@?0???0?$basic_string@DU?$char_traits@D@std@@V?$allocator@D@2@@std@@QEAA@AEBV01@@Z@4HA+35
	DD	imagerel $unwind$?dtor$1@?0???0?$basic_string@DU?$char_traits@D@std@@V?$allocator@D@2@@std@@QEAA@AEBV01@@Z@4HA
pdata	ENDS
;	COMDAT pdata
pdata	SEGMENT
$pdata$??0?$basic_string@DU?$char_traits@D@std@@V?$allocator@D@2@@std@@QEAA@QEBD@Z DD imagerel $LN5
	DD	imagerel $LN5+222
	DD	imagerel $unwind$??0?$basic_string@DU?$char_traits@D@std@@V?$allocator@D@2@@std@@QEAA@QEBD@Z
pdata	ENDS
;	COMDAT pdata
pdata	SEGMENT
$pdata$?dtor$0@?0???0?$basic_string@DU?$char_traits@D@std@@V?$allocator@D@2@@std@@QEAA@QEBD@Z@4HA DD imagerel ?dtor$0@?0???0?$basic_string@DU?$char_traits@D@std@@V?$allocator@D@2@@std@@QEAA@QEBD@Z@4HA
	DD	imagerel ?dtor$0@?0???0?$basic_string@DU?$char_traits@D@std@@V?$allocator@D@2@@std@@QEAA@QEBD@Z@4HA+38
	DD	imagerel $unwind$?dtor$0@?0???0?$basic_string@DU?$char_traits@D@std@@V?$allocator@D@2@@std@@QEAA@QEBD@Z@4HA
pdata	ENDS
;	COMDAT pdata
pdata	SEGMENT
$pdata$?dtor$1@?0???0?$basic_string@DU?$char_traits@D@std@@V?$allocator@D@2@@std@@QEAA@QEBD@Z@4HA DD imagerel ?dtor$1@?0???0?$basic_string@DU?$char_traits@D@std@@V?$allocator@D@2@@std@@QEAA@QEBD@Z@4HA
	DD	imagerel ?dtor$1@?0???0?$basic_string@DU?$char_traits@D@std@@V?$allocator@D@2@@std@@QEAA@QEBD@Z@4HA+35
	DD	imagerel $unwind$?dtor$1@?0???0?$basic_string@DU?$char_traits@D@std@@V?$allocator@D@2@@std@@QEAA@QEBD@Z@4HA
pdata	ENDS
;	COMDAT pdata
pdata	SEGMENT
$pdata$?_Construct_lv_contents@?$basic_string@DU?$char_traits@D@std@@V?$allocator@D@2@@std@@AEAAXAEBV12@@Z DD imagerel $LN6
	DD	imagerel $LN6+434
	DD	imagerel $unwind$?_Construct_lv_contents@?$basic_string@DU?$char_traits@D@std@@V?$allocator@D@2@@std@@AEAAXAEBV12@@Z
pdata	ENDS
;	COMDAT pdata
pdata	SEGMENT
$pdata$??1?$basic_string@DU?$char_traits@D@std@@V?$allocator@D@2@@std@@QEAA@XZ DD imagerel $LN3
	DD	imagerel $LN3+149
	DD	imagerel $unwind$??1?$basic_string@DU?$char_traits@D@std@@V?$allocator@D@2@@std@@QEAA@XZ
pdata	ENDS
;	COMDAT pdata
pdata	SEGMENT
$pdata$?assign@?$basic_string@DU?$char_traits@D@std@@V?$allocator@D@2@@std@@QEAAAEAV12@QEBD_K@Z DD imagerel $LN4
	DD	imagerel $LN4+178
	DD	imagerel $unwind$?assign@?$basic_string@DU?$char_traits@D@std@@V?$allocator@D@2@@std@@QEAAAEAV12@QEBD_K@Z
pdata	ENDS
;	COMDAT pdata
pdata	SEGMENT
$pdata$?assign@?$basic_string@DU?$char_traits@D@std@@V?$allocator@D@2@@std@@QEAAAEAV12@QEBD@Z DD imagerel $LN3
	DD	imagerel $LN3+57
	DD	imagerel $unwind$?assign@?$basic_string@DU?$char_traits@D@std@@V?$allocator@D@2@@std@@QEAAAEAV12@QEBD@Z
pdata	ENDS
;	COMDAT pdata
pdata	SEGMENT
$pdata$??A?$basic_string@DU?$char_traits@D@std@@V?$allocator@D@2@@std@@QEAAAEAD_K@Z DD imagerel $LN12
	DD	imagerel $LN12+174
	DD	imagerel $unwind$??A?$basic_string@DU?$char_traits@D@std@@V?$allocator@D@2@@std@@QEAAAEAD_K@Z
pdata	ENDS
;	COMDAT pdata
pdata	SEGMENT
$pdata$??A?$basic_string@DU?$char_traits@D@std@@V?$allocator@D@2@@std@@QEBAAEBD_K@Z DD imagerel $LN12
	DD	imagerel $LN12+174
	DD	imagerel $unwind$??A?$basic_string@DU?$char_traits@D@std@@V?$allocator@D@2@@std@@QEBAAEBD_K@Z
pdata	ENDS
;	COMDAT pdata
pdata	SEGMENT
$pdata$?data@?$basic_string@DU?$char_traits@D@std@@V?$allocator@D@2@@std@@QEBAPEBDXZ DD imagerel $LN3
	DD	imagerel $LN3+29
	DD	imagerel $unwind$?data@?$basic_string@DU?$char_traits@D@std@@V?$allocator@D@2@@std@@QEBAPEBDXZ
pdata	ENDS
;	COMDAT pdata
pdata	SEGMENT
$pdata$?size@?$basic_string@DU?$char_traits@D@std@@V?$allocator@D@2@@std@@QEBA_KXZ DD imagerel $LN3
	DD	imagerel $LN3+17
	DD	imagerel $unwind$?size@?$basic_string@DU?$char_traits@D@std@@V?$allocator@D@2@@std@@QEBA_KXZ
pdata	ENDS
;	COMDAT pdata
pdata	SEGMENT
$pdata$?max_size@?$basic_string@DU?$char_traits@D@std@@V?$allocator@D@2@@std@@QEBA_KXZ DD imagerel $LN3
	DD	imagerel $LN3+155
	DD	imagerel $unwind$?max_size@?$basic_string@DU?$char_traits@D@std@@V?$allocator@D@2@@std@@QEBA_KXZ
pdata	ENDS
;	COMDAT pdata
pdata	SEGMENT
$pdata$?_Calculate_growth@?$basic_string@DU?$char_traits@D@std@@V?$allocator@D@2@@std@@CA_K_K00@Z DD imagerel $LN5
	DD	imagerel $LN5+191
	DD	imagerel $unwind$?_Calculate_growth@?$basic_string@DU?$char_traits@D@std@@V?$allocator@D@2@@std@@CA_K_K00@Z
pdata	ENDS
;	COMDAT pdata
pdata	SEGMENT
$pdata$?_Calculate_growth@?$basic_string@DU?$char_traits@D@std@@V?$allocator@D@2@@std@@AEBA_K_K@Z DD imagerel $LN3
	DD	imagerel $LN3+53
	DD	imagerel $unwind$?_Calculate_growth@?$basic_string@DU?$char_traits@D@std@@V?$allocator@D@2@@std@@AEBA_K_K@Z
pdata	ENDS
;	COMDAT pdata
pdata	SEGMENT
$pdata$?_Tidy_init@?$basic_string@DU?$char_traits@D@std@@V?$allocator@D@2@@std@@AEAAXXZ DD imagerel $LN3
	DD	imagerel $LN3+89
	DD	imagerel $unwind$?_Tidy_init@?$basic_string@DU?$char_traits@D@std@@V?$allocator@D@2@@std@@AEAAXXZ
pdata	ENDS
;	COMDAT pdata
pdata	SEGMENT
$pdata$?_Tidy_deallocate@?$basic_string@DU?$char_traits@D@std@@V?$allocator@D@2@@std@@AEAAXXZ DD imagerel $LN4
	DD	imagerel $LN4+189
	DD	imagerel $unwind$?_Tidy_deallocate@?$basic_string@DU?$char_traits@D@std@@V?$allocator@D@2@@std@@AEAAXXZ
pdata	ENDS
;	COMDAT pdata
pdata	SEGMENT
$pdata$?_Getal@?$basic_string@DU?$char_traits@D@std@@V?$allocator@D@2@@std@@AEAAAEAV?$allocator@D@2@XZ DD imagerel $LN3
	DD	imagerel $LN3+29
	DD	imagerel $unwind$?_Getal@?$basic_string@DU?$char_traits@D@std@@V?$allocator@D@2@@std@@AEAAAEAV?$allocator@D@2@XZ
pdata	ENDS
;	COMDAT pdata
pdata	SEGMENT
$pdata$?_Getal@?$basic_string@DU?$char_traits@D@std@@V?$allocator@D@2@@std@@AEBAAEBV?$allocator@D@2@XZ DD imagerel $LN3
	DD	imagerel $LN3+29
	DD	imagerel $unwind$?_Getal@?$basic_string@DU?$char_traits@D@std@@V?$allocator@D@2@@std@@AEBAAEBV?$allocator@D@2@XZ
pdata	ENDS
;	COMDAT pdata
pdata	SEGMENT
$pdata$?_Get_first@?$_Compressed_pair@V?$allocator@D@std@@V?$_String_val@U?$_Simple_types@D@std@@@2@$00@std@@QEAAAEAV?$allocator@D@2@XZ DD imagerel $LN3
	DD	imagerel $LN3+13
	DD	imagerel $unwind$?_Get_first@?$_Compressed_pair@V?$allocator@D@std@@V?$_String_val@U?$_Simple_types@D@std@@@2@$00@std@@QEAAAEAV?$allocator@D@2@XZ
pdata	ENDS
;	COMDAT pdata
pdata	SEGMENT
$pdata$?_Get_first@?$_Compressed_pair@V?$allocator@D@std@@V?$_String_val@U?$_Simple_types@D@std@@@2@$00@std@@QEBAAEBV?$allocator@D@2@XZ DD imagerel $LN3
	DD	imagerel $LN3+13
	DD	imagerel $unwind$?_Get_first@?$_Compressed_pair@V?$allocator@D@std@@V?$_String_val@U?$_Simple_types@D@std@@@2@$00@std@@QEBAAEBV?$allocator@D@2@XZ
pdata	ENDS
;	COMDAT pdata
pdata	SEGMENT
$pdata$??1?$_Compressed_pair@V?$allocator@D@std@@V?$_String_val@U?$_Simple_types@D@std@@@2@$00@std@@QEAA@XZ DD imagerel $LN3
	DD	imagerel $LN3+29
	DD	imagerel $unwind$??1?$_Compressed_pair@V?$allocator@D@std@@V?$_String_val@U?$_Simple_types@D@std@@@2@$00@std@@QEAA@XZ
pdata	ENDS
pdata	SEGMENT
$pdata$?search@pattern_searcher_t@@QEAAHXZ DD imagerel $LN10
	DD	imagerel $LN10+349
	DD	imagerel $unwind$?search@pattern_searcher_t@@QEAAHXZ
pdata	ENDS
pdata	SEGMENT
$pdata$?dtor$0@?0??search@pattern_searcher_t@@QEAAHXZ@4HA DD imagerel ?dtor$0@?0??search@pattern_searcher_t@@QEAAHXZ@4HA
	DD	imagerel ?dtor$0@?0??search@pattern_searcher_t@@QEAAHXZ@4HA+35
	DD	imagerel $unwind$?dtor$0@?0??search@pattern_searcher_t@@QEAAHXZ@4HA
$pdata$?dtor$1@?0??search@pattern_searcher_t@@QEAAHXZ@4HA DD imagerel ?dtor$1@?0??search@pattern_searcher_t@@QEAAHXZ@4HA
	DD	imagerel ?dtor$1@?0??search@pattern_searcher_t@@QEAAHXZ@4HA+35
	DD	imagerel $unwind$?dtor$1@?0??search@pattern_searcher_t@@QEAAHXZ@4HA
$pdata$?dtor$2@?0??search@pattern_searcher_t@@QEAAHXZ@4HA DD imagerel ?dtor$2@?0??search@pattern_searcher_t@@QEAAHXZ@4HA
	DD	imagerel ?dtor$2@?0??search@pattern_searcher_t@@QEAAHXZ@4HA+38
	DD	imagerel $unwind$?dtor$2@?0??search@pattern_searcher_t@@QEAAHXZ@4HA
$pdata$?dtor$4@?0??search@pattern_searcher_t@@QEAAHXZ@4HA DD imagerel ?dtor$4@?0??search@pattern_searcher_t@@QEAAHXZ@4HA
	DD	imagerel ?dtor$4@?0??search@pattern_searcher_t@@QEAAHXZ@4HA+53
	DD	imagerel $unwind$?dtor$4@?0??search@pattern_searcher_t@@QEAAHXZ@4HA
$pdata$?dtor$5@?0??search@pattern_searcher_t@@QEAAHXZ@4HA DD imagerel ?dtor$5@?0??search@pattern_searcher_t@@QEAAHXZ@4HA
	DD	imagerel ?dtor$5@?0??search@pattern_searcher_t@@QEAAHXZ@4HA+38
	DD	imagerel $unwind$?dtor$5@?0??search@pattern_searcher_t@@QEAAHXZ@4HA
pdata	ENDS
pdata	SEGMENT
$pdata$?buildMatchingMachine@pattern_searcher_t@@AEAAHQEAV?$basic_string@DU?$char_traits@D@std@@V?$allocator@D@2@@std@@H@Z DD imagerel $LN27
	DD	imagerel $LN27+1401
	DD	imagerel $unwind$?buildMatchingMachine@pattern_searcher_t@@AEAAHQEAV?$basic_string@DU?$char_traits@D@std@@V?$allocator@D@2@@std@@H@Z
pdata	ENDS
pdata	SEGMENT
$pdata$?dtor$0@?0??buildMatchingMachine@pattern_searcher_t@@AEAAHQEAV?$basic_string@DU?$char_traits@D@std@@V?$allocator@D@2@@std@@H@Z@4HA DD imagerel ?dtor$0@?0??buildMatchingMachine@pattern_searcher_t@@AEAAHQEAV?$basic_string@DU?$char_traits@D@std@@V?$allocator@D@2@@std@@H@Z@4HA
	DD	imagerel ?dtor$0@?0??buildMatchingMachine@pattern_searcher_t@@AEAAHQEAV?$basic_string@DU?$char_traits@D@std@@V?$allocator@D@2@@std@@H@Z@4HA+35
	DD	imagerel $unwind$?dtor$0@?0??buildMatchingMachine@pattern_searcher_t@@AEAAHQEAV?$basic_string@DU?$char_traits@D@std@@V?$allocator@D@2@@std@@H@Z@4HA
pdata	ENDS
pdata	SEGMENT
$pdata$?findNextState@pattern_searcher_t@@AEAAHHD@Z DD imagerel $LN5
	DD	imagerel $LN5+132
	DD	imagerel $unwind$?findNextState@pattern_searcher_t@@AEAAHHD@Z
$pdata$?searchWords@pattern_searcher_t@@AEAAXQEAV?$basic_string@DU?$char_traits@D@std@@V?$allocator@D@2@@std@@HV23@@Z DD imagerel $LN12
	DD	imagerel $LN12+453
	DD	imagerel $unwind$?searchWords@pattern_searcher_t@@AEAAXQEAV?$basic_string@DU?$char_traits@D@std@@V?$allocator@D@2@@std@@HV23@@Z
pdata	ENDS
pdata	SEGMENT
$pdata$?dtor$0@?0??searchWords@pattern_searcher_t@@AEAAXQEAV?$basic_string@DU?$char_traits@D@std@@V?$allocator@D@2@@std@@HV23@@Z@4HA DD imagerel ?dtor$0@?0??searchWords@pattern_searcher_t@@AEAAXQEAV?$basic_string@DU?$char_traits@D@std@@V?$allocator@D@2@@std@@HV23@@Z@4HA
	DD	imagerel ?dtor$0@?0??searchWords@pattern_searcher_t@@AEAAXQEAV?$basic_string@DU?$char_traits@D@std@@V?$allocator@D@2@@std@@HV23@@Z@4HA+35
	DD	imagerel $unwind$?dtor$0@?0??searchWords@pattern_searcher_t@@AEAAXQEAV?$basic_string@DU?$char_traits@D@std@@V?$allocator@D@2@@std@@HV23@@Z@4HA
pdata	ENDS
;	COMDAT pdata
pdata	SEGMENT
$pdata$??0?$allocator@H@std@@QEAA@XZ DD imagerel $LN3
	DD	imagerel $LN3+13
	DD	imagerel $unwind$??0?$allocator@H@std@@QEAA@XZ
pdata	ENDS
;	COMDAT pdata
pdata	SEGMENT
$pdata$?deallocate@?$allocator@H@std@@QEAAXQEAH_K@Z DD imagerel $LN3
	DD	imagerel $LN3+48
	DD	imagerel $unwind$?deallocate@?$allocator@H@std@@QEAAXQEAH_K@Z
pdata	ENDS
;	COMDAT pdata
pdata	SEGMENT
$pdata$?allocate@?$allocator@H@std@@QEAAPEAH_K@Z DD imagerel $LN3
	DD	imagerel $LN3+39
	DD	imagerel $unwind$?allocate@?$allocator@H@std@@QEAAPEAH_K@Z
pdata	ENDS
;	COMDAT pdata
pdata	SEGMENT
$pdata$?max_size@?$_Default_allocator_traits@V?$allocator@H@std@@@std@@SA_KAEBV?$allocator@H@2@@Z DD imagerel $LN3
	DD	imagerel $LN3+18
	DD	imagerel $unwind$?max_size@?$_Default_allocator_traits@V?$allocator@H@std@@@std@@SA_KAEBV?$allocator@H@2@@Z
pdata	ENDS
;	COMDAT pdata
pdata	SEGMENT
$pdata$?deallocate@?$allocator@PEAH@std@@QEAAXQEAPEAH_K@Z DD imagerel $LN3
	DD	imagerel $LN3+48
	DD	imagerel $unwind$?deallocate@?$allocator@PEAH@std@@QEAAXQEAPEAH_K@Z
pdata	ENDS
;	COMDAT pdata
pdata	SEGMENT
$pdata$?allocate@?$allocator@PEAH@std@@QEAAPEAPEAH_K@Z DD imagerel $LN3
	DD	imagerel $LN3+39
	DD	imagerel $unwind$?allocate@?$allocator@PEAH@std@@QEAAPEAPEAH_K@Z
pdata	ENDS
;	COMDAT pdata
pdata	SEGMENT
$pdata$??0?$_Deque_val@U?$_Deque_simple_types@H@std@@@std@@QEAA@XZ DD imagerel $LN3
	DD	imagerel $LN3+83
	DD	imagerel $unwind$??0?$_Deque_val@U?$_Deque_simple_types@H@std@@@std@@QEAA@XZ
pdata	ENDS
;	COMDAT pdata
pdata	SEGMENT
$pdata$?_Getblock@?$_Deque_val@U?$_Deque_simple_types@H@std@@@std@@QEBA_K_K@Z DD imagerel $LN3
	DD	imagerel $LN3+43
	DD	imagerel $unwind$?_Getblock@?$_Deque_val@U?$_Deque_simple_types@H@std@@@std@@QEBA_K_K@Z
pdata	ENDS
;	COMDAT pdata
pdata	SEGMENT
$pdata$??0?$deque@HV?$allocator@H@std@@@std@@QEAA@XZ DD imagerel $LN3
	DD	imagerel $LN3+93
	DD	imagerel $unwind$??0?$deque@HV?$allocator@H@std@@@std@@QEAA@XZ
pdata	ENDS
;	COMDAT pdata
pdata	SEGMENT
$pdata$??1?$deque@HV?$allocator@H@std@@@std@@QEAA@XZ DD imagerel $LN3
	DD	imagerel $LN3+131
	DD	imagerel $unwind$??1?$deque@HV?$allocator@H@std@@@std@@QEAA@XZ
pdata	ENDS
;	COMDAT pdata
pdata	SEGMENT
$pdata$?_Unchecked_begin@?$deque@HV?$allocator@H@std@@@std@@QEAA?AV?$_Deque_unchecked_iterator@V?$_Deque_val@U?$_Deque_simple_types@H@std@@@std@@@2@XZ DD imagerel $LN3
	DD	imagerel $LN3+80
	DD	imagerel $unwind$?_Unchecked_begin@?$deque@HV?$allocator@H@std@@@std@@QEAA?AV?$_Deque_unchecked_iterator@V?$_Deque_val@U?$_Deque_simple_types@H@std@@@std@@@2@XZ
pdata	ENDS
;	COMDAT pdata
pdata	SEGMENT
$pdata$?size@?$deque@HV?$allocator@H@std@@@std@@QEBA_KXZ DD imagerel $LN3
	DD	imagerel $LN3+29
	DD	imagerel $unwind$?size@?$deque@HV?$allocator@H@std@@@std@@QEBA_KXZ
pdata	ENDS
;	COMDAT pdata
pdata	SEGMENT
$pdata$?max_size@?$deque@HV?$allocator@H@std@@@std@@QEBA_KXZ DD imagerel $LN3
	DD	imagerel $LN3+67
	DD	imagerel $unwind$?max_size@?$deque@HV?$allocator@H@std@@@std@@QEBA_KXZ
pdata	ENDS
;	COMDAT pdata
pdata	SEGMENT
$pdata$?empty@?$deque@HV?$allocator@H@std@@@std@@QEBA_NXZ DD imagerel $LN5
	DD	imagerel $LN5+55
	DD	imagerel $unwind$?empty@?$deque@HV?$allocator@H@std@@@std@@QEBA_NXZ
pdata	ENDS
;	COMDAT pdata
pdata	SEGMENT
$pdata$?front@?$deque@HV?$allocator@H@std@@@std@@QEAAAEAHXZ DD imagerel $LN12
	DD	imagerel $LN12+175
	DD	imagerel $unwind$?front@?$deque@HV?$allocator@H@std@@@std@@QEAAAEAHXZ
pdata	ENDS
;	COMDAT pdata
pdata	SEGMENT
$pdata$?pop_front@?$deque@HV?$allocator@H@std@@@std@@QEAAXXZ DD imagerel $LN11
	DD	imagerel $LN11+395
	DD	imagerel $unwind$?pop_front@?$deque@HV?$allocator@H@std@@@std@@QEAAXXZ
pdata	ENDS
;	COMDAT pdata
pdata	SEGMENT
$pdata$?push_back@?$deque@HV?$allocator@H@std@@@std@@QEAAXAEBH@Z DD imagerel $LN3
	DD	imagerel $LN3+46
	DD	imagerel $unwind$?push_back@?$deque@HV?$allocator@H@std@@@std@@QEAAXAEBH@Z
pdata	ENDS
;	COMDAT pdata
pdata	SEGMENT
$pdata$?pop_back@?$deque@HV?$allocator@H@std@@@std@@QEAAXXZ DD imagerel $LN10
	DD	imagerel $LN10+381
	DD	imagerel $unwind$?pop_back@?$deque@HV?$allocator@H@std@@@std@@QEAAXXZ
pdata	ENDS
;	COMDAT pdata
pdata	SEGMENT
$pdata$?_Xlen@?$deque@HV?$allocator@H@std@@@std@@AEBAXXZ DD imagerel $LN3
	DD	imagerel $LN3+28
	DD	imagerel $unwind$?_Xlen@?$deque@HV?$allocator@H@std@@@std@@AEBAXXZ
pdata	ENDS
;	COMDAT pdata
pdata	SEGMENT
$pdata$?_Growmap@?$deque@HV?$allocator@H@std@@@std@@AEAAX_K@Z DD imagerel $LN12
	DD	imagerel $LN12+1055
	DD	imagerel $unwind$?_Growmap@?$deque@HV?$allocator@H@std@@@std@@AEAAX_K@Z
pdata	ENDS
;	COMDAT pdata
pdata	SEGMENT
$pdata$?_Tidy@?$deque@HV?$allocator@H@std@@@std@@AEAAXXZ DD imagerel $LN10
	DD	imagerel $LN10+371
	DD	imagerel $unwind$?_Tidy@?$deque@HV?$allocator@H@std@@@std@@AEAAXXZ
pdata	ENDS
;	COMDAT pdata
pdata	SEGMENT
$pdata$?_Orphan_off@?$deque@HV?$allocator@H@std@@@std@@AEBAX_K@Z DD imagerel $LN11
	DD	imagerel $LN11+357
	DD	imagerel $unwind$?_Orphan_off@?$deque@HV?$allocator@H@std@@@std@@AEBAX_K@Z
pdata	ENDS
;	COMDAT pdata
pdata	SEGMENT
$pdata$?_Getblock@?$deque@HV?$allocator@H@std@@@std@@AEBA_K_K@Z DD imagerel $LN3
	DD	imagerel $LN3+44
	DD	imagerel $unwind$?_Getblock@?$deque@HV?$allocator@H@std@@@std@@AEBA_K_K@Z
pdata	ENDS
;	COMDAT pdata
pdata	SEGMENT
$pdata$?_Orphan_all@?$deque@HV?$allocator@H@std@@@std@@AEAAXXZ DD imagerel $LN3
	DD	imagerel $LN3+34
	DD	imagerel $unwind$?_Orphan_all@?$deque@HV?$allocator@H@std@@@std@@AEAAXXZ
pdata	ENDS
;	COMDAT pdata
pdata	SEGMENT
$pdata$?_Getal@?$deque@HV?$allocator@H@std@@@std@@AEAAAEAV?$allocator@H@2@XZ DD imagerel $LN3
	DD	imagerel $LN3+29
	DD	imagerel $unwind$?_Getal@?$deque@HV?$allocator@H@std@@@std@@AEAAAEAV?$allocator@H@2@XZ
pdata	ENDS
;	COMDAT pdata
pdata	SEGMENT
$pdata$?_Getal@?$deque@HV?$allocator@H@std@@@std@@AEBAAEBV?$allocator@H@2@XZ DD imagerel $LN3
	DD	imagerel $LN3+29
	DD	imagerel $unwind$?_Getal@?$deque@HV?$allocator@H@std@@@std@@AEBAAEBV?$allocator@H@2@XZ
pdata	ENDS
;	COMDAT pdata
pdata	SEGMENT
$pdata$?_Get_data@?$deque@HV?$allocator@H@std@@@std@@AEAAAEAV?$_Deque_val@U?$_Deque_simple_types@H@std@@@2@XZ DD imagerel $LN3
	DD	imagerel $LN3+13
	DD	imagerel $unwind$?_Get_data@?$deque@HV?$allocator@H@std@@@std@@AEAAAEAV?$_Deque_val@U?$_Deque_simple_types@H@std@@@2@XZ
pdata	ENDS
;	COMDAT pdata
pdata	SEGMENT
$pdata$?_Get_data@?$deque@HV?$allocator@H@std@@@std@@AEBAAEBV?$_Deque_val@U?$_Deque_simple_types@H@std@@@2@XZ DD imagerel $LN3
	DD	imagerel $LN3+13
	DD	imagerel $unwind$?_Get_data@?$deque@HV?$allocator@H@std@@@std@@AEBAAEBV?$_Deque_val@U?$_Deque_simple_types@H@std@@@2@XZ
pdata	ENDS
;	COMDAT pdata
pdata	SEGMENT
$pdata$?_Map@?$deque@HV?$allocator@H@std@@@std@@AEAAAEAPEAPEAHXZ DD imagerel $LN3
	DD	imagerel $LN3+30
	DD	imagerel $unwind$?_Map@?$deque@HV?$allocator@H@std@@@std@@AEAAAEAPEAPEAHXZ
pdata	ENDS
;	COMDAT pdata
pdata	SEGMENT
$pdata$?_Mapsize@?$deque@HV?$allocator@H@std@@@std@@AEAAAEA_KXZ DD imagerel $LN3
	DD	imagerel $LN3+30
	DD	imagerel $unwind$?_Mapsize@?$deque@HV?$allocator@H@std@@@std@@AEAAAEA_KXZ
pdata	ENDS
;	COMDAT pdata
pdata	SEGMENT
$pdata$?_Myoff@?$deque@HV?$allocator@H@std@@@std@@AEAAAEA_KXZ DD imagerel $LN3
	DD	imagerel $LN3+30
	DD	imagerel $unwind$?_Myoff@?$deque@HV?$allocator@H@std@@@std@@AEAAAEA_KXZ
pdata	ENDS
;	COMDAT pdata
pdata	SEGMENT
$pdata$?_Myoff@?$deque@HV?$allocator@H@std@@@std@@AEBAAEB_KXZ DD imagerel $LN3
	DD	imagerel $LN3+30
	DD	imagerel $unwind$?_Myoff@?$deque@HV?$allocator@H@std@@@std@@AEBAAEB_KXZ
pdata	ENDS
;	COMDAT pdata
pdata	SEGMENT
$pdata$?_Mysize@?$deque@HV?$allocator@H@std@@@std@@AEAAAEA_KXZ DD imagerel $LN3
	DD	imagerel $LN3+30
	DD	imagerel $unwind$?_Mysize@?$deque@HV?$allocator@H@std@@@std@@AEAAAEA_KXZ
pdata	ENDS
;	COMDAT pdata
pdata	SEGMENT
$pdata$?_Mysize@?$deque@HV?$allocator@H@std@@@std@@AEBAAEB_KXZ DD imagerel $LN3
	DD	imagerel $LN3+30
	DD	imagerel $unwind$?_Mysize@?$deque@HV?$allocator@H@std@@@std@@AEBAAEB_KXZ
pdata	ENDS
;	COMDAT pdata
pdata	SEGMENT
$pdata$?_Get_first@?$_Compressed_pair@V?$allocator@H@std@@V?$_Deque_val@U?$_Deque_simple_types@H@std@@@2@$00@std@@QEAAAEAV?$allocator@H@2@XZ DD imagerel $LN3
	DD	imagerel $LN3+13
	DD	imagerel $unwind$?_Get_first@?$_Compressed_pair@V?$allocator@H@std@@V?$_Deque_val@U?$_Deque_simple_types@H@std@@@2@$00@std@@QEAAAEAV?$allocator@H@2@XZ
pdata	ENDS
;	COMDAT pdata
pdata	SEGMENT
$pdata$?_Get_first@?$_Compressed_pair@V?$allocator@H@std@@V?$_Deque_val@U?$_Deque_simple_types@H@std@@@2@$00@std@@QEBAAEBV?$allocator@H@2@XZ DD imagerel $LN3
	DD	imagerel $LN3+13
	DD	imagerel $unwind$?_Get_first@?$_Compressed_pair@V?$allocator@H@std@@V?$_Deque_val@U?$_Deque_simple_types@H@std@@@2@$00@std@@QEBAAEBV?$allocator@H@2@XZ
pdata	ENDS
;	COMDAT pdata
pdata	SEGMENT
$pdata$??0?$queue@HV?$deque@HV?$allocator@H@std@@@std@@@std@@QEAA@XZ DD imagerel $LN3
	DD	imagerel $LN3+34
	DD	imagerel $unwind$??0?$queue@HV?$deque@HV?$allocator@H@std@@@std@@@std@@QEAA@XZ
pdata	ENDS
;	COMDAT pdata
pdata	SEGMENT
$pdata$?size@?$queue@HV?$deque@HV?$allocator@H@std@@@std@@@std@@QEBA_KXZ DD imagerel $LN3
	DD	imagerel $LN3+29
	DD	imagerel $unwind$?size@?$queue@HV?$deque@HV?$allocator@H@std@@@std@@@std@@QEBA_KXZ
pdata	ENDS
;	COMDAT pdata
pdata	SEGMENT
$pdata$?front@?$queue@HV?$deque@HV?$allocator@H@std@@@std@@@std@@QEAAAEAHXZ DD imagerel $LN3
	DD	imagerel $LN3+29
	DD	imagerel $unwind$?front@?$queue@HV?$deque@HV?$allocator@H@std@@@std@@@std@@QEAAAEAHXZ
pdata	ENDS
;	COMDAT pdata
pdata	SEGMENT
$pdata$?push@?$queue@HV?$deque@HV?$allocator@H@std@@@std@@@std@@QEAAXAEBH@Z DD imagerel $LN3
	DD	imagerel $LN3+39
	DD	imagerel $unwind$?push@?$queue@HV?$deque@HV?$allocator@H@std@@@std@@@std@@QEAAXAEBH@Z
pdata	ENDS
;	COMDAT pdata
pdata	SEGMENT
$pdata$?pop@?$queue@HV?$deque@HV?$allocator@H@std@@@std@@@std@@QEAAXXZ DD imagerel $LN3
	DD	imagerel $LN3+29
	DD	imagerel $unwind$?pop@?$queue@HV?$deque@HV?$allocator@H@std@@@std@@@std@@QEAAXXZ
pdata	ENDS
;	COMDAT pdata
pdata	SEGMENT
$pdata$??1?$queue@HV?$deque@HV?$allocator@H@std@@@std@@@std@@QEAA@XZ DD imagerel $LN3
	DD	imagerel $LN3+29
	DD	imagerel $unwind$??1?$queue@HV?$deque@HV?$allocator@H@std@@@std@@@std@@QEAA@XZ
pdata	ENDS
;	COMDAT pdata
pdata	SEGMENT
$pdata$??$?6U?$char_traits@D@std@@@std@@YAAEAV?$basic_ostream@DU?$char_traits@D@std@@@0@AEAV10@PEBD@Z DD imagerel $LN25
	DD	imagerel $LN25+1038
	DD	imagerel $unwind$??$?6U?$char_traits@D@std@@@std@@YAAEAV?$basic_ostream@DU?$char_traits@D@std@@@0@AEAV10@PEBD@Z
pdata	ENDS
;	COMDAT pdata
pdata	SEGMENT
$pdata$?dtor$0@?0???$?6U?$char_traits@D@std@@@std@@YAAEAV?$basic_ostream@DU?$char_traits@D@std@@@0@AEAV10@PEBD@Z@4HA DD imagerel ?dtor$0@?0???$?6U?$char_traits@D@std@@@std@@YAAEAV?$basic_ostream@DU?$char_traits@D@std@@@0@AEAV10@PEBD@Z@4HA
	DD	imagerel ?dtor$0@?0???$?6U?$char_traits@D@std@@@std@@YAAEAV?$basic_ostream@DU?$char_traits@D@std@@@0@AEAV10@PEBD@Z@4HA+35
	DD	imagerel $unwind$?dtor$0@?0???$?6U?$char_traits@D@std@@@std@@YAAEAV?$basic_ostream@DU?$char_traits@D@std@@@0@AEAV10@PEBD@Z@4HA
pdata	ENDS
;	COMDAT pdata
pdata	SEGMENT
$pdata$?catch$1@?0???$?6U?$char_traits@D@std@@@std@@YAAEAV?$basic_ostream@DU?$char_traits@D@std@@@0@AEAV10@PEBD@Z@4HA DD imagerel ?catch$1@?0???$?6U?$char_traits@D@std@@@std@@YAAEAV?$basic_ostream@DU?$char_traits@D@std@@@0@AEAV10@PEBD@Z@4HA
	DD	imagerel ?catch$1@?0???$?6U?$char_traits@D@std@@@std@@YAAEAV?$basic_ostream@DU?$char_traits@D@std@@@0@AEAV10@PEBD@Z@4HA+79
	DD	imagerel $unwind$?catch$1@?0???$?6U?$char_traits@D@std@@@std@@YAAEAV?$basic_ostream@DU?$char_traits@D@std@@@0@AEAV10@PEBD@Z@4HA
pdata	ENDS
;	COMDAT pdata
pdata	SEGMENT
$pdata$??$?6DU?$char_traits@D@std@@V?$allocator@D@1@@std@@YAAEAV?$basic_ostream@DU?$char_traits@D@std@@@0@AEAV10@AEBV?$basic_string@DU?$char_traits@D@std@@V?$allocator@D@2@@0@@Z DD imagerel $LN3
	DD	imagerel $LN3+67
	DD	imagerel $unwind$??$?6DU?$char_traits@D@std@@V?$allocator@D@1@@std@@YAAEAV?$basic_ostream@DU?$char_traits@D@std@@@0@AEAV10@AEBV?$basic_string@DU?$char_traits@D@std@@V?$allocator@D@2@@0@@Z
pdata	ENDS
;	COMDAT pdata
pdata	SEGMENT
$pdata$??$endl@DU?$char_traits@D@std@@@std@@YAAEAV?$basic_ostream@DU?$char_traits@D@std@@@0@AEAV10@@Z DD imagerel $LN3
	DD	imagerel $LN3+80
	DD	imagerel $unwind$??$endl@DU?$char_traits@D@std@@@std@@YAAEAV?$basic_ostream@DU?$char_traits@D@std@@@0@AEAV10@@Z
pdata	ENDS
;	COMDAT pdata
pdata	SEGMENT
$pdata$?allocate@?$allocator@U_Container_proxy@std@@@std@@QEAAPEAU_Container_proxy@2@_K@Z DD imagerel $LN3
	DD	imagerel $LN3+39
	DD	imagerel $unwind$?allocate@?$allocator@U_Container_proxy@std@@@std@@QEAAPEAU_Container_proxy@2@_K@Z
pdata	ENDS
;	COMDAT pdata
pdata	SEGMENT
$pdata$??$?0H@?$allocator@U_Container_proxy@std@@@std@@QEAA@AEBV?$allocator@H@1@@Z DD imagerel $LN3
	DD	imagerel $LN3+18
	DD	imagerel $unwind$??$?0H@?$allocator@U_Container_proxy@std@@@std@@QEAA@AEBV?$allocator@H@1@@Z
pdata	ENDS
;	COMDAT pdata
pdata	SEGMENT
$pdata$??$exchange@PEAU_Container_proxy@std@@$$T@std@@YAPEAU_Container_proxy@0@AEAPEAU10@$$QEA$$T@Z DD imagerel $LN3
	DD	imagerel $LN3+53
	DD	imagerel $unwind$??$exchange@PEAU_Container_proxy@std@@$$T@std@@YAPEAU_Container_proxy@0@AEAPEAU10@$$QEA$$T@Z
pdata	ENDS
;	COMDAT pdata
pdata	SEGMENT
$pdata$??$_Delete_plain_internal@V?$allocator@U_Container_proxy@std@@@std@@@std@@YAXAEAV?$allocator@U_Container_proxy@std@@@0@QEAU_Container_proxy@0@@Z DD imagerel $LN3
	DD	imagerel $LN3+36
	DD	imagerel $unwind$??$_Delete_plain_internal@V?$allocator@U_Container_proxy@std@@@std@@@std@@YAXAEAV?$allocator@U_Container_proxy@std@@@0@QEAU_Container_proxy@0@@Z
pdata	ENDS
;	COMDAT pdata
pdata	SEGMENT
$pdata$??$?0$$V@?$_Compressed_pair@V?$allocator@H@std@@V?$_Deque_val@U?$_Deque_simple_types@H@std@@@2@$00@std@@QEAA@U_Zero_then_variadic_args_t@1@@Z DD imagerel $LN3
	DD	imagerel $LN3+48
	DD	imagerel $unwind$??$?0$$V@?$_Compressed_pair@V?$allocator@H@std@@V?$_Deque_val@U?$_Deque_simple_types@H@std@@@2@$00@std@@QEAA@U_Zero_then_variadic_args_t@1@@Z
pdata	ENDS
;	COMDAT pdata
pdata	SEGMENT
$pdata$??$_Alloc_proxy@V?$allocator@U_Container_proxy@std@@@std@@@_Container_base12@std@@QEAAX$$QEAV?$allocator@U_Container_proxy@std@@@1@@Z DD imagerel $LN3
	DD	imagerel $LN3+100
	DD	imagerel $unwind$??$_Alloc_proxy@V?$allocator@U_Container_proxy@std@@@std@@@_Container_base12@std@@QEAAX$$QEAV?$allocator@U_Container_proxy@std@@@1@@Z
pdata	ENDS
;	COMDAT pdata
pdata	SEGMENT
$pdata$??0_Sentry_base@?$basic_ostream@DU?$char_traits@D@std@@@std@@QEAA@AEAV12@@Z DD imagerel $LN4
	DD	imagerel $LN4+113
	DD	imagerel $unwind$??0_Sentry_base@?$basic_ostream@DU?$char_traits@D@std@@@std@@QEAA@AEAV12@@Z
pdata	ENDS
;	COMDAT pdata
pdata	SEGMENT
$pdata$??1_Sentry_base@?$basic_ostream@DU?$char_traits@D@std@@@std@@QEAA@XZ DD imagerel $LN4
	DD	imagerel $LN4+91
	DD	imagerel $unwind$??1_Sentry_base@?$basic_ostream@DU?$char_traits@D@std@@@std@@QEAA@XZ
pdata	ENDS
;	COMDAT pdata
pdata	SEGMENT
$pdata$??0sentry@?$basic_ostream@DU?$char_traits@D@std@@@std@@QEAA@AEAV12@@Z DD imagerel $LN7
	DD	imagerel $LN7+211
	DD	imagerel $unwind$??0sentry@?$basic_ostream@DU?$char_traits@D@std@@@std@@QEAA@AEAV12@@Z
pdata	ENDS
;	COMDAT pdata
pdata	SEGMENT
$pdata$?dtor$0@?0???0sentry@?$basic_ostream@DU?$char_traits@D@std@@@std@@QEAA@AEAV12@@Z@4HA DD imagerel ?dtor$0@?0???0sentry@?$basic_ostream@DU?$char_traits@D@std@@@std@@QEAA@AEAV12@@Z@4HA
	DD	imagerel ?dtor$0@?0???0sentry@?$basic_ostream@DU?$char_traits@D@std@@@std@@QEAA@AEAV12@@Z@4HA+35
	DD	imagerel $unwind$?dtor$0@?0???0sentry@?$basic_ostream@DU?$char_traits@D@std@@@std@@QEAA@AEAV12@@Z@4HA
pdata	ENDS
;	COMDAT pdata
pdata	SEGMENT
$pdata$??1sentry@?$basic_ostream@DU?$char_traits@D@std@@@std@@QEAA@XZ DD imagerel $LN6
	DD	imagerel $LN6+83
	DD	imagerel $unwind$??1sentry@?$basic_ostream@DU?$char_traits@D@std@@@std@@QEAA@XZ
pdata	ENDS
;	COMDAT pdata
pdata	SEGMENT
$pdata$??Bsentry@?$basic_ostream@DU?$char_traits@D@std@@@std@@QEBA_NXZ DD imagerel $LN3
	DD	imagerel $LN3+17
	DD	imagerel $unwind$??Bsentry@?$basic_ostream@DU?$char_traits@D@std@@@std@@QEBA_NXZ
pdata	ENDS
;	COMDAT pdata
pdata	SEGMENT
$pdata$??$min@_K@std@@YAAEB_KAEB_K0@Z DD imagerel $LN5
	DD	imagerel $LN5+74
	DD	imagerel $unwind$??$min@_K@std@@YAAEB_KAEB_K0@Z
pdata	ENDS
;	COMDAT pdata
pdata	SEGMENT
$pdata$??0?$_Container_proxy_ptr12@V?$allocator@U_Container_proxy@std@@@std@@@std@@QEAA@AEAV?$allocator@U_Container_proxy@std@@@1@AEAU_Container_base12@1@@Z DD imagerel $LN3
	DD	imagerel $LN3+135
	DD	imagerel $unwind$??0?$_Container_proxy_ptr12@V?$allocator@U_Container_proxy@std@@@std@@@std@@QEAA@AEAV?$allocator@U_Container_proxy@std@@@1@AEAU_Container_base12@1@@Z
pdata	ENDS
;	COMDAT pdata
pdata	SEGMENT
$pdata$??1?$_Container_proxy_ptr12@V?$allocator@U_Container_proxy@std@@@std@@@std@@QEAA@XZ DD imagerel $LN4
	DD	imagerel $LN4+49
	DD	imagerel $unwind$??1?$_Container_proxy_ptr12@V?$allocator@U_Container_proxy@std@@@std@@@std@@QEAA@XZ
pdata	ENDS
;	COMDAT pdata
pdata	SEGMENT
$pdata$??$?0D@?$allocator@U_Container_proxy@std@@@std@@QEAA@AEBV?$allocator@D@1@@Z DD imagerel $LN3
	DD	imagerel $LN3+18
	DD	imagerel $unwind$??$?0D@?$allocator@U_Container_proxy@std@@@std@@QEAA@AEBV?$allocator@D@1@@Z
pdata	ENDS
;	COMDAT pdata
pdata	SEGMENT
$pdata$??$?0V?$allocator@D@std@@$$V@?$_Compressed_pair@V?$allocator@D@std@@V?$_String_val@U?$_Simple_types@D@std@@@2@$00@std@@QEAA@U_One_then_variadic_args_t@1@$$QEAV?$allocator@D@1@@Z DD imagerel $LN3
	DD	imagerel $LN3+53
	DD	imagerel $unwind$??$?0V?$allocator@D@std@@$$V@?$_Compressed_pair@V?$allocator@D@std@@V?$_String_val@U?$_Simple_types@D@std@@@2@$00@std@@QEAA@U_One_then_variadic_args_t@1@$$QEAV?$allocator@D@1@@Z
pdata	ENDS
;	COMDAT pdata
pdata	SEGMENT
$pdata$??$?0$$V@?$_Compressed_pair@V?$allocator@D@std@@V?$_String_val@U?$_Simple_types@D@std@@@2@$00@std@@QEAA@U_Zero_then_variadic_args_t@1@@Z DD imagerel $LN3
	DD	imagerel $LN3+48
	DD	imagerel $unwind$??$?0$$V@?$_Compressed_pair@V?$allocator@D@std@@V?$_String_val@U?$_Simple_types@D@std@@@2@$00@std@@QEAA@U_Zero_then_variadic_args_t@1@@Z
pdata	ENDS
;	COMDAT pdata
pdata	SEGMENT
$pdata$??$_Unfancy@U_Container_proxy@std@@@std@@YAPEAU_Container_proxy@0@PEAU10@@Z DD imagerel $LN3
	DD	imagerel $LN3+13
	DD	imagerel $unwind$??$_Unfancy@U_Container_proxy@std@@@std@@YAPEAU_Container_proxy@0@PEAU10@@Z
pdata	ENDS
;	COMDAT pdata
pdata	SEGMENT
$pdata$??$addressof@U_Container_base12@std@@@std@@YAPEAU_Container_base12@0@AEAU10@@Z DD imagerel $LN3
	DD	imagerel $LN3+13
	DD	imagerel $unwind$??$addressof@U_Container_base12@std@@@std@@YAPEAU_Container_base12@0@AEAU10@@Z
pdata	ENDS
;	COMDAT pdata
pdata	SEGMENT
$pdata$??$_Construct_in_place@U_Container_proxy@std@@PEAU_Container_base12@2@@std@@YAXAEAU_Container_proxy@0@$$QEAPEAU_Container_base12@0@@Z DD imagerel $LN3
	DD	imagerel $LN3+80
	DD	imagerel $unwind$??$_Construct_in_place@U_Container_proxy@std@@PEAU_Container_base12@2@@std@@YAXAEAU_Container_proxy@0@$$QEAPEAU_Container_base12@0@@Z
pdata	ENDS
;	COMDAT pdata
pdata	SEGMENT
$pdata$??$?0H@?$allocator@PEAH@std@@QEAA@AEBV?$allocator@H@1@@Z DD imagerel $LN3
	DD	imagerel $LN3+18
	DD	imagerel $unwind$??$?0H@?$allocator@PEAH@std@@QEAA@AEBV?$allocator@H@1@@Z
pdata	ENDS
;	COMDAT pdata
pdata	SEGMENT
$pdata$??$_Destroy_in_place@PEAH@std@@YAXAEAPEAH@Z DD imagerel $LN3
	DD	imagerel $LN3+8
	DD	imagerel $unwind$??$_Destroy_in_place@PEAH@std@@YAXAEAPEAH@Z
pdata	ENDS
;	COMDAT pdata
pdata	SEGMENT
$pdata$??$_Emplace_back_internal@AEBH@?$deque@HV?$allocator@H@std@@@std@@AEAAXAEBH@Z DD imagerel $LN5
	DD	imagerel $LN5+554
	DD	imagerel $unwind$??$_Emplace_back_internal@AEBH@?$deque@HV?$allocator@H@std@@@std@@AEAAXAEBH@Z
pdata	ENDS
;	COMDAT pdata
pdata	SEGMENT
$pdata$??$_Unfancy@H@std@@YAPEAHPEAH@Z DD imagerel $LN3
	DD	imagerel $LN3+13
	DD	imagerel $unwind$??$_Unfancy@H@std@@YAPEAHPEAH@Z
pdata	ENDS
;	COMDAT pdata
pdata	SEGMENT
$pdata$??$destroy@H@?$_Default_allocator_traits@V?$allocator@H@std@@@std@@SAXAEAV?$allocator@H@1@QEAH@Z DD imagerel $LN3
	DD	imagerel $LN3+13
	DD	imagerel $unwind$??$destroy@H@?$_Default_allocator_traits@V?$allocator@H@std@@@std@@SAXAEAV?$allocator@H@1@QEAH@Z
pdata	ENDS
;	COMDAT pdata
pdata	SEGMENT
$pdata$??0?$_Deque_unchecked_const_iterator@V?$_Deque_val@U?$_Deque_simple_types@H@std@@@std@@@std@@QEAA@_KPEBU_Container_base12@1@@Z DD imagerel $LN3
	DD	imagerel $LN3+50
	DD	imagerel $unwind$??0?$_Deque_unchecked_const_iterator@V?$_Deque_val@U?$_Deque_simple_types@H@std@@@std@@@std@@QEAA@_KPEBU_Container_base12@1@@Z
pdata	ENDS
;	COMDAT pdata
pdata	SEGMENT
$pdata$??D?$_Deque_unchecked_const_iterator@V?$_Deque_val@U?$_Deque_simple_types@H@std@@@std@@@std@@QEBAAEBHXZ DD imagerel $LN3
	DD	imagerel $LN3+100
	DD	imagerel $unwind$??D?$_Deque_unchecked_const_iterator@V?$_Deque_val@U?$_Deque_simple_types@H@std@@@std@@@std@@QEBAAEBHXZ
pdata	ENDS
;	COMDAT pdata
pdata	SEGMENT
$pdata$??D?$_Deque_unchecked_iterator@V?$_Deque_val@U?$_Deque_simple_types@H@std@@@std@@@std@@QEBAAEAHXZ DD imagerel $LN3
	DD	imagerel $LN3+26
	DD	imagerel $unwind$??D?$_Deque_unchecked_iterator@V?$_Deque_val@U?$_Deque_simple_types@H@std@@@std@@@std@@QEBAAEAHXZ
pdata	ENDS
;	COMDAT pdata
pdata	SEGMENT
$pdata$??0?$_Deque_unchecked_iterator@V?$_Deque_val@U?$_Deque_simple_types@H@std@@@std@@@std@@QEAA@_KPEBU_Container_base12@1@@Z DD imagerel $LN3
	DD	imagerel $LN3+51
	DD	imagerel $unwind$??0?$_Deque_unchecked_iterator@V?$_Deque_val@U?$_Deque_simple_types@H@std@@@std@@@std@@QEAA@_KPEBU_Container_base12@1@@Z
pdata	ENDS
;	COMDAT pdata
pdata	SEGMENT
$pdata$??$_Destroy_in_place@PEAD@std@@YAXAEAPEAD@Z DD imagerel $LN3
	DD	imagerel $LN3+8
	DD	imagerel $unwind$??$_Destroy_in_place@PEAD@std@@YAXAEAPEAD@Z
pdata	ENDS
;	COMDAT pdata
pdata	SEGMENT
$pdata$??R<lambda_66f57f934f28d61049862f64df852ff0>@@QEBA@QEAD_KQEBD@Z DD imagerel $LN3
	DD	imagerel $LN3+85
	DD	imagerel $unwind$??R<lambda_66f57f934f28d61049862f64df852ff0>@@QEBA@QEAD_KQEBD@Z
pdata	ENDS
;	COMDAT pdata
pdata	SEGMENT
$pdata$??$_Reallocate_for@V<lambda_66f57f934f28d61049862f64df852ff0>@@PEBD@?$basic_string@DU?$char_traits@D@std@@V?$allocator@D@2@@std@@AEAAAEAV01@_KV<lambda_66f57f934f28d61049862f64df852ff0>@@PEBD@Z DD imagerel $LN6
	DD	imagerel $LN6+332
	DD	imagerel $unwind$??$_Reallocate_for@V<lambda_66f57f934f28d61049862f64df852ff0>@@PEBD@?$basic_string@DU?$char_traits@D@std@@V?$allocator@D@2@@std@@AEAAAEAV01@_KV<lambda_66f57f934f28d61049862f64df852ff0>@@PEBD@Z
pdata	ENDS
;	COMDAT pdata
pdata	SEGMENT
$pdata$??$_Construct_in_place@PEADAEBQEAD@std@@YAXAEAPEADAEBQEAD@Z DD imagerel $LN3
	DD	imagerel $LN3+78
	DD	imagerel $unwind$??$_Construct_in_place@PEADAEBQEAD@std@@YAXAEAPEADAEBQEAD@Z
pdata	ENDS
;	COMDAT pdata
pdata	SEGMENT
$pdata$??$_Unfancy@D@std@@YAPEADPEAD@Z DD imagerel $LN3
	DD	imagerel $LN3+13
	DD	imagerel $unwind$??$_Unfancy@D@std@@YAPEADPEAD@Z
pdata	ENDS
;	COMDAT pdata
pdata	SEGMENT
$pdata$??$max@_K@std@@YAAEB_KAEB_K0@Z DD imagerel $LN5
	DD	imagerel $LN5+74
	DD	imagerel $unwind$??$max@_K@std@@YAAEB_KAEB_K0@Z
pdata	ENDS
;	COMDAT pdata
pdata	SEGMENT
$pdata$??$_Get_size_of_n@$0BA@@std@@YA_K_K@Z DD imagerel $LN4
	DD	imagerel $LN4+64
	DD	imagerel $unwind$??$_Get_size_of_n@$0BA@@std@@YA_K_K@Z
pdata	ENDS
;	COMDAT pdata
pdata	SEGMENT
$pdata$??$_Allocate@$0BA@U_Default_allocate_traits@std@@$0A@@std@@YAPEAX_K@Z DD imagerel $LN5
	DD	imagerel $LN5+61
	DD	imagerel $unwind$??$_Allocate@$0BA@U_Default_allocate_traits@std@@$0A@@std@@YAPEAX_K@Z
pdata	ENDS
;	COMDAT pdata
pdata	SEGMENT
$pdata$??$addressof@V?$_Deque_val@U?$_Deque_simple_types@H@std@@@std@@@std@@YAPEAV?$_Deque_val@U?$_Deque_simple_types@H@std@@@0@AEAV10@@Z DD imagerel $LN3
	DD	imagerel $LN3+13
	DD	imagerel $unwind$??$addressof@V?$_Deque_val@U?$_Deque_simple_types@H@std@@@std@@@std@@YAPEAV?$_Deque_val@U?$_Deque_simple_types@H@std@@@0@AEAV10@@Z
pdata	ENDS
;	COMDAT pdata
pdata	SEGMENT
$pdata$??$_Deallocate@$0BA@$0A@@std@@YAXPEAX_K@Z DD imagerel $LN4
	DD	imagerel $LN4+63
	DD	imagerel $unwind$??$_Deallocate@$0BA@$0A@@std@@YAXPEAX_K@Z
pdata	ENDS
;	COMDAT pdata
pdata	SEGMENT
$pdata$??$_Get_size_of_n@$00@std@@YA_K_K@Z DD imagerel $LN3
	DD	imagerel $LN3+25
	DD	imagerel $unwind$??$_Get_size_of_n@$00@std@@YA_K_K@Z
pdata	ENDS
;	COMDAT pdata
pdata	SEGMENT
$pdata$??$_Insert_string@DU?$char_traits@D@std@@_K@std@@YAAEAV?$basic_ostream@DU?$char_traits@D@std@@@0@AEAV10@QEBD_K@Z DD imagerel $LN26
	DD	imagerel $LN26+994
	DD	imagerel $unwind$??$_Insert_string@DU?$char_traits@D@std@@_K@std@@YAAEAV?$basic_ostream@DU?$char_traits@D@std@@@0@AEAV10@QEBD_K@Z
pdata	ENDS
;	COMDAT pdata
pdata	SEGMENT
$pdata$?dtor$0@?0???$_Insert_string@DU?$char_traits@D@std@@_K@std@@YAAEAV?$basic_ostream@DU?$char_traits@D@std@@@0@AEAV10@QEBD_K@Z@4HA DD imagerel ?dtor$0@?0???$_Insert_string@DU?$char_traits@D@std@@_K@std@@YAAEAV?$basic_ostream@DU?$char_traits@D@std@@@0@AEAV10@QEBD_K@Z@4HA
	DD	imagerel ?dtor$0@?0???$_Insert_string@DU?$char_traits@D@std@@_K@std@@YAAEAV?$basic_ostream@DU?$char_traits@D@std@@@0@AEAV10@QEBD_K@Z@4HA+35
	DD	imagerel $unwind$?dtor$0@?0???$_Insert_string@DU?$char_traits@D@std@@_K@std@@YAAEAV?$basic_ostream@DU?$char_traits@D@std@@@0@AEAV10@QEBD_K@Z@4HA
pdata	ENDS
;	COMDAT pdata
pdata	SEGMENT
$pdata$?catch$1@?0???$_Insert_string@DU?$char_traits@D@std@@_K@std@@YAAEAV?$basic_ostream@DU?$char_traits@D@std@@@0@AEAV10@QEBD_K@Z@4HA DD imagerel ?catch$1@?0???$_Insert_string@DU?$char_traits@D@std@@_K@std@@YAAEAV?$basic_ostream@DU?$char_traits@D@std@@@0@AEAV10@QEBD_K@Z@4HA
	DD	imagerel ?catch$1@?0???$_Insert_string@DU?$char_traits@D@std@@_K@std@@YAAEAV?$basic_ostream@DU?$char_traits@D@std@@@0@AEAV10@QEBD_K@Z@4HA+79
	DD	imagerel $unwind$?catch$1@?0???$_Insert_string@DU?$char_traits@D@std@@_K@std@@YAAEAV?$basic_ostream@DU?$char_traits@D@std@@@0@AEAV10@QEBD_K@Z@4HA
pdata	ENDS
;	COMDAT pdata
pdata	SEGMENT
$pdata$??$_Deallocate_plain@V?$allocator@U_Container_proxy@std@@@std@@@std@@YAXAEAV?$allocator@U_Container_proxy@std@@@0@QEAU_Container_proxy@0@@Z DD imagerel $LN3
	DD	imagerel $LN3+43
	DD	imagerel $unwind$??$_Deallocate_plain@V?$allocator@U_Container_proxy@std@@@std@@@std@@YAXAEAV?$allocator@U_Container_proxy@std@@@0@QEAU_Container_proxy@0@@Z
pdata	ENDS
;	COMDAT pdata
pdata	SEGMENT
$pdata$??$forward@V?$allocator@D@std@@@std@@YA$$QEAV?$allocator@D@0@AEAV10@@Z DD imagerel $LN3
	DD	imagerel $LN3+13
	DD	imagerel $unwind$??$forward@V?$allocator@D@std@@@std@@YA$$QEAV?$allocator@D@0@AEAV10@@Z
pdata	ENDS
;	COMDAT pdata
pdata	SEGMENT
$pdata$??$addressof@U_Container_proxy@std@@@std@@YAPEAU_Container_proxy@0@AEAU10@@Z DD imagerel $LN3
	DD	imagerel $LN3+13
	DD	imagerel $unwind$??$addressof@U_Container_proxy@std@@@std@@YAPEAU_Container_proxy@0@AEAU10@@Z
pdata	ENDS
;	COMDAT pdata
pdata	SEGMENT
$pdata$??$_Voidify_iter@PEAU_Container_proxy@std@@@std@@YAPEAXPEAU_Container_proxy@0@@Z DD imagerel $LN3
	DD	imagerel $LN3+13
	DD	imagerel $unwind$??$_Voidify_iter@PEAU_Container_proxy@std@@@std@@YAPEAXPEAU_Container_proxy@0@@Z
pdata	ENDS
;	COMDAT pdata
pdata	SEGMENT
$pdata$??$forward@PEAU_Container_base12@std@@@std@@YA$$QEAPEAU_Container_base12@0@AEAPEAU10@@Z DD imagerel $LN3
	DD	imagerel $LN3+13
	DD	imagerel $unwind$??$forward@PEAU_Container_base12@std@@@std@@YA$$QEAPEAU_Container_base12@0@AEAPEAU10@@Z
pdata	ENDS
;	COMDAT pdata
pdata	SEGMENT
$pdata$??$forward@AEBH@std@@YAAEBHAEBH@Z DD imagerel $LN3
	DD	imagerel $LN3+13
	DD	imagerel $unwind$??$forward@AEBH@std@@YAAEBHAEBH@Z
pdata	ENDS
;	COMDAT pdata
pdata	SEGMENT
$pdata$??$construct@HAEBH@?$_Default_allocator_traits@V?$allocator@H@std@@@std@@SAXAEAV?$allocator@H@1@QEAHAEBH@Z DD imagerel $LN3
	DD	imagerel $LN3+73
	DD	imagerel $unwind$??$construct@HAEBH@?$_Default_allocator_traits@V?$allocator@H@std@@@std@@SAXAEAV?$allocator@H@1@QEAHAEBH@Z
pdata	ENDS
;	COMDAT pdata
pdata	SEGMENT
$pdata$??$addressof@PEAD@std@@YAPEAPEADAEAPEAD@Z DD imagerel $LN3
	DD	imagerel $LN3+13
	DD	imagerel $unwind$??$addressof@PEAD@std@@YAPEAPEADAEAPEAD@Z
pdata	ENDS
;	COMDAT pdata
pdata	SEGMENT
$pdata$??$_Voidify_iter@PEAPEAD@std@@YAPEAXPEAPEAD@Z DD imagerel $LN3
	DD	imagerel $LN3+13
	DD	imagerel $unwind$??$_Voidify_iter@PEAPEAD@std@@YAPEAXPEAPEAD@Z
pdata	ENDS
;	COMDAT pdata
pdata	SEGMENT
$pdata$??$forward@AEBQEAD@std@@YAAEBQEADAEBQEAD@Z DD imagerel $LN3
	DD	imagerel $LN3+13
	DD	imagerel $unwind$??$forward@AEBQEAD@std@@YAAEBQEADAEBQEAD@Z
pdata	ENDS
;	COMDAT pdata
pdata	SEGMENT
$pdata$??$_Allocate_manually_vector_aligned@U_Default_allocate_traits@std@@@std@@YAPEAX_K@Z DD imagerel $LN13
	DD	imagerel $LN13+259
	DD	imagerel $unwind$??$_Allocate_manually_vector_aligned@U_Default_allocate_traits@std@@@std@@YAPEAX_K@Z
pdata	ENDS
;	COMDAT pdata
pdata	SEGMENT
$pdata$??$uninitialized_copy@PEAPEAHPEAPEAH@std@@YAPEAPEAHQEAPEAH0PEAPEAH@Z DD imagerel $LN3
	DD	imagerel $LN3+216
	DD	imagerel $unwind$??$uninitialized_copy@PEAPEAHPEAPEAH@std@@YAPEAPEAHQEAPEAH0PEAPEAH@Z
pdata	ENDS
;	COMDAT pdata
pdata	SEGMENT
$pdata$??$_Uninitialized_value_construct_n_unchecked1@PEAPEAH_K@std@@YAPEAPEAHPEAPEAH_K@Z DD imagerel $LN3
	DD	imagerel $LN3+48
	DD	imagerel $unwind$??$_Uninitialized_value_construct_n_unchecked1@PEAPEAH_K@std@@YAPEAPEAHPEAPEAH_K@Z
pdata	ENDS
;	COMDAT pdata
pdata	SEGMENT
$pdata$??$_Destroy_range@PEAPEAHPEAPEAH@std@@YAXPEAPEAHQEAPEAH@Z DD imagerel $LN3
	DD	imagerel $LN3+13
	DD	imagerel $unwind$??$_Destroy_range@PEAPEAHPEAPEAH@std@@YAXPEAPEAHQEAPEAH@Z
pdata	ENDS
;	COMDAT pdata
pdata	SEGMENT
$pdata$??$_Get_size_of_n@$03@std@@YA_K_K@Z DD imagerel $LN4
	DD	imagerel $LN4+67
	DD	imagerel $unwind$??$_Get_size_of_n@$03@std@@YA_K_K@Z
pdata	ENDS
;	COMDAT pdata
pdata	SEGMENT
$pdata$??$_Get_size_of_n@$07@std@@YA_K_K@Z DD imagerel $LN4
	DD	imagerel $LN4+67
	DD	imagerel $unwind$??$_Get_size_of_n@$07@std@@YA_K_K@Z
pdata	ENDS
;	COMDAT pdata
pdata	SEGMENT
$pdata$?deallocate@?$_Default_allocator_traits@V?$allocator@U_Container_proxy@std@@@std@@@std@@SAXAEAV?$allocator@U_Container_proxy@std@@@2@QEAU_Container_proxy@2@_K@Z DD imagerel $LN3
	DD	imagerel $LN3+45
	DD	imagerel $unwind$?deallocate@?$_Default_allocator_traits@V?$allocator@U_Container_proxy@std@@@std@@@std@@SAXAEAV?$allocator@U_Container_proxy@std@@@2@QEAU_Container_proxy@2@_K@Z
pdata	ENDS
;	COMDAT pdata
pdata	SEGMENT
$pdata$??$_Voidify_iter@PEAH@std@@YAPEAXPEAH@Z DD imagerel $LN3
	DD	imagerel $LN3+13
	DD	imagerel $unwind$??$_Voidify_iter@PEAH@std@@YAPEAXPEAH@Z
pdata	ENDS
;	COMDAT pdata
pdata	SEGMENT
$pdata$??$_Adl_verify_range@PEAPEAHPEAPEAH@std@@YAXAEBQEAPEAH0@Z DD imagerel $LN3
	DD	imagerel $LN3+42
	DD	imagerel $unwind$??$_Adl_verify_range@PEAPEAHPEAPEAH@std@@YAXAEBQEAPEAH0@Z
pdata	ENDS
;	COMDAT pdata
pdata	SEGMENT
$pdata$??$_Get_unwrapped@AEBQEAPEAH@std@@YA?A_TAEBQEAPEAH@Z DD imagerel $LN3
	DD	imagerel $LN3+16
	DD	imagerel $unwind$??$_Get_unwrapped@AEBQEAPEAH@std@@YA?A_TAEBQEAPEAH@Z
pdata	ENDS
;	COMDAT pdata
pdata	SEGMENT
$pdata$??$_Idl_distance@PEAPEAHPEAPEAH@std@@YA?A_PAEBQEAPEAH0@Z DD imagerel $LN3
	DD	imagerel $LN3+36
	DD	imagerel $unwind$??$_Idl_distance@PEAPEAHPEAPEAH@std@@YA?A_PAEBQEAPEAH0@Z
pdata	ENDS
;	COMDAT pdata
pdata	SEGMENT
$pdata$??$_Get_unwrapped_n@AEAPEAPEAH_J@std@@YA?A_TAEAPEAPEAH_J@Z DD imagerel $LN3
	DD	imagerel $LN3+21
	DD	imagerel $unwind$??$_Get_unwrapped_n@AEAPEAPEAH_J@std@@YA?A_TAEAPEAPEAH_J@Z
pdata	ENDS
;	COMDAT pdata
pdata	SEGMENT
$pdata$??$_Uninitialized_copy_unchecked@PEAPEAHPEAPEAH@std@@YAPEAPEAHPEAPEAHQEAPEAH0@Z DD imagerel $LN7
	DD	imagerel $LN7+181
	DD	imagerel $unwind$??$_Uninitialized_copy_unchecked@PEAPEAHPEAPEAH@std@@YAPEAPEAHPEAPEAHQEAPEAH0@Z
pdata	ENDS
;	COMDAT pdata
pdata	SEGMENT
$pdata$?dtor$0@?0???$_Uninitialized_copy_unchecked@PEAPEAHPEAPEAH@std@@YAPEAPEAHPEAPEAHQEAPEAH0@Z@4HA DD imagerel ?dtor$0@?0???$_Uninitialized_copy_unchecked@PEAPEAHPEAPEAH@std@@YAPEAPEAHPEAPEAHQEAPEAH0@Z@4HA
	DD	imagerel ?dtor$0@?0???$_Uninitialized_copy_unchecked@PEAPEAHPEAPEAH@std@@YAPEAPEAHPEAPEAHQEAPEAH0@Z@4HA+35
	DD	imagerel $unwind$?dtor$0@?0???$_Uninitialized_copy_unchecked@PEAPEAHPEAPEAH@std@@YAPEAPEAHPEAPEAHQEAPEAH0@Z@4HA
pdata	ENDS
;	COMDAT pdata
pdata	SEGMENT
$pdata$??$_Seek_wrapped@PEAPEAHPEAPEAH@std@@YAXAEAPEAPEAH$$QEAPEAPEAH@Z DD imagerel $LN3
	DD	imagerel $LN3+42
	DD	imagerel $unwind$??$_Seek_wrapped@PEAPEAHPEAPEAH@std@@YAXAEAPEAPEAH$$QEAPEAPEAH@Z
pdata	ENDS
;	COMDAT pdata
pdata	SEGMENT
$pdata$??$_Zero_range@PEAPEAH@std@@YAPEAPEAHQEAPEAH0@Z DD imagerel $LN3
	DD	imagerel $LN3+87
	DD	imagerel $unwind$??$_Zero_range@PEAPEAH@std@@YAPEAPEAHQEAPEAH0@Z
pdata	ENDS
;	COMDAT pdata
pdata	SEGMENT
$pdata$??$_Verify_range@PEAH@std@@YAXQEBQEAH0@Z DD imagerel $LN12
	DD	imagerel $LN12+148
	DD	imagerel $unwind$??$_Verify_range@PEAH@std@@YAXQEBQEAH0@Z
pdata	ENDS
;	COMDAT pdata
pdata	SEGMENT
$pdata$??$_Copy_memmove@PEAPEAHPEAPEAH@std@@YAPEAPEAHPEAPEAH00@Z DD imagerel $LN3
	DD	imagerel $LN3+161
	DD	imagerel $unwind$??$_Copy_memmove@PEAPEAHPEAPEAH@std@@YAPEAPEAHPEAPEAH00@Z
pdata	ENDS
;	COMDAT pdata
pdata	SEGMENT
$pdata$??0?$_Uninitialized_backout@PEAPEAH@std@@QEAA@PEAPEAH@Z DD imagerel $LN3
	DD	imagerel $LN3+45
	DD	imagerel $unwind$??0?$_Uninitialized_backout@PEAPEAH@std@@QEAA@PEAPEAH@Z
pdata	ENDS
;	COMDAT pdata
pdata	SEGMENT
$pdata$??1?$_Uninitialized_backout@PEAPEAH@std@@QEAA@XZ DD imagerel $LN3
	DD	imagerel $LN3+38
	DD	imagerel $unwind$??1?$_Uninitialized_backout@PEAPEAH@std@@QEAA@XZ
pdata	ENDS
;	COMDAT pdata
pdata	SEGMENT
$pdata$?_Release@?$_Uninitialized_backout@PEAPEAH@std@@QEAAPEAPEAHXZ DD imagerel $LN3
	DD	imagerel $LN3+34
	DD	imagerel $unwind$?_Release@?$_Uninitialized_backout@PEAPEAH@std@@QEAAPEAPEAHXZ
pdata	ENDS
;	COMDAT pdata
pdata	SEGMENT
$pdata$??$_Emplace_back@AEAPEAH@?$_Uninitialized_backout@PEAPEAH@std@@QEAAXAEAPEAH@Z DD imagerel $LN3
	DD	imagerel $LN3+70
	DD	imagerel $unwind$??$_Emplace_back@AEAPEAH@?$_Uninitialized_backout@PEAPEAH@std@@QEAAXAEAPEAH@Z
pdata	ENDS
;	COMDAT pdata
pdata	SEGMENT
$pdata$??$forward@PEAPEAH@std@@YA$$QEAPEAPEAHAEAPEAPEAH@Z DD imagerel $LN3
	DD	imagerel $LN3+13
	DD	imagerel $unwind$??$forward@PEAPEAH@std@@YA$$QEAPEAPEAHAEAPEAPEAH@Z
pdata	ENDS
;	COMDAT pdata
pdata	SEGMENT
$pdata$??$_To_address@PEAPEAH@std@@YA?A_PAEBQEAPEAH@Z DD imagerel $LN3
	DD	imagerel $LN3+16
	DD	imagerel $unwind$??$_To_address@PEAPEAH@std@@YA?A_PAEBQEAPEAH@Z
pdata	ENDS
;	COMDAT pdata
pdata	SEGMENT
$pdata$??$forward@AEAPEAH@std@@YAAEAPEAHAEAPEAH@Z DD imagerel $LN3
	DD	imagerel $LN3+13
	DD	imagerel $unwind$??$forward@AEAPEAH@std@@YAAEAPEAHAEAPEAH@Z
pdata	ENDS
;	COMDAT pdata
pdata	SEGMENT
$pdata$??$_Construct_in_place@PEAHAEAPEAH@std@@YAXAEAPEAH0@Z DD imagerel $LN3
	DD	imagerel $LN3+78
	DD	imagerel $unwind$??$_Construct_in_place@PEAHAEAPEAH@std@@YAXAEAPEAH0@Z
pdata	ENDS
;	COMDAT pdata
pdata	SEGMENT
$pdata$??$addressof@PEAH@std@@YAPEAPEAHAEAPEAH@Z DD imagerel $LN3
	DD	imagerel $LN3+13
	DD	imagerel $unwind$??$addressof@PEAH@std@@YAPEAPEAHAEAPEAH@Z
pdata	ENDS
;	COMDAT pdata
pdata	SEGMENT
$pdata$??$_Voidify_iter@PEAPEAH@std@@YAPEAXPEAPEAH@Z DD imagerel $LN3
	DD	imagerel $LN3+13
	DD	imagerel $unwind$??$_Voidify_iter@PEAPEAH@std@@YAPEAXPEAPEAH@Z
pdata	ENDS
;	COMDAT rtc$TMZ
rtc$TMZ	SEGMENT
_RTC_Shutdown.rtc$TMZ DQ FLAT:_RTC_Shutdown
rtc$TMZ	ENDS
;	COMDAT rtc$IMZ
rtc$IMZ	SEGMENT
_RTC_InitBase.rtc$IMZ DQ FLAT:_RTC_InitBase
rtc$IMZ	ENDS
;	COMDAT ??_R1A@?0A@EA@bad_array_new_length@std@@8
rdata$r	SEGMENT
??_R1A@?0A@EA@bad_array_new_length@std@@8 DD imagerel ??_R0?AVbad_array_new_length@std@@@8 ; std::bad_array_new_length::`RTTI Base Class Descriptor at (0,-1,0,64)'
	DD	02H
	DD	00H
	DD	0ffffffffH
	DD	00H
	DD	040H
	DD	imagerel ??_R3bad_array_new_length@std@@8
rdata$r	ENDS
;	COMDAT ??_R2bad_array_new_length@std@@8
rdata$r	SEGMENT
??_R2bad_array_new_length@std@@8 DD imagerel ??_R1A@?0A@EA@bad_array_new_length@std@@8 ; std::bad_array_new_length::`RTTI Base Class Array'
	DD	imagerel ??_R1A@?0A@EA@bad_alloc@std@@8
	DD	imagerel ??_R1A@?0A@EA@exception@std@@8
	ORG $+3
rdata$r	ENDS
;	COMDAT ??_R3bad_array_new_length@std@@8
rdata$r	SEGMENT
??_R3bad_array_new_length@std@@8 DD 00H			; std::bad_array_new_length::`RTTI Class Hierarchy Descriptor'
	DD	00H
	DD	03H
	DD	imagerel ??_R2bad_array_new_length@std@@8
rdata$r	ENDS
;	COMDAT ??_R4bad_array_new_length@std@@6B@
rdata$r	SEGMENT
??_R4bad_array_new_length@std@@6B@ DD 01H		; std::bad_array_new_length::`RTTI Complete Object Locator'
	DD	00H
	DD	00H
	DD	imagerel ??_R0?AVbad_array_new_length@std@@@8
	DD	imagerel ??_R3bad_array_new_length@std@@8
	DD	imagerel ??_R4bad_array_new_length@std@@6B@
rdata$r	ENDS
;	COMDAT ??_R1A@?0A@EA@bad_alloc@std@@8
rdata$r	SEGMENT
??_R1A@?0A@EA@bad_alloc@std@@8 DD imagerel ??_R0?AVbad_alloc@std@@@8 ; std::bad_alloc::`RTTI Base Class Descriptor at (0,-1,0,64)'
	DD	01H
	DD	00H
	DD	0ffffffffH
	DD	00H
	DD	040H
	DD	imagerel ??_R3bad_alloc@std@@8
rdata$r	ENDS
;	COMDAT ??_R2bad_alloc@std@@8
rdata$r	SEGMENT
??_R2bad_alloc@std@@8 DD imagerel ??_R1A@?0A@EA@bad_alloc@std@@8 ; std::bad_alloc::`RTTI Base Class Array'
	DD	imagerel ??_R1A@?0A@EA@exception@std@@8
	ORG $+3
rdata$r	ENDS
;	COMDAT ??_R3bad_alloc@std@@8
rdata$r	SEGMENT
??_R3bad_alloc@std@@8 DD 00H				; std::bad_alloc::`RTTI Class Hierarchy Descriptor'
	DD	00H
	DD	02H
	DD	imagerel ??_R2bad_alloc@std@@8
rdata$r	ENDS
;	COMDAT ??_R4bad_alloc@std@@6B@
rdata$r	SEGMENT
??_R4bad_alloc@std@@6B@ DD 01H				; std::bad_alloc::`RTTI Complete Object Locator'
	DD	00H
	DD	00H
	DD	imagerel ??_R0?AVbad_alloc@std@@@8
	DD	imagerel ??_R3bad_alloc@std@@8
	DD	imagerel ??_R4bad_alloc@std@@6B@
rdata$r	ENDS
;	COMDAT ??_R1A@?0A@EA@exception@std@@8
rdata$r	SEGMENT
??_R1A@?0A@EA@exception@std@@8 DD imagerel ??_R0?AVexception@std@@@8 ; std::exception::`RTTI Base Class Descriptor at (0,-1,0,64)'
	DD	00H
	DD	00H
	DD	0ffffffffH
	DD	00H
	DD	040H
	DD	imagerel ??_R3exception@std@@8
rdata$r	ENDS
;	COMDAT ??_R2exception@std@@8
rdata$r	SEGMENT
??_R2exception@std@@8 DD imagerel ??_R1A@?0A@EA@exception@std@@8 ; std::exception::`RTTI Base Class Array'
	ORG $+3
rdata$r	ENDS
;	COMDAT ??_R3exception@std@@8
rdata$r	SEGMENT
??_R3exception@std@@8 DD 00H				; std::exception::`RTTI Class Hierarchy Descriptor'
	DD	00H
	DD	01H
	DD	imagerel ??_R2exception@std@@8
rdata$r	ENDS
;	COMDAT ??_R4exception@std@@6B@
rdata$r	SEGMENT
??_R4exception@std@@6B@ DD 01H				; std::exception::`RTTI Complete Object Locator'
	DD	00H
	DD	00H
	DD	imagerel ??_R0?AVexception@std@@@8
	DD	imagerel ??_R3exception@std@@8
	DD	imagerel ??_R4exception@std@@6B@
rdata$r	ENDS
;	COMDAT ??_C@_1DG@FJIKMGFD@?$AA?$CC?$AAt?$AAr?$AAa?$AAn?$AAs?$AAp?$AAo?$AAs?$AAe?$AAd?$AA?5?$AAp?$AAo?$AAi@
CONST	SEGMENT
??_C@_1DG@FJIKMGFD@?$AA?$CC?$AAt?$AAr?$AAa?$AAn?$AAs?$AAp?$AAo?$AAs?$AAe?$AAd?$AA?5?$AAp?$AAo?$AAi@ DB '"'
	DB	00H, 't', 00H, 'r', 00H, 'a', 00H, 'n', 00H, 's', 00H, 'p', 00H
	DB	'o', 00H, 's', 00H, 'e', 00H, 'd', 00H, ' ', 00H, 'p', 00H, 'o'
	DB	00H, 'i', 00H, 'n', 00H, 't', 00H, 'e', 00H, 'r', 00H, ' ', 00H
	DB	'r', 00H, 'a', 00H, 'n', 00H, 'g', 00H, 'e', 00H, '"', 00H, 00H
	DB	00H						; `string'
CONST	ENDS
;	COMDAT ??_C@_1CG@LJCPDKEJ@?$AAs?$AAt?$AAd?$AA?3?$AA?3?$AA_?$AAV?$AAe?$AAr?$AAi?$AAf?$AAy?$AA_?$AAr?$AAa@
CONST	SEGMENT
??_C@_1CG@LJCPDKEJ@?$AAs?$AAt?$AAd?$AA?3?$AA?3?$AA_?$AAV?$AAe?$AAr?$AAi?$AAf?$AAy?$AA_?$AAr?$AAa@ DB 's'
	DB	00H, 't', 00H, 'd', 00H, ':', 00H, ':', 00H, '_', 00H, 'V', 00H
	DB	'e', 00H, 'r', 00H, 'i', 00H, 'f', 00H, 'y', 00H, '_', 00H, 'r'
	DB	00H, 'a', 00H, 'n', 00H, 'g', 00H, 'e', 00H, 00H, 00H ; `string'
CONST	ENDS
;	COMDAT ??_C@_1NC@HPCGBKBF@?$AAC?$AA?3?$AA?2?$AAP?$AAr?$AAo?$AAg?$AAr?$AAa?$AAm?$AA?5?$AAF?$AAi?$AAl?$AAe@
CONST	SEGMENT
??_C@_1NC@HPCGBKBF@?$AAC?$AA?3?$AA?2?$AAP?$AAr?$AAo?$AAg?$AAr?$AAa?$AAm?$AA?5?$AAF?$AAi?$AAl?$AAe@ DB 'C'
	DB	00H, ':', 00H, '\', 00H, 'P', 00H, 'r', 00H, 'o', 00H, 'g', 00H
	DB	'r', 00H, 'a', 00H, 'm', 00H, ' ', 00H, 'F', 00H, 'i', 00H, 'l'
	DB	00H, 'e', 00H, 's', 00H, ' ', 00H, '(', 00H, 'x', 00H, '8', 00H
	DB	'6', 00H, ')', 00H, '\', 00H, 'M', 00H, 'i', 00H, 'c', 00H, 'r'
	DB	00H, 'o', 00H, 's', 00H, 'o', 00H, 'f', 00H, 't', 00H, ' ', 00H
	DB	'V', 00H, 'i', 00H, 's', 00H, 'u', 00H, 'a', 00H, 'l', 00H, ' '
	DB	00H, 'S', 00H, 't', 00H, 'u', 00H, 'd', 00H, 'i', 00H, 'o', 00H
	DB	'\', 00H, '2', 00H, '0', 00H, '1', 00H, '9', 00H, '\', 00H, 'C'
	DB	00H, 'o', 00H, 'm', 00H, 'm', 00H, 'u', 00H, 'n', 00H, 'i', 00H
	DB	't', 00H, 'y', 00H, '\', 00H, 'V', 00H, 'C', 00H, '\', 00H, 'T'
	DB	00H, 'o', 00H, 'o', 00H, 'l', 00H, 's', 00H, '\', 00H, 'M', 00H
	DB	'S', 00H, 'V', 00H, 'C', 00H, '\', 00H, '1', 00H, '4', 00H, '.'
	DB	00H, '2', 00H, '9', 00H, '.', 00H, '3', 00H, '0', 00H, '0', 00H
	DB	'3', 00H, '7', 00H, '\', 00H, 'i', 00H, 'n', 00H, 'c', 00H, 'l'
	DB	00H, 'u', 00H, 'd', 00H, 'e', 00H, '\', 00H, 'x', 00H, 'u', 00H
	DB	't', 00H, 'i', 00H, 'l', 00H, 'i', 00H, 't', 00H, 'y', 00H, 00H
	DB	00H						; `string'
CONST	ENDS
;	COMDAT ??_C@_0GJ@LJDCNNIF@C?3?2Program?5Files?5?$CIx86?$CJ?2Microsof@
CONST	SEGMENT
??_C@_0GJ@LJDCNNIF@C?3?2Program?5Files?5?$CIx86?$CJ?2Microsof@ DB 'C:\Pro'
	DB	'gram Files (x86)\Microsoft Visual Studio\2019\Community\VC\To'
	DB	'ols\MSVC\14.29.30037\include\xutility', 00H	; `string'
CONST	ENDS
;	COMDAT ??_C@_0BJ@HAJGEHKO@transposed?5pointer?5range@
CONST	SEGMENT
??_C@_0BJ@HAJGEHKO@transposed?5pointer?5range@ DB 'transposed pointer ran'
	DB	'ge', 00H					; `string'
CONST	ENDS
;	COMDAT ??_C@_0BC@KBDMBKEH@deque?$DMT?$DO?5too?5long@
CONST	SEGMENT
??_C@_0BC@KBDMBKEH@deque?$DMT?$DO?5too?5long@ DB 'deque<T> too long', 00H ; `string'
CONST	ENDS
;	COMDAT ??_C@_1GK@DKJEHNEJ@?$AAs?$AAt?$AAd?$AA?3?$AA?3?$AAd?$AAe?$AAq?$AAu?$AAe?$AA?$DM?$AAi?$AAn?$AAt?$AA?0@
CONST	SEGMENT
??_C@_1GK@DKJEHNEJ@?$AAs?$AAt?$AAd?$AA?3?$AA?3?$AAd?$AAe?$AAq?$AAu?$AAe?$AA?$DM?$AAi?$AAn?$AAt?$AA?0@ DB 's'
	DB	00H, 't', 00H, 'd', 00H, ':', 00H, ':', 00H, 'd', 00H, 'e', 00H
	DB	'q', 00H, 'u', 00H, 'e', 00H, '<', 00H, 'i', 00H, 'n', 00H, 't'
	DB	00H, ',', 00H, 'c', 00H, 'l', 00H, 'a', 00H, 's', 00H, 's', 00H
	DB	' ', 00H, 's', 00H, 't', 00H, 'd', 00H, ':', 00H, ':', 00H, 'a'
	DB	00H, 'l', 00H, 'l', 00H, 'o', 00H, 'c', 00H, 'a', 00H, 't', 00H
	DB	'o', 00H, 'r', 00H, '<', 00H, 'i', 00H, 'n', 00H, 't', 00H, '>'
	DB	00H, ' ', 00H, '>', 00H, ':', 00H, ':', 00H, 'p', 00H, 'o', 00H
	DB	'p', 00H, '_', 00H, 'b', 00H, 'a', 00H, 'c', 00H, 'k', 00H, 00H
	DB	00H						; `string'
CONST	ENDS
;	COMDAT ??_C@_1EA@EELNAHHD@?$AA?$CC?$AAf?$AAr?$AAo?$AAn?$AAt?$AA?$CI?$AA?$CJ?$AA?5?$AAc?$AAa?$AAl?$AAl?$AAe?$AAd@
CONST	SEGMENT
??_C@_1EA@EELNAHHD@?$AA?$CC?$AAf?$AAr?$AAo?$AAn?$AAt?$AA?$CI?$AA?$CJ?$AA?5?$AAc?$AAa?$AAl?$AAl?$AAe?$AAd@ DB '"'
	DB	00H, 'f', 00H, 'r', 00H, 'o', 00H, 'n', 00H, 't', 00H, '(', 00H
	DB	')', 00H, ' ', 00H, 'c', 00H, 'a', 00H, 'l', 00H, 'l', 00H, 'e'
	DB	00H, 'd', 00H, ' ', 00H, 'o', 00H, 'n', 00H, ' ', 00H, 'e', 00H
	DB	'm', 00H, 'p', 00H, 't', 00H, 'y', 00H, ' ', 00H, 'd', 00H, 'e'
	DB	00H, 'q', 00H, 'u', 00H, 'e', 00H, '"', 00H, 00H, 00H ; `string'
CONST	ENDS
;	COMDAT ??_C@_1GE@NOEMPIO@?$AAs?$AAt?$AAd?$AA?3?$AA?3?$AAd?$AAe?$AAq?$AAu?$AAe?$AA?$DM?$AAi?$AAn?$AAt?$AA?0@
CONST	SEGMENT
??_C@_1GE@NOEMPIO@?$AAs?$AAt?$AAd?$AA?3?$AA?3?$AAd?$AAe?$AAq?$AAu?$AAe?$AA?$DM?$AAi?$AAn?$AAt?$AA?0@ DB 's'
	DB	00H, 't', 00H, 'd', 00H, ':', 00H, ':', 00H, 'd', 00H, 'e', 00H
	DB	'q', 00H, 'u', 00H, 'e', 00H, '<', 00H, 'i', 00H, 'n', 00H, 't'
	DB	00H, ',', 00H, 'c', 00H, 'l', 00H, 'a', 00H, 's', 00H, 's', 00H
	DB	' ', 00H, 's', 00H, 't', 00H, 'd', 00H, ':', 00H, ':', 00H, 'a'
	DB	00H, 'l', 00H, 'l', 00H, 'o', 00H, 'c', 00H, 'a', 00H, 't', 00H
	DB	'o', 00H, 'r', 00H, '<', 00H, 'i', 00H, 'n', 00H, 't', 00H, '>'
	DB	00H, ' ', 00H, '>', 00H, ':', 00H, ':', 00H, 'f', 00H, 'r', 00H
	DB	'o', 00H, 'n', 00H, 't', 00H, 00H, 00H	; `string'
CONST	ENDS
;	COMDAT ??_C@_0BO@PEOHNLIM@front?$CI?$CJ?5called?5on?5empty?5deque@
CONST	SEGMENT
??_C@_0BO@PEOHNLIM@front?$CI?$CJ?5called?5on?5empty?5deque@ DB 'front() c'
	DB	'alled on empty deque', 00H			; `string'
CONST	ENDS
;	COMDAT ??_C@_1DC@NJAACHCD@?$AA?$CC?$AAd?$AAe?$AAq?$AAu?$AAe?$AA?5?$AAe?$AAm?$AAp?$AAt?$AAy?$AA?5?$AAb?$AAe@
CONST	SEGMENT
??_C@_1DC@NJAACHCD@?$AA?$CC?$AAd?$AAe?$AAq?$AAu?$AAe?$AA?5?$AAe?$AAm?$AAp?$AAt?$AAy?$AA?5?$AAb?$AAe@ DB '"'
	DB	00H, 'd', 00H, 'e', 00H, 'q', 00H, 'u', 00H, 'e', 00H, ' ', 00H
	DB	'e', 00H, 'm', 00H, 'p', 00H, 't', 00H, 'y', 00H, ' ', 00H, 'b'
	DB	00H, 'e', 00H, 'f', 00H, 'o', 00H, 'r', 00H, 'e', 00H, ' ', 00H
	DB	'p', 00H, 'o', 00H, 'p', 00H, '"', 00H, 00H, 00H ; `string'
CONST	ENDS
;	COMDAT ??_C@_1GM@CDKPHBPK@?$AAs?$AAt?$AAd?$AA?3?$AA?3?$AAd?$AAe?$AAq?$AAu?$AAe?$AA?$DM?$AAi?$AAn?$AAt?$AA?0@
CONST	SEGMENT
??_C@_1GM@CDKPHBPK@?$AAs?$AAt?$AAd?$AA?3?$AA?3?$AAd?$AAe?$AAq?$AAu?$AAe?$AA?$DM?$AAi?$AAn?$AAt?$AA?0@ DB 's'
	DB	00H, 't', 00H, 'd', 00H, ':', 00H, ':', 00H, 'd', 00H, 'e', 00H
	DB	'q', 00H, 'u', 00H, 'e', 00H, '<', 00H, 'i', 00H, 'n', 00H, 't'
	DB	00H, ',', 00H, 'c', 00H, 'l', 00H, 'a', 00H, 's', 00H, 's', 00H
	DB	' ', 00H, 's', 00H, 't', 00H, 'd', 00H, ':', 00H, ':', 00H, 'a'
	DB	00H, 'l', 00H, 'l', 00H, 'o', 00H, 'c', 00H, 'a', 00H, 't', 00H
	DB	'o', 00H, 'r', 00H, '<', 00H, 'i', 00H, 'n', 00H, 't', 00H, '>'
	DB	00H, ' ', 00H, '>', 00H, ':', 00H, ':', 00H, 'p', 00H, 'o', 00H
	DB	'p', 00H, '_', 00H, 'f', 00H, 'r', 00H, 'o', 00H, 'n', 00H, 't'
	DB	00H, 00H, 00H				; `string'
CONST	ENDS
;	COMDAT ??_C@_1MM@DPCANHAJ@?$AAC?$AA?3?$AA?2?$AAP?$AAr?$AAo?$AAg?$AAr?$AAa?$AAm?$AA?5?$AAF?$AAi?$AAl?$AAe@
CONST	SEGMENT
??_C@_1MM@DPCANHAJ@?$AAC?$AA?3?$AA?2?$AAP?$AAr?$AAo?$AAg?$AAr?$AAa?$AAm?$AA?5?$AAF?$AAi?$AAl?$AAe@ DB 'C'
	DB	00H, ':', 00H, '\', 00H, 'P', 00H, 'r', 00H, 'o', 00H, 'g', 00H
	DB	'r', 00H, 'a', 00H, 'm', 00H, ' ', 00H, 'F', 00H, 'i', 00H, 'l'
	DB	00H, 'e', 00H, 's', 00H, ' ', 00H, '(', 00H, 'x', 00H, '8', 00H
	DB	'6', 00H, ')', 00H, '\', 00H, 'M', 00H, 'i', 00H, 'c', 00H, 'r'
	DB	00H, 'o', 00H, 's', 00H, 'o', 00H, 'f', 00H, 't', 00H, ' ', 00H
	DB	'V', 00H, 'i', 00H, 's', 00H, 'u', 00H, 'a', 00H, 'l', 00H, ' '
	DB	00H, 'S', 00H, 't', 00H, 'u', 00H, 'd', 00H, 'i', 00H, 'o', 00H
	DB	'\', 00H, '2', 00H, '0', 00H, '1', 00H, '9', 00H, '\', 00H, 'C'
	DB	00H, 'o', 00H, 'm', 00H, 'm', 00H, 'u', 00H, 'n', 00H, 'i', 00H
	DB	't', 00H, 'y', 00H, '\', 00H, 'V', 00H, 'C', 00H, '\', 00H, 'T'
	DB	00H, 'o', 00H, 'o', 00H, 'l', 00H, 's', 00H, '\', 00H, 'M', 00H
	DB	'S', 00H, 'V', 00H, 'C', 00H, '\', 00H, '1', 00H, '4', 00H, '.'
	DB	00H, '2', 00H, '9', 00H, '.', 00H, '3', 00H, '0', 00H, '0', 00H
	DB	'3', 00H, '7', 00H, '\', 00H, 'i', 00H, 'n', 00H, 'c', 00H, 'l'
	DB	00H, 'u', 00H, 'd', 00H, 'e', 00H, '\', 00H, 'd', 00H, 'e', 00H
	DB	'q', 00H, 'u', 00H, 'e', 00H, 00H, 00H	; `string'
CONST	ENDS
;	COMDAT ??_C@_0GG@FDHPMGE@C?3?2Program?5Files?5?$CIx86?$CJ?2Microsof@
CONST	SEGMENT
??_C@_0GG@FDHPMGE@C?3?2Program?5Files?5?$CIx86?$CJ?2Microsof@ DB 'C:\Prog'
	DB	'ram Files (x86)\Microsoft Visual Studio\2019\Community\VC\Too'
	DB	'ls\MSVC\14.29.30037\include\deque', 00H	; `string'
CONST	ENDS
;	COMDAT ??_C@_0BH@EDKEEENI@deque?5empty?5before?5pop@
CONST	SEGMENT
??_C@_0BH@EDKEEENI@deque?5empty?5before?5pop@ DB 'deque empty before pop', 00H ; `string'
CONST	ENDS
;	COMDAT ??_C@_1LO@NPPEKPAI@?$AAs?$AAt?$AAd?$AA?3?$AA?3?$AAb?$AAa?$AAs?$AAi?$AAc?$AA_?$AAs?$AAt?$AAr?$AAi@
CONST	SEGMENT
??_C@_1LO@NPPEKPAI@?$AAs?$AAt?$AAd?$AA?3?$AA?3?$AAb?$AAa?$AAs?$AAi?$AAc?$AA_?$AAs?$AAt?$AAr?$AAi@ DB 's'
	DB	00H, 't', 00H, 'd', 00H, ':', 00H, ':', 00H, 'b', 00H, 'a', 00H
	DB	's', 00H, 'i', 00H, 'c', 00H, '_', 00H, 's', 00H, 't', 00H, 'r'
	DB	00H, 'i', 00H, 'n', 00H, 'g', 00H, '<', 00H, 'c', 00H, 'h', 00H
	DB	'a', 00H, 'r', 00H, ',', 00H, 's', 00H, 't', 00H, 'r', 00H, 'u'
	DB	00H, 'c', 00H, 't', 00H, ' ', 00H, 's', 00H, 't', 00H, 'd', 00H
	DB	':', 00H, ':', 00H, 'c', 00H, 'h', 00H, 'a', 00H, 'r', 00H, '_'
	DB	00H, 't', 00H, 'r', 00H, 'a', 00H, 'i', 00H, 't', 00H, 's', 00H
	DB	'<', 00H, 'c', 00H, 'h', 00H, 'a', 00H, 'r', 00H, '>', 00H, ','
	DB	00H, 'c', 00H, 'l', 00H, 'a', 00H, 's', 00H, 's', 00H, ' ', 00H
	DB	's', 00H, 't', 00H, 'd', 00H, ':', 00H, ':', 00H, 'a', 00H, 'l'
	DB	00H, 'l', 00H, 'o', 00H, 'c', 00H, 'a', 00H, 't', 00H, 'o', 00H
	DB	'r', 00H, '<', 00H, 'c', 00H, 'h', 00H, 'a', 00H, 'r', 00H, '>'
	DB	00H, ' ', 00H, '>', 00H, ':', 00H, ':', 00H, 'o', 00H, 'p', 00H
	DB	'e', 00H, 'r', 00H, 'a', 00H, 't', 00H, 'o', 00H, 'r', 00H, ' '
	DB	00H, '[', 00H, ']', 00H, 00H, 00H		; `string'
CONST	ENDS
;	COMDAT ??_C@_1EA@OADAPGGK@?$AA?$CC?$AAs?$AAt?$AAr?$AAi?$AAn?$AAg?$AA?5?$AAs?$AAu?$AAb?$AAs?$AAc?$AAr?$AAi@
CONST	SEGMENT
??_C@_1EA@OADAPGGK@?$AA?$CC?$AAs?$AAt?$AAr?$AAi?$AAn?$AAg?$AA?5?$AAs?$AAu?$AAb?$AAs?$AAc?$AAr?$AAi@ DB '"'
	DB	00H, 's', 00H, 't', 00H, 'r', 00H, 'i', 00H, 'n', 00H, 'g', 00H
	DB	' ', 00H, 's', 00H, 'u', 00H, 'b', 00H, 's', 00H, 'c', 00H, 'r'
	DB	00H, 'i', 00H, 'p', 00H, 't', 00H, ' ', 00H, 'o', 00H, 'u', 00H
	DB	't', 00H, ' ', 00H, 'o', 00H, 'f', 00H, ' ', 00H, 'r', 00H, 'a'
	DB	00H, 'n', 00H, 'g', 00H, 'e', 00H, '"', 00H, 00H, 00H ; `string'
CONST	ENDS
;	COMDAT ??_C@_1NA@LAIGCHJK@?$AAC?$AA?3?$AA?2?$AAP?$AAr?$AAo?$AAg?$AAr?$AAa?$AAm?$AA?5?$AAF?$AAi?$AAl?$AAe@
CONST	SEGMENT
??_C@_1NA@LAIGCHJK@?$AAC?$AA?3?$AA?2?$AAP?$AAr?$AAo?$AAg?$AAr?$AAa?$AAm?$AA?5?$AAF?$AAi?$AAl?$AAe@ DB 'C'
	DB	00H, ':', 00H, '\', 00H, 'P', 00H, 'r', 00H, 'o', 00H, 'g', 00H
	DB	'r', 00H, 'a', 00H, 'm', 00H, ' ', 00H, 'F', 00H, 'i', 00H, 'l'
	DB	00H, 'e', 00H, 's', 00H, ' ', 00H, '(', 00H, 'x', 00H, '8', 00H
	DB	'6', 00H, ')', 00H, '\', 00H, 'M', 00H, 'i', 00H, 'c', 00H, 'r'
	DB	00H, 'o', 00H, 's', 00H, 'o', 00H, 'f', 00H, 't', 00H, ' ', 00H
	DB	'V', 00H, 'i', 00H, 's', 00H, 'u', 00H, 'a', 00H, 'l', 00H, ' '
	DB	00H, 'S', 00H, 't', 00H, 'u', 00H, 'd', 00H, 'i', 00H, 'o', 00H
	DB	'\', 00H, '2', 00H, '0', 00H, '1', 00H, '9', 00H, '\', 00H, 'C'
	DB	00H, 'o', 00H, 'm', 00H, 'm', 00H, 'u', 00H, 'n', 00H, 'i', 00H
	DB	't', 00H, 'y', 00H, '\', 00H, 'V', 00H, 'C', 00H, '\', 00H, 'T'
	DB	00H, 'o', 00H, 'o', 00H, 'l', 00H, 's', 00H, '\', 00H, 'M', 00H
	DB	'S', 00H, 'V', 00H, 'C', 00H, '\', 00H, '1', 00H, '4', 00H, '.'
	DB	00H, '2', 00H, '9', 00H, '.', 00H, '3', 00H, '0', 00H, '0', 00H
	DB	'3', 00H, '7', 00H, '\', 00H, 'i', 00H, 'n', 00H, 'c', 00H, 'l'
	DB	00H, 'u', 00H, 'd', 00H, 'e', 00H, '\', 00H, 'x', 00H, 's', 00H
	DB	't', 00H, 'r', 00H, 'i', 00H, 'n', 00H, 'g', 00H, 00H, 00H ; `string'
CONST	ENDS
;	COMDAT ??_C@_0GI@FKEOHBGC@C?3?2Program?5Files?5?$CIx86?$CJ?2Microsof@
CONST	SEGMENT
??_C@_0GI@FKEOHBGC@C?3?2Program?5Files?5?$CIx86?$CJ?2Microsof@ DB 'C:\Pro'
	DB	'gram Files (x86)\Microsoft Visual Studio\2019\Community\VC\To'
	DB	'ols\MSVC\14.29.30037\include\xstring', 00H	; `string'
CONST	ENDS
;	COMDAT ??_C@_0BO@LFGPDMIB@string?5subscript?5out?5of?5range@
CONST	SEGMENT
??_C@_0BO@LFGPDMIB@string?5subscript?5out?5of?5range@ DB 'string subscrip'
	DB	't out of range', 00H			; `string'
CONST	ENDS
;	COMDAT ??_C@_0BA@JFNIOLAK@string?5too?5long@
CONST	SEGMENT
??_C@_0BA@JFNIOLAK@string?5too?5long@ DB 'string too long', 00H ; `string'
CONST	ENDS
;	COMDAT ??_C@_1CG@JNLFBNGN@?$AA?$CC?$AAi?$AAn?$AAv?$AAa?$AAl?$AAi?$AAd?$AA?5?$AAa?$AAr?$AAg?$AAu?$AAm?$AAe@
CONST	SEGMENT
??_C@_1CG@JNLFBNGN@?$AA?$CC?$AAi?$AAn?$AAv?$AAa?$AAl?$AAi?$AAd?$AA?5?$AAa?$AAr?$AAg?$AAu?$AAm?$AAe@ DB '"'
	DB	00H, 'i', 00H, 'n', 00H, 'v', 00H, 'a', 00H, 'l', 00H, 'i', 00H
	DB	'd', 00H, ' ', 00H, 'a', 00H, 'r', 00H, 'g', 00H, 'u', 00H, 'm'
	DB	00H, 'e', 00H, 'n', 00H, 't', 00H, '"', 00H, 00H, 00H ; `string'
CONST	ENDS
;	COMDAT ??_C@_1EK@NIFDJFDG@?$AAs?$AAt?$AAd?$AA?3?$AA?3?$AA_?$AAA?$AAd?$AAj?$AAu?$AAs?$AAt?$AA_?$AAm?$AAa@
CONST	SEGMENT
??_C@_1EK@NIFDJFDG@?$AAs?$AAt?$AAd?$AA?3?$AA?3?$AA_?$AAA?$AAd?$AAj?$AAu?$AAs?$AAt?$AA_?$AAm?$AAa@ DB 's'
	DB	00H, 't', 00H, 'd', 00H, ':', 00H, ':', 00H, '_', 00H, 'A', 00H
	DB	'd', 00H, 'j', 00H, 'u', 00H, 's', 00H, 't', 00H, '_', 00H, 'm'
	DB	00H, 'a', 00H, 'n', 00H, 'u', 00H, 'a', 00H, 'l', 00H, 'l', 00H
	DB	'y', 00H, '_', 00H, 'v', 00H, 'e', 00H, 'c', 00H, 't', 00H, 'o'
	DB	00H, 'r', 00H, '_', 00H, 'a', 00H, 'l', 00H, 'i', 00H, 'g', 00H
	DB	'n', 00H, 'e', 00H, 'd', 00H, 00H, 00H	; `string'
CONST	ENDS
;	COMDAT ??_C@_1NA@FOAKNOEL@?$AAC?$AA?3?$AA?2?$AAP?$AAr?$AAo?$AAg?$AAr?$AAa?$AAm?$AA?5?$AAF?$AAi?$AAl?$AAe@
CONST	SEGMENT
??_C@_1NA@FOAKNOEL@?$AAC?$AA?3?$AA?2?$AAP?$AAr?$AAo?$AAg?$AAr?$AAa?$AAm?$AA?5?$AAF?$AAi?$AAl?$AAe@ DB 'C'
	DB	00H, ':', 00H, '\', 00H, 'P', 00H, 'r', 00H, 'o', 00H, 'g', 00H
	DB	'r', 00H, 'a', 00H, 'm', 00H, ' ', 00H, 'F', 00H, 'i', 00H, 'l'
	DB	00H, 'e', 00H, 's', 00H, ' ', 00H, '(', 00H, 'x', 00H, '8', 00H
	DB	'6', 00H, ')', 00H, '\', 00H, 'M', 00H, 'i', 00H, 'c', 00H, 'r'
	DB	00H, 'o', 00H, 's', 00H, 'o', 00H, 'f', 00H, 't', 00H, ' ', 00H
	DB	'V', 00H, 'i', 00H, 's', 00H, 'u', 00H, 'a', 00H, 'l', 00H, ' '
	DB	00H, 'S', 00H, 't', 00H, 'u', 00H, 'd', 00H, 'i', 00H, 'o', 00H
	DB	'\', 00H, '2', 00H, '0', 00H, '1', 00H, '9', 00H, '\', 00H, 'C'
	DB	00H, 'o', 00H, 'm', 00H, 'm', 00H, 'u', 00H, 'n', 00H, 'i', 00H
	DB	't', 00H, 'y', 00H, '\', 00H, 'V', 00H, 'C', 00H, '\', 00H, 'T'
	DB	00H, 'o', 00H, 'o', 00H, 'l', 00H, 's', 00H, '\', 00H, 'M', 00H
	DB	'S', 00H, 'V', 00H, 'C', 00H, '\', 00H, '1', 00H, '4', 00H, '.'
	DB	00H, '2', 00H, '9', 00H, '.', 00H, '3', 00H, '0', 00H, '0', 00H
	DB	'3', 00H, '7', 00H, '\', 00H, 'i', 00H, 'n', 00H, 'c', 00H, 'l'
	DB	00H, 'u', 00H, 'd', 00H, 'e', 00H, '\', 00H, 'x', 00H, 'm', 00H
	DB	'e', 00H, 'm', 00H, 'o', 00H, 'r', 00H, 'y', 00H, 00H, 00H ; `string'
CONST	ENDS
;	COMDAT ??_C@_0GI@KDIDHNIL@C?3?2Program?5Files?5?$CIx86?$CJ?2Microsof@
CONST	SEGMENT
??_C@_0GI@KDIDHNIL@C?3?2Program?5Files?5?$CIx86?$CJ?2Microsof@ DB 'C:\Pro'
	DB	'gram Files (x86)\Microsoft Visual Studio\2019\Community\VC\To'
	DB	'ols\MSVC\14.29.30037\include\xmemory', 00H	; `string'
CONST	ENDS
;	COMDAT ??_C@_02DKCKIIND@?$CFs@
CONST	SEGMENT
??_C@_02DKCKIIND@?$CFs@ DB '%s', 00H			; `string'
CONST	ENDS
;	COMDAT ??_C@_0BB@FCMFBGOM@invalid?5argument@
CONST	SEGMENT
??_C@_0BB@FCMFBGOM@invalid?5argument@ DB 'invalid argument', 00H ; `string'
CONST	ENDS
;	COMDAT _CT??_R0?AVexception@std@@@8??0exception@std@@QEAA@AEBV01@@Z24
xdata$x	SEGMENT
_CT??_R0?AVexception@std@@@8??0exception@std@@QEAA@AEBV01@@Z24 DD 00H
	DD	imagerel ??_R0?AVexception@std@@@8
	DD	00H
	DD	0ffffffffH
	ORG $+4
	DD	018H
	DD	imagerel ??0exception@std@@QEAA@AEBV01@@Z
xdata$x	ENDS
;	COMDAT ??_R0?AVexception@std@@@8
data$r	SEGMENT
??_R0?AVexception@std@@@8 DQ FLAT:??_7type_info@@6B@	; std::exception `RTTI Type Descriptor'
	DQ	0000000000000000H
	DB	'.?AVexception@std@@', 00H
data$r	ENDS
;	COMDAT _CT??_R0?AVbad_alloc@std@@@8??0bad_alloc@std@@QEAA@AEBV01@@Z24
xdata$x	SEGMENT
_CT??_R0?AVbad_alloc@std@@@8??0bad_alloc@std@@QEAA@AEBV01@@Z24 DD 010H
	DD	imagerel ??_R0?AVbad_alloc@std@@@8
	DD	00H
	DD	0ffffffffH
	ORG $+4
	DD	018H
	DD	imagerel ??0bad_alloc@std@@QEAA@AEBV01@@Z
xdata$x	ENDS
;	COMDAT ??_R0?AVbad_alloc@std@@@8
data$r	SEGMENT
??_R0?AVbad_alloc@std@@@8 DQ FLAT:??_7type_info@@6B@	; std::bad_alloc `RTTI Type Descriptor'
	DQ	0000000000000000H
	DB	'.?AVbad_alloc@std@@', 00H
data$r	ENDS
;	COMDAT _CT??_R0?AVbad_array_new_length@std@@@8??0bad_array_new_length@std@@QEAA@AEBV01@@Z24
xdata$x	SEGMENT
_CT??_R0?AVbad_array_new_length@std@@@8??0bad_array_new_length@std@@QEAA@AEBV01@@Z24 DD 00H
	DD	imagerel ??_R0?AVbad_array_new_length@std@@@8
	DD	00H
	DD	0ffffffffH
	ORG $+4
	DD	018H
	DD	imagerel ??0bad_array_new_length@std@@QEAA@AEBV01@@Z
xdata$x	ENDS
;	COMDAT ??_R0?AVbad_array_new_length@std@@@8
data$r	SEGMENT
??_R0?AVbad_array_new_length@std@@@8 DQ FLAT:??_7type_info@@6B@ ; std::bad_array_new_length `RTTI Type Descriptor'
	DQ	0000000000000000H
	DB	'.?AVbad_array_new_length@std@@', 00H
data$r	ENDS
;	COMDAT _CTA3?AVbad_array_new_length@std@@
xdata$x	SEGMENT
_CTA3?AVbad_array_new_length@std@@ DD 03H
	DD	imagerel _CT??_R0?AVbad_array_new_length@std@@@8??0bad_array_new_length@std@@QEAA@AEBV01@@Z24
	DD	imagerel _CT??_R0?AVbad_alloc@std@@@8??0bad_alloc@std@@QEAA@AEBV01@@Z24
	DD	imagerel _CT??_R0?AVexception@std@@@8??0exception@std@@QEAA@AEBV01@@Z24
xdata$x	ENDS
;	COMDAT _TI3?AVbad_array_new_length@std@@
xdata$x	SEGMENT
_TI3?AVbad_array_new_length@std@@ DD 00H
	DD	imagerel ??1bad_array_new_length@std@@UEAA@XZ
	DD	00H
	DD	imagerel _CTA3?AVbad_array_new_length@std@@
xdata$x	ENDS
;	COMDAT ??_C@_0BF@KINCDENJ@bad?5array?5new?5length@
CONST	SEGMENT
??_C@_0BF@KINCDENJ@bad?5array?5new?5length@ DB 'bad array new length', 00H ; `string'
CONST	ENDS
;	COMDAT ??_7bad_array_new_length@std@@6B@
CONST	SEGMENT
??_7bad_array_new_length@std@@6B@ DQ FLAT:??_R4bad_array_new_length@std@@6B@ ; std::bad_array_new_length::`vftable'
	DQ	FLAT:??_Ebad_array_new_length@std@@UEAAPEAXI@Z
	DQ	FLAT:?what@exception@std@@UEBAPEBDXZ
CONST	ENDS
;	COMDAT ??_7bad_alloc@std@@6B@
CONST	SEGMENT
??_7bad_alloc@std@@6B@ DQ FLAT:??_R4bad_alloc@std@@6B@	; std::bad_alloc::`vftable'
	DQ	FLAT:??_Ebad_alloc@std@@UEAAPEAXI@Z
	DQ	FLAT:?what@exception@std@@UEBAPEBDXZ
CONST	ENDS
;	COMDAT ??_C@_0BC@EOODALEL@Unknown?5exception@
CONST	SEGMENT
??_C@_0BC@EOODALEL@Unknown?5exception@ DB 'Unknown exception', 00H ; `string'
CONST	ENDS
;	COMDAT ??_7exception@std@@6B@
CONST	SEGMENT
??_7exception@std@@6B@ DQ FLAT:??_R4exception@std@@6B@	; std::exception::`vftable'
	DQ	FLAT:??_Eexception@std@@UEAAPEAXI@Z
	DQ	FLAT:?what@exception@std@@UEBAPEBDXZ
CONST	ENDS
;	COMDAT xdata
xdata	SEGMENT
$unwind$??$_Voidify_iter@PEAPEAH@std@@YAPEAXPEAPEAH@Z DD 010601H
	DD	07006H
xdata	ENDS
;	COMDAT xdata
xdata	SEGMENT
$unwind$??$addressof@PEAH@std@@YAPEAPEAHAEAPEAH@Z DD 010601H
	DD	07006H
xdata	ENDS
;	COMDAT xdata
xdata	SEGMENT
$unwind$??$_Construct_in_place@PEAHAEAPEAH@std@@YAXAEAPEAH0@Z DD 020f01H
	DD	0700b520fH
xdata	ENDS
;	COMDAT xdata
xdata	SEGMENT
$unwind$??$forward@AEAPEAH@std@@YAAEAPEAHAEAPEAH@Z DD 010601H
	DD	07006H
xdata	ENDS
;	COMDAT xdata
xdata	SEGMENT
$unwind$??$_To_address@PEAPEAH@std@@YA?A_PAEBQEAPEAH@Z DD 010601H
	DD	07006H
xdata	ENDS
;	COMDAT xdata
xdata	SEGMENT
$unwind$??$forward@PEAPEAH@std@@YA$$QEAPEAPEAHAEAPEAPEAH@Z DD 010601H
	DD	07006H
xdata	ENDS
;	COMDAT xdata
xdata	SEGMENT
$unwind$??$_Emplace_back@AEAPEAH@?$_Uninitialized_backout@PEAPEAH@std@@QEAAXAEAPEAH@Z DD 020f01H
	DD	0700b320fH
xdata	ENDS
;	COMDAT xdata
xdata	SEGMENT
$unwind$?_Release@?$_Uninitialized_backout@PEAPEAH@std@@QEAAPEAPEAHXZ DD 010601H
	DD	07006H
xdata	ENDS
;	COMDAT xdata
xdata	SEGMENT
$unwind$??1?$_Uninitialized_backout@PEAPEAH@std@@QEAA@XZ DD 020a01H
	DD	07006320aH
xdata	ENDS
;	COMDAT xdata
xdata	SEGMENT
$unwind$??0?$_Uninitialized_backout@PEAPEAH@std@@QEAA@PEAPEAH@Z DD 010b01H
	DD	0700bH
xdata	ENDS
;	COMDAT xdata
xdata	SEGMENT
$unwind$??$_Copy_memmove@PEAPEAHPEAPEAH@std@@YAPEAPEAHPEAPEAH00@Z DD 021401H
	DD	07010b214H
xdata	ENDS
;	COMDAT xdata
xdata	SEGMENT
$unwind$??$_Verify_range@PEAH@std@@YAXQEBQEAH0@Z DD 020f01H
	DD	0700b520fH
xdata	ENDS
;	COMDAT xdata
xdata	SEGMENT
$unwind$??$_Zero_range@PEAPEAH@std@@YAPEAPEAHQEAPEAH0@Z DD 020f01H
	DD	0700b520fH
xdata	ENDS
;	COMDAT xdata
xdata	SEGMENT
$unwind$??$_Seek_wrapped@PEAPEAHPEAPEAH@std@@YAXAEAPEAPEAH$$QEAPEAPEAH@Z DD 020f01H
	DD	0700b320fH
xdata	ENDS
;	COMDAT voltbl
voltbl	SEGMENT
_volmd	DB	00H
	DB	05H
voltbl	ENDS
;	COMDAT xdata
xdata	SEGMENT
$unwind$?dtor$0@?0???$_Uninitialized_copy_unchecked@PEAPEAHPEAPEAH@std@@YAPEAPEAHPEAPEAHQEAPEAH0@Z@4HA DD 031001H
	DD	0700c4210H
	DD	0500bH
xdata	ENDS
;	COMDAT xdata
xdata	SEGMENT
$ip2state$??$_Uninitialized_copy_unchecked@PEAPEAHPEAPEAH@std@@YAPEAPEAHPEAPEAHQEAPEAH0@Z DB 02H
	DB	00H
	DB	00H
xdata	ENDS
;	COMDAT xdata
xdata	SEGMENT
$stateUnwindMap$??$_Uninitialized_copy_unchecked@PEAPEAHPEAPEAH@std@@YAPEAPEAHPEAPEAHQEAPEAH0@Z DB 02H
	DB	0eH
	DD	imagerel ?dtor$0@?0???$_Uninitialized_copy_unchecked@PEAPEAHPEAPEAH@std@@YAPEAPEAHPEAPEAHQEAPEAH0@Z@4HA
xdata	ENDS
;	COMDAT xdata
xdata	SEGMENT
$cppxdata$??$_Uninitialized_copy_unchecked@PEAPEAHPEAPEAH@std@@YAPEAPEAHPEAPEAHQEAPEAH0@Z DB 028H
	DD	imagerel $stateUnwindMap$??$_Uninitialized_copy_unchecked@PEAPEAHPEAPEAH@std@@YAPEAPEAHPEAPEAHQEAPEAH0@Z
	DD	imagerel $ip2state$??$_Uninitialized_copy_unchecked@PEAPEAHPEAPEAH@std@@YAPEAPEAHPEAPEAHQEAPEAH0@Z
xdata	ENDS
;	COMDAT xdata
xdata	SEGMENT
$unwind$??$_Uninitialized_copy_unchecked@PEAPEAHPEAPEAH@std@@YAPEAPEAHPEAPEAHQEAPEAH0@Z DD 022a11H
	DD	070109214H
	DD	imagerel __CxxFrameHandler4
	DD	imagerel $cppxdata$??$_Uninitialized_copy_unchecked@PEAPEAHPEAPEAH@std@@YAPEAPEAHPEAPEAHQEAPEAH0@Z
xdata	ENDS
;	COMDAT CONST
CONST	SEGMENT
??$_Uninitialized_copy_unchecked@PEAPEAHPEAPEAH@std@@YAPEAPEAHPEAPEAHQEAPEAH0@Z$rtcName$0 DB 05fH ; std::_Uninitialized_copy_unchecked<int * *,int * *>
	DB	042H
	DB	061H
	DB	063H
	DB	06bH
	DB	06fH
	DB	075H
	DB	074H
	DB	00H
	ORG $+7
??$_Uninitialized_copy_unchecked@PEAPEAHPEAPEAH@std@@YAPEAPEAHPEAPEAHQEAPEAH0@Z$rtcVarDesc DD 028H ; std::_Uninitialized_copy_unchecked<int * *,int * *>
	DD	010H
	DQ	FLAT:??$_Uninitialized_copy_unchecked@PEAPEAHPEAPEAH@std@@YAPEAPEAHPEAPEAHQEAPEAH0@Z$rtcName$0
	ORG $+48
??$_Uninitialized_copy_unchecked@PEAPEAHPEAPEAH@std@@YAPEAPEAHPEAPEAHQEAPEAH0@Z$rtcFrameData DD 01H ; std::_Uninitialized_copy_unchecked<int * *,int * *>
	DD	00H
	DQ	FLAT:??$_Uninitialized_copy_unchecked@PEAPEAHPEAPEAH@std@@YAPEAPEAHPEAPEAHQEAPEAH0@Z$rtcVarDesc
CONST	ENDS
;	COMDAT xdata
xdata	SEGMENT
$unwind$??$_Get_unwrapped_n@AEAPEAPEAH_J@std@@YA?A_TAEAPEAPEAH_J@Z DD 010b01H
	DD	0700bH
xdata	ENDS
;	COMDAT xdata
xdata	SEGMENT
$unwind$??$_Idl_distance@PEAPEAHPEAPEAH@std@@YA?A_PAEBQEAPEAH0@Z DD 010b01H
	DD	0700bH
xdata	ENDS
;	COMDAT xdata
xdata	SEGMENT
$unwind$??$_Get_unwrapped@AEBQEAPEAH@std@@YA?A_TAEBQEAPEAH@Z DD 010601H
	DD	07006H
xdata	ENDS
;	COMDAT xdata
xdata	SEGMENT
$unwind$??$_Adl_verify_range@PEAPEAHPEAPEAH@std@@YAXAEBQEAPEAH0@Z DD 020f01H
	DD	0700b320fH
xdata	ENDS
;	COMDAT xdata
xdata	SEGMENT
$unwind$??$_Voidify_iter@PEAH@std@@YAPEAXPEAH@Z DD 010601H
	DD	07006H
xdata	ENDS
;	COMDAT xdata
xdata	SEGMENT
$unwind$?deallocate@?$_Default_allocator_traits@V?$allocator@U_Container_proxy@std@@@std@@@std@@SAXAEAV?$allocator@U_Container_proxy@std@@@2@QEAU_Container_proxy@2@_K@Z DD 021401H
	DD	070103214H
xdata	ENDS
;	COMDAT xdata
xdata	SEGMENT
$unwind$??$_Get_size_of_n@$07@std@@YA_K_K@Z DD 020a01H
	DD	07006520aH
xdata	ENDS
;	COMDAT xdata
xdata	SEGMENT
$unwind$??$_Get_size_of_n@$03@std@@YA_K_K@Z DD 020a01H
	DD	07006520aH
xdata	ENDS
;	COMDAT xdata
xdata	SEGMENT
$unwind$??$_Destroy_range@PEAPEAHPEAPEAH@std@@YAXPEAPEAHQEAPEAH@Z DD 010b01H
	DD	0700bH
xdata	ENDS
;	COMDAT xdata
xdata	SEGMENT
$unwind$??$_Uninitialized_value_construct_n_unchecked1@PEAPEAH_K@std@@YAPEAPEAHPEAPEAH_K@Z DD 020f01H
	DD	0700b320fH
xdata	ENDS
;	COMDAT xdata
xdata	SEGMENT
$unwind$??$uninitialized_copy@PEAPEAHPEAPEAH@std@@YAPEAPEAHQEAPEAH0PEAPEAH@Z DD 022d01H
	DD	07010d214H
xdata	ENDS
;	COMDAT CONST
CONST	SEGMENT
??$uninitialized_copy@PEAPEAHPEAPEAH@std@@YAPEAPEAHQEAPEAH0PEAPEAH@Z$rtcName$0 DB 05fH ; std::uninitialized_copy<int * *,int * *>
	DB	055H
	DB	046H
	DB	069H
	DB	072H
	DB	073H
	DB	074H
	DB	00H
??$uninitialized_copy@PEAPEAHPEAPEAH@std@@YAPEAPEAHQEAPEAH0PEAPEAH@Z$rtcName$1 DB 05fH ; std::uninitialized_copy<int * *,int * *>
	DB	055H
	DB	04cH
	DB	061H
	DB	073H
	DB	074H
	DB	00H
	ORG $+1
??$uninitialized_copy@PEAPEAHPEAPEAH@std@@YAPEAPEAHQEAPEAH0PEAPEAH@Z$rtcVarDesc DD 048H ; std::uninitialized_copy<int * *,int * *>
	DD	08H
	DQ	FLAT:??$uninitialized_copy@PEAPEAHPEAPEAH@std@@YAPEAPEAHQEAPEAH0PEAPEAH@Z$rtcName$1
	DD	028H
	DD	08H
	DQ	FLAT:??$uninitialized_copy@PEAPEAHPEAPEAH@std@@YAPEAPEAHQEAPEAH0PEAPEAH@Z$rtcName$0
	ORG $+96
??$uninitialized_copy@PEAPEAHPEAPEAH@std@@YAPEAPEAHQEAPEAH0PEAPEAH@Z$rtcFrameData DD 02H ; std::uninitialized_copy<int * *,int * *>
	DD	00H
	DQ	FLAT:??$uninitialized_copy@PEAPEAHPEAPEAH@std@@YAPEAPEAHQEAPEAH0PEAPEAH@Z$rtcVarDesc
CONST	ENDS
;	COMDAT xdata
xdata	SEGMENT
$unwind$??$_Allocate_manually_vector_aligned@U_Default_allocate_traits@std@@@std@@YAPEAX_K@Z DD 020a01H
	DD	07006920aH
xdata	ENDS
;	COMDAT xdata
xdata	SEGMENT
$unwind$??$forward@AEBQEAD@std@@YAAEBQEADAEBQEAD@Z DD 010601H
	DD	07006H
xdata	ENDS
;	COMDAT xdata
xdata	SEGMENT
$unwind$??$_Voidify_iter@PEAPEAD@std@@YAPEAXPEAPEAD@Z DD 010601H
	DD	07006H
xdata	ENDS
;	COMDAT xdata
xdata	SEGMENT
$unwind$??$addressof@PEAD@std@@YAPEAPEADAEAPEAD@Z DD 010601H
	DD	07006H
xdata	ENDS
;	COMDAT xdata
xdata	SEGMENT
$unwind$??$construct@HAEBH@?$_Default_allocator_traits@V?$allocator@H@std@@@std@@SAXAEAV?$allocator@H@1@QEAHAEBH@Z DD 021401H
	DD	070105214H
xdata	ENDS
;	COMDAT xdata
xdata	SEGMENT
$unwind$??$forward@AEBH@std@@YAAEBHAEBH@Z DD 010601H
	DD	07006H
xdata	ENDS
;	COMDAT xdata
xdata	SEGMENT
$unwind$??$forward@PEAU_Container_base12@std@@@std@@YA$$QEAPEAU_Container_base12@0@AEAPEAU10@@Z DD 010601H
	DD	07006H
xdata	ENDS
;	COMDAT xdata
xdata	SEGMENT
$unwind$??$_Voidify_iter@PEAU_Container_proxy@std@@@std@@YAPEAXPEAU_Container_proxy@0@@Z DD 010601H
	DD	07006H
xdata	ENDS
;	COMDAT xdata
xdata	SEGMENT
$unwind$??$addressof@U_Container_proxy@std@@@std@@YAPEAU_Container_proxy@0@AEAU10@@Z DD 010601H
	DD	07006H
xdata	ENDS
;	COMDAT xdata
xdata	SEGMENT
$unwind$??$forward@V?$allocator@D@std@@@std@@YA$$QEAV?$allocator@D@0@AEAV10@@Z DD 010601H
	DD	07006H
xdata	ENDS
;	COMDAT xdata
xdata	SEGMENT
$ip2state$??$_Deallocate_plain@V?$allocator@U_Container_proxy@std@@@std@@@std@@YAXAEAV?$allocator@U_Container_proxy@std@@@0@QEAU_Container_proxy@0@@Z DB 02H
	DB	00H
	DB	00H
xdata	ENDS
;	COMDAT xdata
xdata	SEGMENT
$cppxdata$??$_Deallocate_plain@V?$allocator@U_Container_proxy@std@@@std@@@std@@YAXAEAV?$allocator@U_Container_proxy@std@@@0@QEAU_Container_proxy@0@@Z DB 060H
	DD	imagerel $ip2state$??$_Deallocate_plain@V?$allocator@U_Container_proxy@std@@@std@@@std@@YAXAEAV?$allocator@U_Container_proxy@std@@@0@QEAU_Container_proxy@0@@Z
xdata	ENDS
;	COMDAT xdata
xdata	SEGMENT
$unwind$??$_Deallocate_plain@V?$allocator@U_Container_proxy@std@@@std@@@std@@YAXAEAV?$allocator@U_Container_proxy@std@@@0@QEAU_Container_proxy@0@@Z DD 020f19H
	DD	0700b320fH
	DD	imagerel __CxxFrameHandler4
	DD	imagerel $cppxdata$??$_Deallocate_plain@V?$allocator@U_Container_proxy@std@@@std@@@std@@YAXAEAV?$allocator@U_Container_proxy@std@@@0@QEAU_Container_proxy@0@@Z
xdata	ENDS
;	COMDAT voltbl
voltbl	SEGMENT
_volmd	DB	00H
	DB	05H
voltbl	ENDS
;	COMDAT voltbl
voltbl	SEGMENT
_volmd	DB	00H
	DB	05H
voltbl	ENDS
;	COMDAT xdata
xdata	SEGMENT
$unwind$?catch$1@?0???$_Insert_string@DU?$char_traits@D@std@@_K@std@@YAAEAV?$basic_ostream@DU?$char_traits@D@std@@@0@AEAV10@QEBD_K@Z@4HA DD 031001H
	DD	0700c4210H
	DD	0500bH
xdata	ENDS
;	COMDAT xdata
xdata	SEGMENT
$unwind$?dtor$0@?0???$_Insert_string@DU?$char_traits@D@std@@_K@std@@YAAEAV?$basic_ostream@DU?$char_traits@D@std@@@0@AEAV10@QEBD_K@Z@4HA DD 031001H
	DD	0700c4210H
	DD	0500bH
xdata	ENDS
;	COMDAT xdata
xdata	SEGMENT
$ip2state$??$_Insert_string@DU?$char_traits@D@std@@_K@std@@YAAEAV?$basic_ostream@DU?$char_traits@D@std@@@0@AEAV10@QEBD_K@Z DB 0aH
	DB	00H
	DB	00H
	DB	091H, 03H
	DB	02H
	DB	'B'
	DB	04H
	DB	0d1H, 09H
	DB	02H
	DB	'x'
	DB	00H
xdata	ENDS
;	COMDAT xdata
xdata	SEGMENT
$handlerMap$??$_Insert_string@DU?$char_traits@D@std@@_K@std@@YAAEAV?$basic_ostream@DU?$char_traits@D@std@@@0@AEAV10@QEBD_K@Z DB 02H
	DB	01H
	DB	080H
	DD	imagerel ?catch$1@?0???$_Insert_string@DU?$char_traits@D@std@@_K@std@@YAAEAV?$basic_ostream@DU?$char_traits@D@std@@@0@AEAV10@QEBD_K@Z@4HA
xdata	ENDS
;	COMDAT xdata
xdata	SEGMENT
$tryMap$??$_Insert_string@DU?$char_traits@D@std@@_K@std@@YAAEAV?$basic_ostream@DU?$char_traits@D@std@@@0@AEAV10@QEBD_K@Z DB 02H
	DB	02H
	DB	02H
	DB	04H
	DD	imagerel $handlerMap$??$_Insert_string@DU?$char_traits@D@std@@_K@std@@YAAEAV?$basic_ostream@DU?$char_traits@D@std@@@0@AEAV10@QEBD_K@Z
xdata	ENDS
;	COMDAT xdata
xdata	SEGMENT
$stateUnwindMap$??$_Insert_string@DU?$char_traits@D@std@@_K@std@@YAAEAV?$basic_ostream@DU?$char_traits@D@std@@@0@AEAV10@QEBD_K@Z DB 06H
	DB	0eH
	DD	imagerel ?dtor$0@?0???$_Insert_string@DU?$char_traits@D@std@@_K@std@@YAAEAV?$basic_ostream@DU?$char_traits@D@std@@@0@AEAV10@QEBD_K@Z@4HA
	DB	028H
	DB	030H
xdata	ENDS
;	COMDAT xdata
xdata	SEGMENT
$cppxdata$??$_Insert_string@DU?$char_traits@D@std@@_K@std@@YAAEAV?$basic_ostream@DU?$char_traits@D@std@@@0@AEAV10@QEBD_K@Z DB 038H
	DD	imagerel $stateUnwindMap$??$_Insert_string@DU?$char_traits@D@std@@_K@std@@YAAEAV?$basic_ostream@DU?$char_traits@D@std@@@0@AEAV10@QEBD_K@Z
	DD	imagerel $tryMap$??$_Insert_string@DU?$char_traits@D@std@@_K@std@@YAAEAV?$basic_ostream@DU?$char_traits@D@std@@@0@AEAV10@QEBD_K@Z
	DD	imagerel $ip2state$??$_Insert_string@DU?$char_traits@D@std@@_K@std@@YAAEAV?$basic_ostream@DU?$char_traits@D@std@@@0@AEAV10@QEBD_K@Z
xdata	ENDS
;	COMDAT xdata
xdata	SEGMENT
$unwind$??$_Insert_string@DU?$char_traits@D@std@@_K@std@@YAAEAV?$basic_ostream@DU?$char_traits@D@std@@@0@AEAV10@QEBD_K@Z DD 033019H
	DD	0160117H
	DD	07010H
	DD	imagerel __CxxFrameHandler4
	DD	imagerel $cppxdata$??$_Insert_string@DU?$char_traits@D@std@@_K@std@@YAAEAV?$basic_ostream@DU?$char_traits@D@std@@@0@AEAV10@QEBD_K@Z
xdata	ENDS
;	COMDAT CONST
CONST	SEGMENT
??$_Insert_string@DU?$char_traits@D@std@@_K@std@@YAAEAV?$basic_ostream@DU?$char_traits@D@std@@@0@AEAV10@QEBD_K@Z$rtcName$0 DB 05fH ; std::_Insert_string<char,std::char_traits<char>,unsigned __int64>
	DB	04fH
	DB	06bH
	DB	00H
	ORG $+12
??$_Insert_string@DU?$char_traits@D@std@@_K@std@@YAAEAV?$basic_ostream@DU?$char_traits@D@std@@@0@AEAV10@QEBD_K@Z$rtcVarDesc DD 038H ; std::_Insert_string<char,std::char_traits<char>,unsigned __int64>
	DD	010H
	DQ	FLAT:??$_Insert_string@DU?$char_traits@D@std@@_K@std@@YAAEAV?$basic_ostream@DU?$char_traits@D@std@@@0@AEAV10@QEBD_K@Z$rtcName$0
	ORG $+48
??$_Insert_string@DU?$char_traits@D@std@@_K@std@@YAAEAV?$basic_ostream@DU?$char_traits@D@std@@@0@AEAV10@QEBD_K@Z$rtcFrameData DD 01H ; std::_Insert_string<char,std::char_traits<char>,unsigned __int64>
	DD	00H
	DQ	FLAT:??$_Insert_string@DU?$char_traits@D@std@@_K@std@@YAAEAV?$basic_ostream@DU?$char_traits@D@std@@@0@AEAV10@QEBD_K@Z$rtcVarDesc
CONST	ENDS
;	COMDAT xdata
xdata	SEGMENT
$unwind$??$_Get_size_of_n@$00@std@@YA_K_K@Z DD 020a01H
	DD	07006120aH
xdata	ENDS
;	COMDAT xdata
xdata	SEGMENT
$ip2state$??$_Deallocate@$0BA@$0A@@std@@YAXPEAX_K@Z DB 02H
	DB	00H
	DB	00H
xdata	ENDS
;	COMDAT xdata
xdata	SEGMENT
$cppxdata$??$_Deallocate@$0BA@$0A@@std@@YAXPEAX_K@Z DB 060H
	DD	imagerel $ip2state$??$_Deallocate@$0BA@$0A@@std@@YAXPEAX_K@Z
xdata	ENDS
;	COMDAT xdata
xdata	SEGMENT
$unwind$??$_Deallocate@$0BA@$0A@@std@@YAXPEAX_K@Z DD 020f19H
	DD	0700b320fH
	DD	imagerel __CxxFrameHandler4
	DD	imagerel $cppxdata$??$_Deallocate@$0BA@$0A@@std@@YAXPEAX_K@Z
xdata	ENDS
;	COMDAT xdata
xdata	SEGMENT
$unwind$??$addressof@V?$_Deque_val@U?$_Deque_simple_types@H@std@@@std@@@std@@YAPEAV?$_Deque_val@U?$_Deque_simple_types@H@std@@@0@AEAV10@@Z DD 010601H
	DD	07006H
xdata	ENDS
;	COMDAT xdata
xdata	SEGMENT
$unwind$??$_Allocate@$0BA@U_Default_allocate_traits@std@@$0A@@std@@YAPEAX_K@Z DD 020a01H
	DD	07006320aH
xdata	ENDS
;	COMDAT xdata
xdata	SEGMENT
$unwind$??$_Get_size_of_n@$0BA@@std@@YA_K_K@Z DD 020a01H
	DD	07006520aH
xdata	ENDS
;	COMDAT xdata
xdata	SEGMENT
$unwind$??$max@_K@std@@YAAEB_KAEB_K0@Z DD 020f01H
	DD	0700b120fH
xdata	ENDS
;	COMDAT xdata
xdata	SEGMENT
$unwind$??$_Unfancy@D@std@@YAPEADPEAD@Z DD 010601H
	DD	07006H
xdata	ENDS
;	COMDAT xdata
xdata	SEGMENT
$unwind$??$_Construct_in_place@PEADAEBQEAD@std@@YAXAEAPEADAEBQEAD@Z DD 020f01H
	DD	0700b520fH
xdata	ENDS
;	COMDAT xdata
xdata	SEGMENT
$unwind$??$_Reallocate_for@V<lambda_66f57f934f28d61049862f64df852ff0>@@PEBD@?$basic_string@DU?$char_traits@D@std@@V?$allocator@D@2@@std@@AEAAAEAV01@_KV<lambda_66f57f934f28d61049862f64df852ff0>@@PEBD@Z DD 022f01H
	DD	07015b219H
xdata	ENDS
;	COMDAT CONST
CONST	SEGMENT
??$_Reallocate_for@V<lambda_66f57f934f28d61049862f64df852ff0>@@PEBD@?$basic_string@DU?$char_traits@D@std@@V?$allocator@D@2@@std@@AEAAAEAV01@_KV<lambda_66f57f934f28d61049862f64df852ff0>@@PEBD@Z$rtcName$0 DB 05fH ; std::basic_string<char,std::char_traits<char>,std::allocator<char> >::_Reallocate_for<<lambda_66f57f934f28d61049862f64df852ff0>,char const *>
	DB	04eH
	DB	065H
	DB	077H
	DB	05fH
	DB	070H
	DB	074H
	DB	072H
	DB	00H
	ORG $+7
??$_Reallocate_for@V<lambda_66f57f934f28d61049862f64df852ff0>@@PEBD@?$basic_string@DU?$char_traits@D@std@@V?$allocator@D@2@@std@@AEAAAEAV01@_KV<lambda_66f57f934f28d61049862f64df852ff0>@@PEBD@Z$rtcVarDesc DD 048H ; std::basic_string<char,std::char_traits<char>,std::allocator<char> >::_Reallocate_for<<lambda_66f57f934f28d61049862f64df852ff0>,char const *>
	DD	08H
	DQ	FLAT:??$_Reallocate_for@V<lambda_66f57f934f28d61049862f64df852ff0>@@PEBD@?$basic_string@DU?$char_traits@D@std@@V?$allocator@D@2@@std@@AEAAAEAV01@_KV<lambda_66f57f934f28d61049862f64df852ff0>@@PEBD@Z$rtcName$0
	ORG $+48
??$_Reallocate_for@V<lambda_66f57f934f28d61049862f64df852ff0>@@PEBD@?$basic_string@DU?$char_traits@D@std@@V?$allocator@D@2@@std@@AEAAAEAV01@_KV<lambda_66f57f934f28d61049862f64df852ff0>@@PEBD@Z$rtcFrameData DD 01H ; std::basic_string<char,std::char_traits<char>,std::allocator<char> >::_Reallocate_for<<lambda_66f57f934f28d61049862f64df852ff0>,char const *>
	DD	00H
	DQ	FLAT:??$_Reallocate_for@V<lambda_66f57f934f28d61049862f64df852ff0>@@PEBD@?$basic_string@DU?$char_traits@D@std@@V?$allocator@D@2@@std@@AEAAAEAV01@_KV<lambda_66f57f934f28d61049862f64df852ff0>@@PEBD@Z$rtcVarDesc
CONST	ENDS
;	COMDAT xdata
xdata	SEGMENT
$unwind$??R<lambda_66f57f934f28d61049862f64df852ff0>@@QEBA@QEAD_KQEBD@Z DD 021901H
	DD	070155219H
xdata	ENDS
;	COMDAT xdata
xdata	SEGMENT
$unwind$??$_Destroy_in_place@PEAD@std@@YAXAEAPEAD@Z DD 010601H
	DD	07006H
xdata	ENDS
;	COMDAT xdata
xdata	SEGMENT
$unwind$??0?$_Deque_unchecked_iterator@V?$_Deque_val@U?$_Deque_simple_types@H@std@@@std@@@std@@QEAA@_KPEBU_Container_base12@1@@Z DD 021401H
	DD	070103214H
xdata	ENDS
;	COMDAT xdata
xdata	SEGMENT
$unwind$??D?$_Deque_unchecked_iterator@V?$_Deque_val@U?$_Deque_simple_types@H@std@@@std@@@std@@QEBAAEAHXZ DD 020a01H
	DD	07006320aH
xdata	ENDS
;	COMDAT xdata
xdata	SEGMENT
$unwind$??D?$_Deque_unchecked_const_iterator@V?$_Deque_val@U?$_Deque_simple_types@H@std@@@std@@@std@@QEBAAEBHXZ DD 020a01H
	DD	07006520aH
xdata	ENDS
;	COMDAT xdata
xdata	SEGMENT
$unwind$??0?$_Deque_unchecked_const_iterator@V?$_Deque_val@U?$_Deque_simple_types@H@std@@@std@@@std@@QEAA@_KPEBU_Container_base12@1@@Z DD 011001H
	DD	07010H
xdata	ENDS
;	COMDAT xdata
xdata	SEGMENT
$unwind$??$destroy@H@?$_Default_allocator_traits@V?$allocator@H@std@@@std@@SAXAEAV?$allocator@H@1@QEAH@Z DD 010b01H
	DD	0700bH
xdata	ENDS
;	COMDAT xdata
xdata	SEGMENT
$unwind$??$_Unfancy@H@std@@YAPEAHPEAH@Z DD 010601H
	DD	07006H
xdata	ENDS
;	COMDAT xdata
xdata	SEGMENT
$unwind$??$_Emplace_back_internal@AEBH@?$deque@HV?$allocator@H@std@@@std@@AEAAXAEBH@Z DD 021201H
	DD	0700bf212H
xdata	ENDS
;	COMDAT xdata
xdata	SEGMENT
$unwind$??$_Destroy_in_place@PEAH@std@@YAXAEAPEAH@Z DD 010601H
	DD	07006H
xdata	ENDS
;	COMDAT xdata
xdata	SEGMENT
$unwind$??$?0H@?$allocator@PEAH@std@@QEAA@AEBV?$allocator@H@1@@Z DD 010b01H
	DD	0700bH
xdata	ENDS
;	COMDAT xdata
xdata	SEGMENT
$unwind$??$_Construct_in_place@U_Container_proxy@std@@PEAU_Container_base12@2@@std@@YAXAEAU_Container_proxy@0@$$QEAPEAU_Container_base12@0@@Z DD 020f01H
	DD	0700b520fH
xdata	ENDS
;	COMDAT xdata
xdata	SEGMENT
$unwind$??$addressof@U_Container_base12@std@@@std@@YAPEAU_Container_base12@0@AEAU10@@Z DD 010601H
	DD	07006H
xdata	ENDS
;	COMDAT xdata
xdata	SEGMENT
$unwind$??$_Unfancy@U_Container_proxy@std@@@std@@YAPEAU_Container_proxy@0@PEAU10@@Z DD 010601H
	DD	07006H
xdata	ENDS
;	COMDAT xdata
xdata	SEGMENT
$unwind$??$?0$$V@?$_Compressed_pair@V?$allocator@D@std@@V?$_String_val@U?$_Simple_types@D@std@@@2@$00@std@@QEAA@U_Zero_then_variadic_args_t@1@@Z DD 020e01H
	DD	0700a320eH
xdata	ENDS
;	COMDAT xdata
xdata	SEGMENT
$unwind$??$?0V?$allocator@D@std@@$$V@?$_Compressed_pair@V?$allocator@D@std@@V?$_String_val@U?$_Simple_types@D@std@@@2@$00@std@@QEAA@U_One_then_variadic_args_t@1@$$QEAV?$allocator@D@1@@Z DD 021301H
	DD	0700f3213H
xdata	ENDS
;	COMDAT xdata
xdata	SEGMENT
$unwind$??$?0D@?$allocator@U_Container_proxy@std@@@std@@QEAA@AEBV?$allocator@D@1@@Z DD 010b01H
	DD	0700bH
xdata	ENDS
;	COMDAT xdata
xdata	SEGMENT
$unwind$??1?$_Container_proxy_ptr12@V?$allocator@U_Container_proxy@std@@@std@@@std@@QEAA@XZ DD 020a01H
	DD	07006320aH
xdata	ENDS
;	COMDAT xdata
xdata	SEGMENT
$unwind$??0?$_Container_proxy_ptr12@V?$allocator@U_Container_proxy@std@@@std@@@std@@QEAA@AEAV?$allocator@U_Container_proxy@std@@@1@AEAU_Container_base12@1@@Z DD 021401H
	DD	070105214H
xdata	ENDS
;	COMDAT xdata
xdata	SEGMENT
$unwind$??$min@_K@std@@YAAEB_KAEB_K0@Z DD 020f01H
	DD	0700b120fH
xdata	ENDS
;	COMDAT xdata
xdata	SEGMENT
$unwind$??Bsentry@?$basic_ostream@DU?$char_traits@D@std@@@std@@QEBA_NXZ DD 010601H
	DD	07006H
xdata	ENDS
;	COMDAT xdata
xdata	SEGMENT
$ip2state$??1sentry@?$basic_ostream@DU?$char_traits@D@std@@@std@@QEAA@XZ DB 02H
	DB	00H
	DB	00H
xdata	ENDS
;	COMDAT xdata
xdata	SEGMENT
$cppxdata$??1sentry@?$basic_ostream@DU?$char_traits@D@std@@@std@@QEAA@XZ DB 060H
	DD	imagerel $ip2state$??1sentry@?$basic_ostream@DU?$char_traits@D@std@@@std@@QEAA@XZ
xdata	ENDS
;	COMDAT xdata
xdata	SEGMENT
$unwind$??1sentry@?$basic_ostream@DU?$char_traits@D@std@@@std@@QEAA@XZ DD 020a19H
	DD	07006520aH
	DD	imagerel __CxxFrameHandler4
	DD	imagerel $cppxdata$??1sentry@?$basic_ostream@DU?$char_traits@D@std@@@std@@QEAA@XZ
xdata	ENDS
;	COMDAT voltbl
voltbl	SEGMENT
_volmd	DB	00H
	DB	05H
voltbl	ENDS
;	COMDAT xdata
xdata	SEGMENT
$unwind$?dtor$0@?0???0sentry@?$basic_ostream@DU?$char_traits@D@std@@@std@@QEAA@AEAV12@@Z@4HA DD 031001H
	DD	0700c4210H
	DD	0500bH
xdata	ENDS
;	COMDAT xdata
xdata	SEGMENT
$ip2state$??0sentry@?$basic_ostream@DU?$char_traits@D@std@@@std@@QEAA@AEAV12@@Z DB 06H
	DB	00H
	DB	00H
	DB	'>'
	DB	02H
	DB	0a5H, 02H
	DB	00H
xdata	ENDS
;	COMDAT xdata
xdata	SEGMENT
$stateUnwindMap$??0sentry@?$basic_ostream@DU?$char_traits@D@std@@@std@@QEAA@AEAV12@@Z DB 02H
	DB	0eH
	DD	imagerel ?dtor$0@?0???0sentry@?$basic_ostream@DU?$char_traits@D@std@@@std@@QEAA@AEAV12@@Z@4HA
xdata	ENDS
;	COMDAT xdata
xdata	SEGMENT
$cppxdata$??0sentry@?$basic_ostream@DU?$char_traits@D@std@@@std@@QEAA@AEAV12@@Z DB 028H
	DD	imagerel $stateUnwindMap$??0sentry@?$basic_ostream@DU?$char_traits@D@std@@@std@@QEAA@AEAV12@@Z
	DD	imagerel $ip2state$??0sentry@?$basic_ostream@DU?$char_traits@D@std@@@std@@QEAA@AEAV12@@Z
xdata	ENDS
;	COMDAT xdata
xdata	SEGMENT
$unwind$??0sentry@?$basic_ostream@DU?$char_traits@D@std@@@std@@QEAA@AEAV12@@Z DD 020f11H
	DD	0700b520fH
	DD	imagerel __CxxFrameHandler4
	DD	imagerel $cppxdata$??0sentry@?$basic_ostream@DU?$char_traits@D@std@@@std@@QEAA@AEAV12@@Z
xdata	ENDS
;	COMDAT xdata
xdata	SEGMENT
$ip2state$??1_Sentry_base@?$basic_ostream@DU?$char_traits@D@std@@@std@@QEAA@XZ DB 02H
	DB	00H
	DB	00H
xdata	ENDS
;	COMDAT xdata
xdata	SEGMENT
$cppxdata$??1_Sentry_base@?$basic_ostream@DU?$char_traits@D@std@@@std@@QEAA@XZ DB 060H
	DD	imagerel $ip2state$??1_Sentry_base@?$basic_ostream@DU?$char_traits@D@std@@@std@@QEAA@XZ
xdata	ENDS
;	COMDAT xdata
xdata	SEGMENT
$unwind$??1_Sentry_base@?$basic_ostream@DU?$char_traits@D@std@@@std@@QEAA@XZ DD 020a19H
	DD	07006520aH
	DD	imagerel __CxxFrameHandler4
	DD	imagerel $cppxdata$??1_Sentry_base@?$basic_ostream@DU?$char_traits@D@std@@@std@@QEAA@XZ
xdata	ENDS
;	COMDAT xdata
xdata	SEGMENT
$unwind$??0_Sentry_base@?$basic_ostream@DU?$char_traits@D@std@@@std@@QEAA@AEAV12@@Z DD 020f01H
	DD	0700b520fH
xdata	ENDS
;	COMDAT xdata
xdata	SEGMENT
$unwind$??$_Alloc_proxy@V?$allocator@U_Container_proxy@std@@@std@@@_Container_base12@std@@QEAAX$$QEAV?$allocator@U_Container_proxy@std@@@1@@Z DD 020f01H
	DD	0700b520fH
xdata	ENDS
;	COMDAT xdata
xdata	SEGMENT
$unwind$??$?0$$V@?$_Compressed_pair@V?$allocator@H@std@@V?$_Deque_val@U?$_Deque_simple_types@H@std@@@2@$00@std@@QEAA@U_Zero_then_variadic_args_t@1@@Z DD 020e01H
	DD	0700a320eH
xdata	ENDS
;	COMDAT xdata
xdata	SEGMENT
$unwind$??$_Delete_plain_internal@V?$allocator@U_Container_proxy@std@@@std@@@std@@YAXAEAV?$allocator@U_Container_proxy@std@@@0@QEAU_Container_proxy@0@@Z DD 020f01H
	DD	0700b320fH
xdata	ENDS
;	COMDAT xdata
xdata	SEGMENT
$unwind$??$exchange@PEAU_Container_proxy@std@@$$T@std@@YAPEAU_Container_proxy@0@AEAPEAU10@$$QEA$$T@Z DD 020f01H
	DD	0700b120fH
xdata	ENDS
;	COMDAT xdata
xdata	SEGMENT
$unwind$??$?0H@?$allocator@U_Container_proxy@std@@@std@@QEAA@AEBV?$allocator@H@1@@Z DD 010b01H
	DD	0700bH
xdata	ENDS
;	COMDAT xdata
xdata	SEGMENT
$unwind$?allocate@?$allocator@U_Container_proxy@std@@@std@@QEAAPEAU_Container_proxy@2@_K@Z DD 020f01H
	DD	0700b320fH
xdata	ENDS
;	COMDAT xdata
xdata	SEGMENT
$unwind$??$endl@DU?$char_traits@D@std@@@std@@YAAEAV?$basic_ostream@DU?$char_traits@D@std@@@0@AEAV10@@Z DD 020a01H
	DD	07006320aH
xdata	ENDS
;	COMDAT xdata
xdata	SEGMENT
$unwind$??$?6DU?$char_traits@D@std@@V?$allocator@D@1@@std@@YAAEAV?$basic_ostream@DU?$char_traits@D@std@@@0@AEAV10@AEBV?$basic_string@DU?$char_traits@D@std@@V?$allocator@D@2@@0@@Z DD 020f01H
	DD	0700b520fH
xdata	ENDS
;	COMDAT voltbl
voltbl	SEGMENT
_volmd	DB	00H
	DB	05H
voltbl	ENDS
;	COMDAT voltbl
voltbl	SEGMENT
_volmd	DB	00H
	DB	05H
voltbl	ENDS
;	COMDAT xdata
xdata	SEGMENT
$unwind$?catch$1@?0???$?6U?$char_traits@D@std@@@std@@YAAEAV?$basic_ostream@DU?$char_traits@D@std@@@0@AEAV10@PEBD@Z@4HA DD 031001H
	DD	0700c4210H
	DD	0500bH
xdata	ENDS
;	COMDAT xdata
xdata	SEGMENT
$unwind$?dtor$0@?0???$?6U?$char_traits@D@std@@@std@@YAAEAV?$basic_ostream@DU?$char_traits@D@std@@@0@AEAV10@PEBD@Z@4HA DD 031001H
	DD	0700c4210H
	DD	0500bH
xdata	ENDS
;	COMDAT xdata
xdata	SEGMENT
$ip2state$??$?6U?$char_traits@D@std@@@std@@YAAEAV?$basic_ostream@DU?$char_traits@D@std@@@0@AEAV10@PEBD@Z DB 0aH
	DB	00H
	DB	00H
	DB	0f9H, 03H
	DB	02H
	DB	'B'
	DB	04H
	DB	019H, 0aH
	DB	02H
	DB	'x'
	DB	00H
xdata	ENDS
;	COMDAT xdata
xdata	SEGMENT
$handlerMap$??$?6U?$char_traits@D@std@@@std@@YAAEAV?$basic_ostream@DU?$char_traits@D@std@@@0@AEAV10@PEBD@Z DB 02H
	DB	01H
	DB	080H
	DD	imagerel ?catch$1@?0???$?6U?$char_traits@D@std@@@std@@YAAEAV?$basic_ostream@DU?$char_traits@D@std@@@0@AEAV10@PEBD@Z@4HA
xdata	ENDS
;	COMDAT xdata
xdata	SEGMENT
$tryMap$??$?6U?$char_traits@D@std@@@std@@YAAEAV?$basic_ostream@DU?$char_traits@D@std@@@0@AEAV10@PEBD@Z DB 02H
	DB	02H
	DB	02H
	DB	04H
	DD	imagerel $handlerMap$??$?6U?$char_traits@D@std@@@std@@YAAEAV?$basic_ostream@DU?$char_traits@D@std@@@0@AEAV10@PEBD@Z
xdata	ENDS
;	COMDAT xdata
xdata	SEGMENT
$stateUnwindMap$??$?6U?$char_traits@D@std@@@std@@YAAEAV?$basic_ostream@DU?$char_traits@D@std@@@0@AEAV10@PEBD@Z DB 06H
	DB	0eH
	DD	imagerel ?dtor$0@?0???$?6U?$char_traits@D@std@@@std@@YAAEAV?$basic_ostream@DU?$char_traits@D@std@@@0@AEAV10@PEBD@Z@4HA
	DB	028H
	DB	030H
xdata	ENDS
;	COMDAT xdata
xdata	SEGMENT
$cppxdata$??$?6U?$char_traits@D@std@@@std@@YAAEAV?$basic_ostream@DU?$char_traits@D@std@@@0@AEAV10@PEBD@Z DB 038H
	DD	imagerel $stateUnwindMap$??$?6U?$char_traits@D@std@@@std@@YAAEAV?$basic_ostream@DU?$char_traits@D@std@@@0@AEAV10@PEBD@Z
	DD	imagerel $tryMap$??$?6U?$char_traits@D@std@@@std@@YAAEAV?$basic_ostream@DU?$char_traits@D@std@@@0@AEAV10@PEBD@Z
	DD	imagerel $ip2state$??$?6U?$char_traits@D@std@@@std@@YAAEAV?$basic_ostream@DU?$char_traits@D@std@@@0@AEAV10@PEBD@Z
xdata	ENDS
;	COMDAT xdata
xdata	SEGMENT
$unwind$??$?6U?$char_traits@D@std@@@std@@YAAEAV?$basic_ostream@DU?$char_traits@D@std@@@0@AEAV10@PEBD@Z DD 032b19H
	DD	01a0112H
	DD	0700bH
	DD	imagerel __CxxFrameHandler4
	DD	imagerel $cppxdata$??$?6U?$char_traits@D@std@@@std@@YAAEAV?$basic_ostream@DU?$char_traits@D@std@@@0@AEAV10@PEBD@Z
xdata	ENDS
;	COMDAT CONST
CONST	SEGMENT
??$?6U?$char_traits@D@std@@@std@@YAAEAV?$basic_ostream@DU?$char_traits@D@std@@@0@AEAV10@PEBD@Z$rtcName$0 DB 05fH ; std::operator<<<std::char_traits<char> >
	DB	04fH
	DB	06bH
	DB	00H
	ORG $+12
??$?6U?$char_traits@D@std@@@std@@YAAEAV?$basic_ostream@DU?$char_traits@D@std@@@0@AEAV10@PEBD@Z$rtcVarDesc DD 048H ; std::operator<<<std::char_traits<char> >
	DD	010H
	DQ	FLAT:??$?6U?$char_traits@D@std@@@std@@YAAEAV?$basic_ostream@DU?$char_traits@D@std@@@0@AEAV10@PEBD@Z$rtcName$0
	ORG $+48
??$?6U?$char_traits@D@std@@@std@@YAAEAV?$basic_ostream@DU?$char_traits@D@std@@@0@AEAV10@PEBD@Z$rtcFrameData DD 01H ; std::operator<<<std::char_traits<char> >
	DD	00H
	DQ	FLAT:??$?6U?$char_traits@D@std@@@std@@YAAEAV?$basic_ostream@DU?$char_traits@D@std@@@0@AEAV10@PEBD@Z$rtcVarDesc
CONST	ENDS
;	COMDAT xdata
xdata	SEGMENT
$unwind$??1?$queue@HV?$deque@HV?$allocator@H@std@@@std@@@std@@QEAA@XZ DD 020a01H
	DD	07006320aH
xdata	ENDS
;	COMDAT xdata
xdata	SEGMENT
$unwind$?pop@?$queue@HV?$deque@HV?$allocator@H@std@@@std@@@std@@QEAAXXZ DD 020a01H
	DD	07006320aH
xdata	ENDS
;	COMDAT xdata
xdata	SEGMENT
$unwind$?push@?$queue@HV?$deque@HV?$allocator@H@std@@@std@@@std@@QEAAXAEBH@Z DD 020f01H
	DD	0700b320fH
xdata	ENDS
;	COMDAT xdata
xdata	SEGMENT
$unwind$?front@?$queue@HV?$deque@HV?$allocator@H@std@@@std@@@std@@QEAAAEAHXZ DD 020a01H
	DD	07006320aH
xdata	ENDS
;	COMDAT xdata
xdata	SEGMENT
$unwind$?size@?$queue@HV?$deque@HV?$allocator@H@std@@@std@@@std@@QEBA_KXZ DD 020a01H
	DD	07006320aH
xdata	ENDS
;	COMDAT xdata
xdata	SEGMENT
$ip2state$??0?$queue@HV?$deque@HV?$allocator@H@std@@@std@@@std@@QEAA@XZ DB 02H
	DB	00H
	DB	00H
xdata	ENDS
;	COMDAT xdata
xdata	SEGMENT
$cppxdata$??0?$queue@HV?$deque@HV?$allocator@H@std@@@std@@@std@@QEAA@XZ DB 060H
	DD	imagerel $ip2state$??0?$queue@HV?$deque@HV?$allocator@H@std@@@std@@@std@@QEAA@XZ
xdata	ENDS
;	COMDAT xdata
xdata	SEGMENT
$unwind$??0?$queue@HV?$deque@HV?$allocator@H@std@@@std@@@std@@QEAA@XZ DD 020a19H
	DD	07006320aH
	DD	imagerel __CxxFrameHandler4
	DD	imagerel $cppxdata$??0?$queue@HV?$deque@HV?$allocator@H@std@@@std@@@std@@QEAA@XZ
xdata	ENDS
;	COMDAT xdata
xdata	SEGMENT
$unwind$?_Get_first@?$_Compressed_pair@V?$allocator@H@std@@V?$_Deque_val@U?$_Deque_simple_types@H@std@@@2@$00@std@@QEBAAEBV?$allocator@H@2@XZ DD 010601H
	DD	07006H
xdata	ENDS
;	COMDAT xdata
xdata	SEGMENT
$unwind$?_Get_first@?$_Compressed_pair@V?$allocator@H@std@@V?$_Deque_val@U?$_Deque_simple_types@H@std@@@2@$00@std@@QEAAAEAV?$allocator@H@2@XZ DD 010601H
	DD	07006H
xdata	ENDS
;	COMDAT xdata
xdata	SEGMENT
$unwind$?_Mysize@?$deque@HV?$allocator@H@std@@@std@@AEBAAEB_KXZ DD 020a01H
	DD	07006320aH
xdata	ENDS
;	COMDAT xdata
xdata	SEGMENT
$unwind$?_Mysize@?$deque@HV?$allocator@H@std@@@std@@AEAAAEA_KXZ DD 020a01H
	DD	07006320aH
xdata	ENDS
;	COMDAT xdata
xdata	SEGMENT
$unwind$?_Myoff@?$deque@HV?$allocator@H@std@@@std@@AEBAAEB_KXZ DD 020a01H
	DD	07006320aH
xdata	ENDS
;	COMDAT xdata
xdata	SEGMENT
$unwind$?_Myoff@?$deque@HV?$allocator@H@std@@@std@@AEAAAEA_KXZ DD 020a01H
	DD	07006320aH
xdata	ENDS
;	COMDAT xdata
xdata	SEGMENT
$unwind$?_Mapsize@?$deque@HV?$allocator@H@std@@@std@@AEAAAEA_KXZ DD 020a01H
	DD	07006320aH
xdata	ENDS
;	COMDAT xdata
xdata	SEGMENT
$unwind$?_Map@?$deque@HV?$allocator@H@std@@@std@@AEAAAEAPEAPEAHXZ DD 020a01H
	DD	07006320aH
xdata	ENDS
;	COMDAT xdata
xdata	SEGMENT
$unwind$?_Get_data@?$deque@HV?$allocator@H@std@@@std@@AEBAAEBV?$_Deque_val@U?$_Deque_simple_types@H@std@@@2@XZ DD 010601H
	DD	07006H
xdata	ENDS
;	COMDAT xdata
xdata	SEGMENT
$unwind$?_Get_data@?$deque@HV?$allocator@H@std@@@std@@AEAAAEAV?$_Deque_val@U?$_Deque_simple_types@H@std@@@2@XZ DD 010601H
	DD	07006H
xdata	ENDS
;	COMDAT xdata
xdata	SEGMENT
$unwind$?_Getal@?$deque@HV?$allocator@H@std@@@std@@AEBAAEBV?$allocator@H@2@XZ DD 020a01H
	DD	07006320aH
xdata	ENDS
;	COMDAT xdata
xdata	SEGMENT
$unwind$?_Getal@?$deque@HV?$allocator@H@std@@@std@@AEAAAEAV?$allocator@H@2@XZ DD 020a01H
	DD	07006320aH
xdata	ENDS
;	COMDAT xdata
xdata	SEGMENT
$unwind$?_Orphan_all@?$deque@HV?$allocator@H@std@@@std@@AEAAXXZ DD 020a01H
	DD	07006320aH
xdata	ENDS
;	COMDAT xdata
xdata	SEGMENT
$unwind$?_Getblock@?$deque@HV?$allocator@H@std@@@std@@AEBA_K_K@Z DD 020f01H
	DD	0700b320fH
xdata	ENDS
;	COMDAT xdata
xdata	SEGMENT
$unwind$?_Orphan_off@?$deque@HV?$allocator@H@std@@@std@@AEBAX_K@Z DD 022801H
	DD	0700bd20fH
xdata	ENDS
;	COMDAT CONST
CONST	SEGMENT
?_Orphan_off@?$deque@HV?$allocator@H@std@@@std@@AEBAX_K@Z$rtcName$0 DB 05fH ; std::deque<int,std::allocator<int> >::_Orphan_off
	DB	04cH
	DB	06fH
	DB	063H
	DB	06bH
	DB	00H
	ORG $+10
?_Orphan_off@?$deque@HV?$allocator@H@std@@@std@@AEBAX_K@Z$rtcVarDesc DD 034H ; std::deque<int,std::allocator<int> >::_Orphan_off
	DD	04H
	DQ	FLAT:?_Orphan_off@?$deque@HV?$allocator@H@std@@@std@@AEBAX_K@Z$rtcName$0
	ORG $+48
?_Orphan_off@?$deque@HV?$allocator@H@std@@@std@@AEBAX_K@Z$rtcFrameData DD 01H ; std::deque<int,std::allocator<int> >::_Orphan_off
	DD	00H
	DQ	FLAT:?_Orphan_off@?$deque@HV?$allocator@H@std@@@std@@AEBAX_K@Z$rtcVarDesc
CONST	ENDS
;	COMDAT xdata
xdata	SEGMENT
$ip2state$?_Tidy@?$deque@HV?$allocator@H@std@@@std@@AEAAXXZ DB 02H
	DB	00H
	DB	00H
xdata	ENDS
;	COMDAT xdata
xdata	SEGMENT
$cppxdata$?_Tidy@?$deque@HV?$allocator@H@std@@@std@@AEAAXXZ DB 060H
	DD	imagerel $ip2state$?_Tidy@?$deque@HV?$allocator@H@std@@@std@@AEAAXXZ
xdata	ENDS
;	COMDAT xdata
xdata	SEGMENT
$unwind$?_Tidy@?$deque@HV?$allocator@H@std@@@std@@AEAAXXZ DD 022019H
	DD	07006920aH
	DD	imagerel __CxxFrameHandler4
	DD	imagerel $cppxdata$?_Tidy@?$deque@HV?$allocator@H@std@@@std@@AEAAXXZ
xdata	ENDS
;	COMDAT CONST
CONST	SEGMENT
?_Tidy@?$deque@HV?$allocator@H@std@@@std@@AEAAXXZ$rtcName$0 DB 05fH ; std::deque<int,std::allocator<int> >::_Tidy
	DB	041H
	DB	06cH
	DB	06dH
	DB	061H
	DB	070H
	DB	00H
	ORG $+9
?_Tidy@?$deque@HV?$allocator@H@std@@@std@@AEAAXXZ$rtcVarDesc DD 024H ; std::deque<int,std::allocator<int> >::_Tidy
	DD	01H
	DQ	FLAT:?_Tidy@?$deque@HV?$allocator@H@std@@@std@@AEAAXXZ$rtcName$0
	ORG $+48
?_Tidy@?$deque@HV?$allocator@H@std@@@std@@AEAAXXZ$rtcFrameData DD 01H ; std::deque<int,std::allocator<int> >::_Tidy
	DD	00H
	DQ	FLAT:?_Tidy@?$deque@HV?$allocator@H@std@@@std@@AEAAXXZ$rtcVarDesc
CONST	ENDS
;	COMDAT xdata
xdata	SEGMENT
$unwind$?_Growmap@?$deque@HV?$allocator@H@std@@@std@@AEAAX_K@Z DD 032b01H
	DD	0160112H
	DD	0700bH
xdata	ENDS
;	COMDAT CONST
CONST	SEGMENT
?_Growmap@?$deque@HV?$allocator@H@std@@@std@@AEAAX_K@Z$rtcName$0 DB 05fH ; std::deque<int,std::allocator<int> >::_Growmap
	DB	041H
	DB	06cH
	DB	06dH
	DB	061H
	DB	070H
	DB	00H
	ORG $+9
?_Growmap@?$deque@HV?$allocator@H@std@@@std@@AEAAX_K@Z$rtcVarDesc DD 024H ; std::deque<int,std::allocator<int> >::_Growmap
	DD	01H
	DQ	FLAT:?_Growmap@?$deque@HV?$allocator@H@std@@@std@@AEAAX_K@Z$rtcName$0
	ORG $+48
?_Growmap@?$deque@HV?$allocator@H@std@@@std@@AEAAX_K@Z$rtcFrameData DD 01H ; std::deque<int,std::allocator<int> >::_Growmap
	DD	00H
	DQ	FLAT:?_Growmap@?$deque@HV?$allocator@H@std@@@std@@AEAAX_K@Z$rtcVarDesc
CONST	ENDS
;	COMDAT xdata
xdata	SEGMENT
$unwind$?_Xlen@?$deque@HV?$allocator@H@std@@@std@@AEBAXXZ DD 020a01H
	DD	07006320aH
xdata	ENDS
;	COMDAT xdata
xdata	SEGMENT
$ip2state$?pop_back@?$deque@HV?$allocator@H@std@@@std@@QEAAXXZ DB 02H
	DB	00H
	DB	00H
xdata	ENDS
;	COMDAT xdata
xdata	SEGMENT
$cppxdata$?pop_back@?$deque@HV?$allocator@H@std@@@std@@QEAAXXZ DB 060H
	DD	imagerel $ip2state$?pop_back@?$deque@HV?$allocator@H@std@@@std@@QEAAXXZ
xdata	ENDS
;	COMDAT xdata
xdata	SEGMENT
$unwind$?pop_back@?$deque@HV?$allocator@H@std@@@std@@QEAAXXZ DD 020a19H
	DD	07006b20aH
	DD	imagerel __CxxFrameHandler4
	DD	imagerel $cppxdata$?pop_back@?$deque@HV?$allocator@H@std@@@std@@QEAAXXZ
xdata	ENDS
;	COMDAT xdata
xdata	SEGMENT
$unwind$?push_back@?$deque@HV?$allocator@H@std@@@std@@QEAAXAEBH@Z DD 020f01H
	DD	0700b320fH
xdata	ENDS
;	COMDAT xdata
xdata	SEGMENT
$ip2state$?pop_front@?$deque@HV?$allocator@H@std@@@std@@QEAAXXZ DB 02H
	DB	00H
	DB	00H
xdata	ENDS
;	COMDAT xdata
xdata	SEGMENT
$cppxdata$?pop_front@?$deque@HV?$allocator@H@std@@@std@@QEAAXXZ DB 060H
	DD	imagerel $ip2state$?pop_front@?$deque@HV?$allocator@H@std@@@std@@QEAAXXZ
xdata	ENDS
;	COMDAT xdata
xdata	SEGMENT
$unwind$?pop_front@?$deque@HV?$allocator@H@std@@@std@@QEAAXXZ DD 020a19H
	DD	07006b20aH
	DD	imagerel __CxxFrameHandler4
	DD	imagerel $cppxdata$?pop_front@?$deque@HV?$allocator@H@std@@@std@@QEAAXXZ
xdata	ENDS
;	COMDAT xdata
xdata	SEGMENT
$unwind$?front@?$deque@HV?$allocator@H@std@@@std@@QEAAAEAHXZ DD 020a01H
	DD	07006720aH
xdata	ENDS
;	COMDAT xdata
xdata	SEGMENT
$unwind$?empty@?$deque@HV?$allocator@H@std@@@std@@QEBA_NXZ DD 020a01H
	DD	07006520aH
xdata	ENDS
;	COMDAT xdata
xdata	SEGMENT
$unwind$?max_size@?$deque@HV?$allocator@H@std@@@std@@QEBA_KXZ DD 020a01H
	DD	07006520aH
xdata	ENDS
;	COMDAT xdata
xdata	SEGMENT
$unwind$?size@?$deque@HV?$allocator@H@std@@@std@@QEBA_KXZ DD 020a01H
	DD	07006320aH
xdata	ENDS
;	COMDAT xdata
xdata	SEGMENT
$unwind$?_Unchecked_begin@?$deque@HV?$allocator@H@std@@@std@@QEAA?AV?$_Deque_unchecked_iterator@V?$_Deque_val@U?$_Deque_simple_types@H@std@@@std@@@2@XZ DD 020f01H
	DD	0700b520fH
xdata	ENDS
;	COMDAT xdata
xdata	SEGMENT
$unwind$??1?$deque@HV?$allocator@H@std@@@std@@QEAA@XZ DD 022001H
	DD	07006720aH
xdata	ENDS
;	COMDAT CONST
CONST	SEGMENT
??1?$deque@HV?$allocator@H@std@@@std@@QEAA@XZ$rtcName$0 DB 05fH ; std::deque<int,std::allocator<int> >::~deque<int,std::allocator<int> >
	DB	050H
	DB	072H
	DB	06fH
	DB	078H
	DB	079H
	DB	05fH
	DB	061H
	DB	06cH
	DB	06cH
	DB	06fH
	DB	063H
	DB	061H
	DB	074H
	DB	06fH
	DB	072H
	DB	00H
	ORG $+15
??1?$deque@HV?$allocator@H@std@@@std@@QEAA@XZ$rtcVarDesc DD 024H ; std::deque<int,std::allocator<int> >::~deque<int,std::allocator<int> >
	DD	01H
	DQ	FLAT:??1?$deque@HV?$allocator@H@std@@@std@@QEAA@XZ$rtcName$0
	ORG $+48
??1?$deque@HV?$allocator@H@std@@@std@@QEAA@XZ$rtcFrameData DD 01H ; std::deque<int,std::allocator<int> >::~deque<int,std::allocator<int> >
	DD	00H
	DQ	FLAT:??1?$deque@HV?$allocator@H@std@@@std@@QEAA@XZ$rtcVarDesc
CONST	ENDS
;	COMDAT xdata
xdata	SEGMENT
$unwind$??0?$deque@HV?$allocator@H@std@@@std@@QEAA@XZ DD 020a01H
	DD	07006520aH
xdata	ENDS
;	COMDAT xdata
xdata	SEGMENT
$unwind$?_Getblock@?$_Deque_val@U?$_Deque_simple_types@H@std@@@std@@QEBA_K_K@Z DD 010b01H
	DD	0700bH
xdata	ENDS
;	COMDAT xdata
xdata	SEGMENT
$unwind$??0?$_Deque_val@U?$_Deque_simple_types@H@std@@@std@@QEAA@XZ DD 020a01H
	DD	07006320aH
xdata	ENDS
;	COMDAT xdata
xdata	SEGMENT
$unwind$?allocate@?$allocator@PEAH@std@@QEAAPEAPEAH_K@Z DD 020f01H
	DD	0700b320fH
xdata	ENDS
;	COMDAT xdata
xdata	SEGMENT
$unwind$?deallocate@?$allocator@PEAH@std@@QEAAXQEAPEAH_K@Z DD 021401H
	DD	070103214H
xdata	ENDS
;	COMDAT xdata
xdata	SEGMENT
$unwind$?max_size@?$_Default_allocator_traits@V?$allocator@H@std@@@std@@SA_KAEBV?$allocator@H@2@@Z DD 010601H
	DD	07006H
xdata	ENDS
;	COMDAT xdata
xdata	SEGMENT
$unwind$?allocate@?$allocator@H@std@@QEAAPEAH_K@Z DD 020f01H
	DD	0700b320fH
xdata	ENDS
;	COMDAT xdata
xdata	SEGMENT
$unwind$?deallocate@?$allocator@H@std@@QEAAXQEAH_K@Z DD 021401H
	DD	070103214H
xdata	ENDS
;	COMDAT xdata
xdata	SEGMENT
$unwind$??0?$allocator@H@std@@QEAA@XZ DD 010601H
	DD	07006H
xdata	ENDS
voltbl	SEGMENT
_volmd	DDSymXIndex: 	FLAT:?dtor$0@?0??searchWords@pattern_searcher_t@@AEAAXQEAV?$basic_string@DU?$char_traits@D@std@@V?$allocator@D@2@@std@@HV23@@Z@4HA
	DD	00H
	DD	05H
_volmd	DDSymXIndex: 	FLAT:?dtor$0@?0??buildMatchingMachine@pattern_searcher_t@@AEAAHQEAV?$basic_string@DU?$char_traits@D@std@@V?$allocator@D@2@@std@@H@Z@4HA
	DD	00H
	DD	05H
_volmd	DDSymXIndex: 	FLAT:?dtor$5@?0??search@pattern_searcher_t@@QEAAHXZ@4HA
	DD	00H
	DD	05H
_volmd	DDSymXIndex: 	FLAT:?dtor$4@?0??search@pattern_searcher_t@@QEAAHXZ@4HA
	DD	00H
	DD	05H
_volmd	DDSymXIndex: 	FLAT:?dtor$2@?0??search@pattern_searcher_t@@QEAAHXZ@4HA
	DD	00H
	DD	05H
_volmd	DDSymXIndex: 	FLAT:?dtor$1@?0??search@pattern_searcher_t@@QEAAHXZ@4HA
	DD	00H
	DD	05H
_volmd	DDSymXIndex: 	FLAT:?dtor$0@?0??search@pattern_searcher_t@@QEAAHXZ@4HA
	DD	00H
	DD	05H
voltbl	ENDS
voltbl	SEGMENT
_volmd	DDSymXIndex: 	FLAT:?search@pattern_searcher_t@@QEAAHXZ
	DD	030H
	DD	0144H
voltbl	ENDS
xdata	SEGMENT
$unwind$?search@pattern_searcher_t@@QEAAHXZ DD 033819H
	DD	02e010dH
	DD	07006H
	DD	imagerel __GSHandlerCheck_EH4
	DD	imagerel $cppxdata$?search@pattern_searcher_t@@QEAAHXZ
	DD	0162H
$cppxdata$?search@pattern_searcher_t@@QEAAHXZ DB 028H
	DD	imagerel $stateUnwindMap$?search@pattern_searcher_t@@QEAAHXZ
	DD	imagerel $ip2state$?search@pattern_searcher_t@@QEAAHXZ
$stateUnwindMap$?search@pattern_searcher_t@@QEAAHXZ DB 0aH
	DB	0eH
	DD	imagerel ?dtor$0@?0??search@pattern_searcher_t@@QEAAHXZ@4HA
	DB	02eH
	DD	imagerel ?dtor$1@?0??search@pattern_searcher_t@@QEAAHXZ@4HA
	DB	02eH
	DD	imagerel ?dtor$2@?0??search@pattern_searcher_t@@QEAAHXZ@4HA
	DB	086H
	DD	imagerel ?dtor$4@?0??search@pattern_searcher_t@@QEAAHXZ@4HA
	DB	02eH
	DD	imagerel ?dtor$5@?0??search@pattern_searcher_t@@QEAAHXZ@4HA
$ip2state$?search@pattern_searcher_t@@QEAAHXZ DB 010H
	DB	00H
	DB	00H
	DB	094H
	DB	02H
	DB	'$'
	DB	04H
	DB	'*'
	DB	06H
	DB	'*'
	DB	08H
	DB	'*'
	DB	0aH
	DB	0caH
	DB	08H
	DB	01cH
	DB	00H
$unwind$?dtor$0@?0??search@pattern_searcher_t@@QEAAHXZ@4HA DD 031001H
	DD	0700c4210H
	DD	0500bH
$unwind$?dtor$1@?0??search@pattern_searcher_t@@QEAAHXZ@4HA DD 031001H
	DD	0700c4210H
	DD	0500bH
$unwind$?dtor$2@?0??search@pattern_searcher_t@@QEAAHXZ@4HA DD 031001H
	DD	0700c4210H
	DD	0500bH
$unwind$?dtor$4@?0??search@pattern_searcher_t@@QEAAHXZ@4HA DD 031001H
	DD	0700c4210H
	DD	0500bH
$unwind$?dtor$5@?0??search@pattern_searcher_t@@QEAAHXZ@4HA DD 031001H
	DD	0700c4210H
	DD	0500bH
$unwind$?buildMatchingMachine@pattern_searcher_t@@AEAAHQEAV?$basic_string@DU?$char_traits@D@std@@V?$allocator@D@2@@std@@H@Z DD 033011H
	DD	0140117H
	DD	07010H
	DD	imagerel __CxxFrameHandler4
	DD	imagerel $cppxdata$?buildMatchingMachine@pattern_searcher_t@@AEAAHQEAV?$basic_string@DU?$char_traits@D@std@@V?$allocator@D@2@@std@@H@Z
$cppxdata$?buildMatchingMachine@pattern_searcher_t@@AEAAHQEAV?$basic_string@DU?$char_traits@D@std@@V?$allocator@D@2@@std@@H@Z DB 028H
	DD	imagerel $stateUnwindMap$?buildMatchingMachine@pattern_searcher_t@@AEAAHQEAV?$basic_string@DU?$char_traits@D@std@@V?$allocator@D@2@@std@@H@Z
	DD	imagerel $ip2state$?buildMatchingMachine@pattern_searcher_t@@AEAAHQEAV?$basic_string@DU?$char_traits@D@std@@V?$allocator@D@2@@std@@H@Z
$stateUnwindMap$?buildMatchingMachine@pattern_searcher_t@@AEAAHQEAV?$basic_string@DU?$char_traits@D@std@@V?$allocator@D@2@@std@@H@Z DB 02H
	DB	0eH
	DD	imagerel ?dtor$0@?0??buildMatchingMachine@pattern_searcher_t@@AEAAHQEAV?$basic_string@DU?$char_traits@D@std@@V?$allocator@D@2@@std@@H@Z@4HA
$ip2state$?buildMatchingMachine@pattern_searcher_t@@AEAAHQEAV?$basic_string@DU?$char_traits@D@std@@V?$allocator@D@2@@std@@H@Z DB 06H
	DB	00H
	DB	00H
	DB	01dH, 0aH
	DB	02H
	DB	015H, 0bH
	DB	00H
$unwind$?dtor$0@?0??buildMatchingMachine@pattern_searcher_t@@AEAAHQEAV?$basic_string@DU?$char_traits@D@std@@V?$allocator@D@2@@std@@H@Z@4HA DD 031001H
	DD	0700c4210H
	DD	0500bH
$unwind$?findNextState@pattern_searcher_t@@AEAAHHD@Z DD 021301H
	DD	0700f1213H
$unwind$?searchWords@pattern_searcher_t@@AEAAXQEAV?$basic_string@DU?$char_traits@D@std@@V?$allocator@D@2@@std@@HV23@@Z DD 021911H
	DD	070159219H
	DD	imagerel __CxxFrameHandler4
	DD	imagerel $cppxdata$?searchWords@pattern_searcher_t@@AEAAXQEAV?$basic_string@DU?$char_traits@D@std@@V?$allocator@D@2@@std@@HV23@@Z
$cppxdata$?searchWords@pattern_searcher_t@@AEAAXQEAV?$basic_string@DU?$char_traits@D@std@@V?$allocator@D@2@@std@@HV23@@Z DB 028H
	DD	imagerel $stateUnwindMap$?searchWords@pattern_searcher_t@@AEAAXQEAV?$basic_string@DU?$char_traits@D@std@@V?$allocator@D@2@@std@@HV23@@Z
	DD	imagerel $ip2state$?searchWords@pattern_searcher_t@@AEAAXQEAV?$basic_string@DU?$char_traits@D@std@@V?$allocator@D@2@@std@@HV23@@Z
$stateUnwindMap$?searchWords@pattern_searcher_t@@AEAAXQEAV?$basic_string@DU?$char_traits@D@std@@V?$allocator@D@2@@std@@HV23@@Z DB 02H
	DB	0eH
	DD	imagerel ?dtor$0@?0??searchWords@pattern_searcher_t@@AEAAXQEAV?$basic_string@DU?$char_traits@D@std@@V?$allocator@D@2@@std@@HV23@@Z@4HA
$ip2state$?searchWords@pattern_searcher_t@@AEAAXQEAV?$basic_string@DU?$char_traits@D@std@@V?$allocator@D@2@@std@@HV23@@Z DB 06H
	DB	00H
	DB	00H
	DB	'2'
	DB	02H
	DB	'q', 06H
	DB	00H
	ORG $+1
$unwind$?dtor$0@?0??searchWords@pattern_searcher_t@@AEAAXQEAV?$basic_string@DU?$char_traits@D@std@@V?$allocator@D@2@@std@@HV23@@Z@4HA DD 031001H
	DD	0700c4210H
	DD	0500bH
xdata	ENDS
CONST	SEGMENT
?search@pattern_searcher_t@@QEAAHXZ$rtcName$0 DB 061H	; pattern_searcher_t::search
	DB	072H
	DB	072H
	DB	00H
?search@pattern_searcher_t@@QEAAHXZ$rtcName$1 DB 074H	; pattern_searcher_t::search
	DB	065H
	DB	078H
	DB	074H
	DB	00H
	ORG $+15
?search@pattern_searcher_t@@QEAAHXZ$rtcVarDesc DD 0e8H	; pattern_searcher_t::search
	DD	028H
	DQ	FLAT:?search@pattern_searcher_t@@QEAAHXZ$rtcName$1
	DD	030H
	DD	0a0H
	DQ	FLAT:?search@pattern_searcher_t@@QEAAHXZ$rtcName$0
	ORG $+96
?search@pattern_searcher_t@@QEAAHXZ$rtcFrameData DD 02H	; pattern_searcher_t::search
	DD	00H
	DQ	FLAT:?search@pattern_searcher_t@@QEAAHXZ$rtcVarDesc
?buildMatchingMachine@pattern_searcher_t@@AEAAHQEAV?$basic_string@DU?$char_traits@D@std@@V?$allocator@D@2@@std@@H@Z$rtcName$0 DB 071H ; pattern_searcher_t::buildMatchingMachine
	DB	00H
	ORG $+6
?buildMatchingMachine@pattern_searcher_t@@AEAAHQEAV?$basic_string@DU?$char_traits@D@std@@V?$allocator@D@2@@std@@H@Z$rtcFrameData DD 01H ; pattern_searcher_t::buildMatchingMachine
	DD	00H
	DQ	FLAT:?buildMatchingMachine@pattern_searcher_t@@AEAAHQEAV?$basic_string@DU?$char_traits@D@std@@V?$allocator@D@2@@std@@H@Z$rtcVarDesc
	ORG $+8
?buildMatchingMachine@pattern_searcher_t@@AEAAHQEAV?$basic_string@DU?$char_traits@D@std@@V?$allocator@D@2@@std@@H@Z$rtcVarDesc DD 048H ; pattern_searcher_t::buildMatchingMachine
	DD	028H
	DQ	FLAT:?buildMatchingMachine@pattern_searcher_t@@AEAAHQEAV?$basic_string@DU?$char_traits@D@std@@V?$allocator@D@2@@std@@H@Z$rtcName$0
CONST	ENDS
;	COMDAT xdata
xdata	SEGMENT
$unwind$??1?$_Compressed_pair@V?$allocator@D@std@@V?$_String_val@U?$_Simple_types@D@std@@@2@$00@std@@QEAA@XZ DD 020a01H
	DD	07006320aH
xdata	ENDS
;	COMDAT xdata
xdata	SEGMENT
$unwind$?_Get_first@?$_Compressed_pair@V?$allocator@D@std@@V?$_String_val@U?$_Simple_types@D@std@@@2@$00@std@@QEBAAEBV?$allocator@D@2@XZ DD 010601H
	DD	07006H
xdata	ENDS
;	COMDAT xdata
xdata	SEGMENT
$unwind$?_Get_first@?$_Compressed_pair@V?$allocator@D@std@@V?$_String_val@U?$_Simple_types@D@std@@@2@$00@std@@QEAAAEAV?$allocator@D@2@XZ DD 010601H
	DD	07006H
xdata	ENDS
;	COMDAT xdata
xdata	SEGMENT
$unwind$?_Getal@?$basic_string@DU?$char_traits@D@std@@V?$allocator@D@2@@std@@AEBAAEBV?$allocator@D@2@XZ DD 020a01H
	DD	07006320aH
xdata	ENDS
;	COMDAT xdata
xdata	SEGMENT
$unwind$?_Getal@?$basic_string@DU?$char_traits@D@std@@V?$allocator@D@2@@std@@AEAAAEAV?$allocator@D@2@XZ DD 020a01H
	DD	07006320aH
xdata	ENDS
;	COMDAT xdata
xdata	SEGMENT
$ip2state$?_Tidy_deallocate@?$basic_string@DU?$char_traits@D@std@@V?$allocator@D@2@@std@@AEAAXXZ DB 02H
	DB	00H
	DB	00H
xdata	ENDS
;	COMDAT xdata
xdata	SEGMENT
$cppxdata$?_Tidy_deallocate@?$basic_string@DU?$char_traits@D@std@@V?$allocator@D@2@@std@@AEAAXXZ DB 060H
	DD	imagerel $ip2state$?_Tidy_deallocate@?$basic_string@DU?$char_traits@D@std@@V?$allocator@D@2@@std@@AEAAXXZ
xdata	ENDS
;	COMDAT xdata
xdata	SEGMENT
$unwind$?_Tidy_deallocate@?$basic_string@DU?$char_traits@D@std@@V?$allocator@D@2@@std@@AEAAXXZ DD 020a19H
	DD	07006720aH
	DD	imagerel __CxxFrameHandler4
	DD	imagerel $cppxdata$?_Tidy_deallocate@?$basic_string@DU?$char_traits@D@std@@V?$allocator@D@2@@std@@AEAAXXZ
xdata	ENDS
;	COMDAT xdata
xdata	SEGMENT
$unwind$?_Tidy_init@?$basic_string@DU?$char_traits@D@std@@V?$allocator@D@2@@std@@AEAAXXZ DD 020a01H
	DD	07006520aH
xdata	ENDS
;	COMDAT xdata
xdata	SEGMENT
$unwind$?_Calculate_growth@?$basic_string@DU?$char_traits@D@std@@V?$allocator@D@2@@std@@AEBA_K_K@Z DD 020f01H
	DD	0700b320fH
xdata	ENDS
;	COMDAT xdata
xdata	SEGMENT
$unwind$?_Calculate_growth@?$basic_string@DU?$char_traits@D@std@@V?$allocator@D@2@@std@@CA_K_K00@Z DD 022a01H
	DD	070107214H
xdata	ENDS
;	COMDAT CONST
CONST	SEGMENT
?_Calculate_growth@?$basic_string@DU?$char_traits@D@std@@V?$allocator@D@2@@std@@CA_K_K00@Z$rtcName$0 DB 05fH ; std::basic_string<char,std::char_traits<char>,std::allocator<char> >::_Calculate_growth
	DB	04dH
	DB	061H
	DB	073H
	DB	06bH
	DB	065H
	DB	064H
	DB	00H
	ORG $+8
?_Calculate_growth@?$basic_string@DU?$char_traits@D@std@@V?$allocator@D@2@@std@@CA_K_K00@Z$rtcVarDesc DD 028H ; std::basic_string<char,std::char_traits<char>,std::allocator<char> >::_Calculate_growth
	DD	08H
	DQ	FLAT:?_Calculate_growth@?$basic_string@DU?$char_traits@D@std@@V?$allocator@D@2@@std@@CA_K_K00@Z$rtcName$0
	ORG $+48
?_Calculate_growth@?$basic_string@DU?$char_traits@D@std@@V?$allocator@D@2@@std@@CA_K_K00@Z$rtcFrameData DD 01H ; std::basic_string<char,std::char_traits<char>,std::allocator<char> >::_Calculate_growth
	DD	00H
	DQ	FLAT:?_Calculate_growth@?$basic_string@DU?$char_traits@D@std@@V?$allocator@D@2@@std@@CA_K_K00@Z$rtcVarDesc
CONST	ENDS
;	COMDAT xdata
xdata	SEGMENT
$unwind$?max_size@?$basic_string@DU?$char_traits@D@std@@V?$allocator@D@2@@std@@QEBA_KXZ DD 022001H
	DD	07006b20aH
xdata	ENDS
;	COMDAT CONST
CONST	SEGMENT
?max_size@?$basic_string@DU?$char_traits@D@std@@V?$allocator@D@2@@std@@QEBA_KXZ$rtcName$0 DB 05fH ; std::basic_string<char,std::char_traits<char>,std::allocator<char> >::max_size
	DB	041H
	DB	06cH
	DB	06cH
	DB	06fH
	DB	063H
	DB	05fH
	DB	06dH
	DB	061H
	DB	078H
	DB	00H
	ORG $+5
?max_size@?$basic_string@DU?$char_traits@D@std@@V?$allocator@D@2@@std@@QEBA_KXZ$rtcVarDesc DD 028H ; std::basic_string<char,std::char_traits<char>,std::allocator<char> >::max_size
	DD	08H
	DQ	FLAT:?max_size@?$basic_string@DU?$char_traits@D@std@@V?$allocator@D@2@@std@@QEBA_KXZ$rtcName$0
	ORG $+48
?max_size@?$basic_string@DU?$char_traits@D@std@@V?$allocator@D@2@@std@@QEBA_KXZ$rtcFrameData DD 01H ; std::basic_string<char,std::char_traits<char>,std::allocator<char> >::max_size
	DD	00H
	DQ	FLAT:?max_size@?$basic_string@DU?$char_traits@D@std@@V?$allocator@D@2@@std@@QEBA_KXZ$rtcVarDesc
CONST	ENDS
;	COMDAT xdata
xdata	SEGMENT
$unwind$?size@?$basic_string@DU?$char_traits@D@std@@V?$allocator@D@2@@std@@QEBA_KXZ DD 010601H
	DD	07006H
xdata	ENDS
;	COMDAT xdata
xdata	SEGMENT
$unwind$?data@?$basic_string@DU?$char_traits@D@std@@V?$allocator@D@2@@std@@QEBAPEBDXZ DD 020a01H
	DD	07006320aH
xdata	ENDS
;	COMDAT xdata
xdata	SEGMENT
$unwind$??A?$basic_string@DU?$char_traits@D@std@@V?$allocator@D@2@@std@@QEBAAEBD_K@Z DD 020f01H
	DD	0700b520fH
xdata	ENDS
;	COMDAT xdata
xdata	SEGMENT
$unwind$??A?$basic_string@DU?$char_traits@D@std@@V?$allocator@D@2@@std@@QEAAAEAD_K@Z DD 020f01H
	DD	0700b520fH
xdata	ENDS
;	COMDAT xdata
xdata	SEGMENT
$unwind$?assign@?$basic_string@DU?$char_traits@D@std@@V?$allocator@D@2@@std@@QEAAAEAV12@QEBD@Z DD 020f01H
	DD	0700b320fH
xdata	ENDS
;	COMDAT xdata
xdata	SEGMENT
$unwind$?assign@?$basic_string@DU?$char_traits@D@std@@V?$allocator@D@2@@std@@QEAAAEAV12@QEBD_K@Z DD 021401H
	DD	070105214H
xdata	ENDS
;	COMDAT xdata
xdata	SEGMENT
$unwind$??1?$basic_string@DU?$char_traits@D@std@@V?$allocator@D@2@@std@@QEAA@XZ DD 022001H
	DD	07006920aH
xdata	ENDS
;	COMDAT CONST
CONST	SEGMENT
??1?$basic_string@DU?$char_traits@D@std@@V?$allocator@D@2@@std@@QEAA@XZ$rtcName$0 DB 024H ; std::basic_string<char,std::char_traits<char>,std::allocator<char> >::~basic_string<char,std::char_traits<char>,std::allocator<char> >
	DB	053H
	DB	038H
	DB	00H
	ORG $+12
??1?$basic_string@DU?$char_traits@D@std@@V?$allocator@D@2@@std@@QEAA@XZ$rtcVarDesc DD 034H ; std::basic_string<char,std::char_traits<char>,std::allocator<char> >::~basic_string<char,std::char_traits<char>,std::allocator<char> >
	DD	01H
	DQ	FLAT:??1?$basic_string@DU?$char_traits@D@std@@V?$allocator@D@2@@std@@QEAA@XZ$rtcName$0
	ORG $+48
??1?$basic_string@DU?$char_traits@D@std@@V?$allocator@D@2@@std@@QEAA@XZ$rtcFrameData DD 01H ; std::basic_string<char,std::char_traits<char>,std::allocator<char> >::~basic_string<char,std::char_traits<char>,std::allocator<char> >
	DD	00H
	DQ	FLAT:??1?$basic_string@DU?$char_traits@D@std@@V?$allocator@D@2@@std@@QEAA@XZ$rtcVarDesc
CONST	ENDS
;	COMDAT xdata
xdata	SEGMENT
$unwind$?_Construct_lv_contents@?$basic_string@DU?$char_traits@D@std@@V?$allocator@D@2@@std@@AEAAXAEBV12@@Z DD 032b01H
	DD	0140112H
	DD	0700bH
xdata	ENDS
;	COMDAT CONST
CONST	SEGMENT
?_Construct_lv_contents@?$basic_string@DU?$char_traits@D@std@@V?$allocator@D@2@@std@@AEAAXAEBV12@@Z$rtcName$0 DB 05fH ; std::basic_string<char,std::char_traits<char>,std::allocator<char> >::_Construct_lv_contents
	DB	04eH
	DB	065H
	DB	077H
	DB	05fH
	DB	061H
	DB	072H
	DB	072H
	DB	061H
	DB	079H
	DB	00H
	ORG $+5
?_Construct_lv_contents@?$basic_string@DU?$char_traits@D@std@@V?$allocator@D@2@@std@@AEAAXAEBV12@@Z$rtcVarDesc DD 068H ; std::basic_string<char,std::char_traits<char>,std::allocator<char> >::_Construct_lv_contents
	DD	08H
	DQ	FLAT:?_Construct_lv_contents@?$basic_string@DU?$char_traits@D@std@@V?$allocator@D@2@@std@@AEAAXAEBV12@@Z$rtcName$0
	ORG $+48
?_Construct_lv_contents@?$basic_string@DU?$char_traits@D@std@@V?$allocator@D@2@@std@@AEAAXAEBV12@@Z$rtcFrameData DD 01H ; std::basic_string<char,std::char_traits<char>,std::allocator<char> >::_Construct_lv_contents
	DD	00H
	DQ	FLAT:?_Construct_lv_contents@?$basic_string@DU?$char_traits@D@std@@V?$allocator@D@2@@std@@AEAAXAEBV12@@Z$rtcVarDesc
CONST	ENDS
;	COMDAT voltbl
voltbl	SEGMENT
_volmd	DB	00H
	DB	05H
voltbl	ENDS
;	COMDAT voltbl
voltbl	SEGMENT
_volmd	DB	00H
	DB	05H
voltbl	ENDS
;	COMDAT xdata
xdata	SEGMENT
$unwind$?dtor$1@?0???0?$basic_string@DU?$char_traits@D@std@@V?$allocator@D@2@@std@@QEAA@QEBD@Z@4HA DD 031001H
	DD	0700c4210H
	DD	0500bH
xdata	ENDS
;	COMDAT xdata
xdata	SEGMENT
$unwind$?dtor$0@?0???0?$basic_string@DU?$char_traits@D@std@@V?$allocator@D@2@@std@@QEAA@QEBD@Z@4HA DD 031001H
	DD	0700c4210H
	DD	0500bH
xdata	ENDS
;	COMDAT xdata
xdata	SEGMENT
$ip2state$??0?$basic_string@DU?$char_traits@D@std@@V?$allocator@D@2@@std@@QEAA@QEBD@Z DB 0aH
	DB	00H
	DB	00H
	DB	082H
	DB	02H
	DB	'~'
	DB	04H
	DB	'Z'
	DB	02H
	DB	016H
	DB	00H
xdata	ENDS
;	COMDAT xdata
xdata	SEGMENT
$stateUnwindMap$??0?$basic_string@DU?$char_traits@D@std@@V?$allocator@D@2@@std@@QEAA@QEBD@Z DB 04H
	DB	0eH
	DD	imagerel ?dtor$0@?0???0?$basic_string@DU?$char_traits@D@std@@V?$allocator@D@2@@std@@QEAA@QEBD@Z@4HA
	DB	02eH
	DD	imagerel ?dtor$1@?0???0?$basic_string@DU?$char_traits@D@std@@V?$allocator@D@2@@std@@QEAA@QEBD@Z@4HA
xdata	ENDS
;	COMDAT xdata
xdata	SEGMENT
$cppxdata$??0?$basic_string@DU?$char_traits@D@std@@V?$allocator@D@2@@std@@QEAA@QEBD@Z DB 028H
	DD	imagerel $stateUnwindMap$??0?$basic_string@DU?$char_traits@D@std@@V?$allocator@D@2@@std@@QEAA@QEBD@Z
	DD	imagerel $ip2state$??0?$basic_string@DU?$char_traits@D@std@@V?$allocator@D@2@@std@@QEAA@QEBD@Z
xdata	ENDS
;	COMDAT xdata
xdata	SEGMENT
$unwind$??0?$basic_string@DU?$char_traits@D@std@@V?$allocator@D@2@@std@@QEAA@QEBD@Z DD 022b11H
	DD	0700bf212H
	DD	imagerel __CxxFrameHandler4
	DD	imagerel $cppxdata$??0?$basic_string@DU?$char_traits@D@std@@V?$allocator@D@2@@std@@QEAA@QEBD@Z
xdata	ENDS
;	COMDAT CONST
CONST	SEGMENT
??0?$basic_string@DU?$char_traits@D@std@@V?$allocator@D@2@@std@@QEAA@QEBD@Z$rtcName$0 DB 024H ; std::basic_string<char,std::char_traits<char>,std::allocator<char> >::basic_string<char,std::char_traits<char>,std::allocator<char> >
	DB	053H
	DB	031H
	DB	030H
	DB	00H
	ORG $+3
??0?$basic_string@DU?$char_traits@D@std@@V?$allocator@D@2@@std@@QEAA@QEBD@Z$rtcName$1 DB 05fH ; std::basic_string<char,std::char_traits<char>,std::allocator<char> >::basic_string<char,std::char_traits<char>,std::allocator<char> >
	DB	050H
	DB	072H
	DB	06fH
	DB	078H
	DB	079H
	DB	00H
	ORG $+1
??0?$basic_string@DU?$char_traits@D@std@@V?$allocator@D@2@@std@@QEAA@QEBD@Z$rtcVarDesc DD 058H ; std::basic_string<char,std::char_traits<char>,std::allocator<char> >::basic_string<char,std::char_traits<char>,std::allocator<char> >
	DD	010H
	DQ	FLAT:??0?$basic_string@DU?$char_traits@D@std@@V?$allocator@D@2@@std@@QEAA@QEBD@Z$rtcName$1
	DD	034H
	DD	01H
	DQ	FLAT:??0?$basic_string@DU?$char_traits@D@std@@V?$allocator@D@2@@std@@QEAA@QEBD@Z$rtcName$0
	ORG $+96
??0?$basic_string@DU?$char_traits@D@std@@V?$allocator@D@2@@std@@QEAA@QEBD@Z$rtcFrameData DD 02H ; std::basic_string<char,std::char_traits<char>,std::allocator<char> >::basic_string<char,std::char_traits<char>,std::allocator<char> >
	DD	00H
	DQ	FLAT:??0?$basic_string@DU?$char_traits@D@std@@V?$allocator@D@2@@std@@QEAA@QEBD@Z$rtcVarDesc
CONST	ENDS
;	COMDAT voltbl
voltbl	SEGMENT
_volmd	DB	00H
	DB	05H
voltbl	ENDS
;	COMDAT voltbl
voltbl	SEGMENT
_volmd	DB	00H
	DB	05H
voltbl	ENDS
;	COMDAT xdata
xdata	SEGMENT
$unwind$?dtor$1@?0???0?$basic_string@DU?$char_traits@D@std@@V?$allocator@D@2@@std@@QEAA@AEBV01@@Z@4HA DD 031001H
	DD	0700c4210H
	DD	0500bH
xdata	ENDS
;	COMDAT xdata
xdata	SEGMENT
$unwind$?dtor$0@?0???0?$basic_string@DU?$char_traits@D@std@@V?$allocator@D@2@@std@@QEAA@AEBV01@@Z@4HA DD 031001H
	DD	0700c4210H
	DD	0500bH
xdata	ENDS
;	COMDAT xdata
xdata	SEGMENT
$ip2state$??0?$basic_string@DU?$char_traits@D@std@@V?$allocator@D@2@@std@@QEAA@AEBV01@@Z DB 0aH
	DB	00H
	DB	00H
	DB	0b6H
	DB	02H
	DB	'~'
	DB	04H
	DB	'@'
	DB	02H
	DB	016H
	DB	00H
xdata	ENDS
;	COMDAT xdata
xdata	SEGMENT
$stateUnwindMap$??0?$basic_string@DU?$char_traits@D@std@@V?$allocator@D@2@@std@@QEAA@AEBV01@@Z DB 04H
	DB	0eH
	DD	imagerel ?dtor$0@?0???0?$basic_string@DU?$char_traits@D@std@@V?$allocator@D@2@@std@@QEAA@AEBV01@@Z@4HA
	DB	02eH
	DD	imagerel ?dtor$1@?0???0?$basic_string@DU?$char_traits@D@std@@V?$allocator@D@2@@std@@QEAA@AEBV01@@Z@4HA
xdata	ENDS
;	COMDAT xdata
xdata	SEGMENT
$cppxdata$??0?$basic_string@DU?$char_traits@D@std@@V?$allocator@D@2@@std@@QEAA@AEBV01@@Z DB 028H
	DD	imagerel $stateUnwindMap$??0?$basic_string@DU?$char_traits@D@std@@V?$allocator@D@2@@std@@QEAA@AEBV01@@Z
	DD	imagerel $ip2state$??0?$basic_string@DU?$char_traits@D@std@@V?$allocator@D@2@@std@@QEAA@AEBV01@@Z
xdata	ENDS
;	COMDAT xdata
xdata	SEGMENT
$unwind$??0?$basic_string@DU?$char_traits@D@std@@V?$allocator@D@2@@std@@QEAA@AEBV01@@Z DD 022b11H
	DD	0700bf212H
	DD	imagerel __CxxFrameHandler4
	DD	imagerel $cppxdata$??0?$basic_string@DU?$char_traits@D@std@@V?$allocator@D@2@@std@@QEAA@AEBV01@@Z
xdata	ENDS
;	COMDAT CONST
CONST	SEGMENT
??0?$basic_string@DU?$char_traits@D@std@@V?$allocator@D@2@@std@@QEAA@AEBV01@@Z$rtcName$0 DB 024H ; std::basic_string<char,std::char_traits<char>,std::allocator<char> >::basic_string<char,std::char_traits<char>,std::allocator<char> >
	DB	053H
	DB	031H
	DB	032H
	DB	00H
	ORG $+3
??0?$basic_string@DU?$char_traits@D@std@@V?$allocator@D@2@@std@@QEAA@AEBV01@@Z$rtcName$1 DB 05fH ; std::basic_string<char,std::char_traits<char>,std::allocator<char> >::basic_string<char,std::char_traits<char>,std::allocator<char> >
	DB	050H
	DB	072H
	DB	06fH
	DB	078H
	DB	079H
	DB	00H
	ORG $+1
??0?$basic_string@DU?$char_traits@D@std@@V?$allocator@D@2@@std@@QEAA@AEBV01@@Z$rtcVarDesc DD 058H ; std::basic_string<char,std::char_traits<char>,std::allocator<char> >::basic_string<char,std::char_traits<char>,std::allocator<char> >
	DD	010H
	DQ	FLAT:??0?$basic_string@DU?$char_traits@D@std@@V?$allocator@D@2@@std@@QEAA@AEBV01@@Z$rtcName$1
	DD	034H
	DD	01H
	DQ	FLAT:??0?$basic_string@DU?$char_traits@D@std@@V?$allocator@D@2@@std@@QEAA@AEBV01@@Z$rtcName$0
	ORG $+96
??0?$basic_string@DU?$char_traits@D@std@@V?$allocator@D@2@@std@@QEAA@AEBV01@@Z$rtcFrameData DD 02H ; std::basic_string<char,std::char_traits<char>,std::allocator<char> >::basic_string<char,std::char_traits<char>,std::allocator<char> >
	DD	00H
	DQ	FLAT:??0?$basic_string@DU?$char_traits@D@std@@V?$allocator@D@2@@std@@QEAA@AEBV01@@Z$rtcVarDesc
CONST	ENDS
;	COMDAT xdata
xdata	SEGMENT
$unwind$??1?$_String_val@U?$_Simple_types@D@std@@@std@@QEAA@XZ DD 020a01H
	DD	07006320aH
xdata	ENDS
;	COMDAT xdata
xdata	SEGMENT
$unwind$??1_Bxty@?$_String_val@U?$_Simple_types@D@std@@@std@@QEAA@XZ DD 010601H
	DD	07006H
xdata	ENDS
;	COMDAT xdata
xdata	SEGMENT
$unwind$??0_Bxty@?$_String_val@U?$_Simple_types@D@std@@@std@@QEAA@XZ DD 010601H
	DD	07006H
xdata	ENDS
;	COMDAT xdata
xdata	SEGMENT
$unwind$?_Large_string_engaged@?$_String_val@U?$_Simple_types@D@std@@@std@@QEBA_NXZ DD 020a01H
	DD	07006120aH
xdata	ENDS
;	COMDAT xdata
xdata	SEGMENT
$unwind$?_Myptr@?$_String_val@U?$_Simple_types@D@std@@@std@@QEBAPEBDXZ DD 020a01H
	DD	07006520aH
xdata	ENDS
;	COMDAT xdata
xdata	SEGMENT
$unwind$?_Myptr@?$_String_val@U?$_Simple_types@D@std@@@std@@QEAAPEADXZ DD 020a01H
	DD	07006520aH
xdata	ENDS
;	COMDAT xdata
xdata	SEGMENT
$unwind$??0?$_String_val@U?$_Simple_types@D@std@@@std@@QEAA@XZ DD 020a01H
	DD	07006320aH
xdata	ENDS
;	COMDAT xdata
xdata	SEGMENT
$unwind$?select_on_container_copy_construction@?$_Default_allocator_traits@V?$allocator@D@std@@@std@@SA?AV?$allocator@D@2@AEBV32@@Z DD 010b01H
	DD	0700bH
xdata	ENDS
;	COMDAT xdata
xdata	SEGMENT
$unwind$?max_size@?$_Default_allocator_traits@V?$allocator@D@std@@@std@@SA_KAEBV?$allocator@D@2@@Z DD 010601H
	DD	07006H
xdata	ENDS
;	COMDAT xdata
xdata	SEGMENT
$unwind$?allocate@?$allocator@D@std@@QEAAPEAD_K@Z DD 020f01H
	DD	0700b320fH
xdata	ENDS
;	COMDAT xdata
xdata	SEGMENT
$unwind$?deallocate@?$allocator@D@std@@QEAAXQEAD_K@Z DD 021401H
	DD	070103214H
xdata	ENDS
;	COMDAT xdata
xdata	SEGMENT
$unwind$??0?$allocator@D@std@@QEAA@XZ DD 010601H
	DD	07006H
xdata	ENDS
;	COMDAT xdata
xdata	SEGMENT
$unwind$?_Xlen_string@std@@YAXXZ DD 020601H
	DD	070023206H
xdata	ENDS
;	COMDAT xdata
xdata	SEGMENT
$unwind$?eof@?$_Narrow_char_traits@DH@std@@SAHXZ DD 010201H
	DD	07002H
xdata	ENDS
;	COMDAT xdata
xdata	SEGMENT
$unwind$?eq_int_type@?$_Narrow_char_traits@DH@std@@SA_NAEBH0@Z DD 020f01H
	DD	0700b120fH
xdata	ENDS
;	COMDAT xdata
xdata	SEGMENT
$unwind$?assign@?$_Narrow_char_traits@DH@std@@SAXAEADAEBD@Z DD 010b01H
	DD	0700bH
xdata	ENDS
;	COMDAT xdata
xdata	SEGMENT
$unwind$?length@?$_Narrow_char_traits@DH@std@@SA_KQEBD@Z DD 020a01H
	DD	07006320aH
xdata	ENDS
;	COMDAT xdata
xdata	SEGMENT
$unwind$?move@?$_Char_traits@DH@std@@SAPEADQEADQEBD_K@Z DD 021401H
	DD	070103214H
xdata	ENDS
;	COMDAT xdata
xdata	SEGMENT
$unwind$?copy@?$_Char_traits@DH@std@@SAPEADQEADQEBD_K@Z DD 021401H
	DD	070103214H
xdata	ENDS
;	COMDAT xdata
xdata	SEGMENT
$unwind$??0_Basic_container_proxy_ptr12@std@@IEAA@XZ DD 010601H
	DD	07006H
xdata	ENDS
;	COMDAT xdata
xdata	SEGMENT
$unwind$?_Release@_Basic_container_proxy_ptr12@std@@QEAAXXZ DD 010601H
	DD	07006H
xdata	ENDS
;	COMDAT xdata
xdata	SEGMENT
$unwind$?_Orphan_all_locked@_Container_base12@std@@AEAAXXZ DD 022001H
	DD	07006720aH
xdata	ENDS
;	COMDAT CONST
CONST	SEGMENT
?_Orphan_all_locked@_Container_base12@std@@AEAAXXZ$rtcName$0 DB 05fH ; std::_Container_base12::_Orphan_all_locked
	DB	04cH
	DB	06fH
	DB	063H
	DB	06bH
	DB	00H
	ORG $+10
?_Orphan_all_locked@_Container_base12@std@@AEAAXXZ$rtcVarDesc DD 024H ; std::_Container_base12::_Orphan_all_locked
	DD	04H
	DQ	FLAT:?_Orphan_all_locked@_Container_base12@std@@AEAAXXZ$rtcName$0
	ORG $+48
?_Orphan_all_locked@_Container_base12@std@@AEAAXXZ$rtcFrameData DD 01H ; std::_Container_base12::_Orphan_all_locked
	DD	00H
	DQ	FLAT:?_Orphan_all_locked@_Container_base12@std@@AEAAXXZ$rtcVarDesc
CONST	ENDS
;	COMDAT xdata
xdata	SEGMENT
$unwind$?_Orphan_all_unlocked@_Container_base12@std@@AEAAXXZ DD 020a01H
	DD	07006120aH
xdata	ENDS
;	COMDAT xdata
xdata	SEGMENT
$unwind$?_Orphan_all@_Container_base12@std@@QEAAXXZ DD 020a01H
	DD	07006320aH
xdata	ENDS
;	COMDAT xdata
xdata	SEGMENT
$unwind$??0_Container_base12@std@@QEAA@XZ DD 010601H
	DD	07006H
xdata	ENDS
;	COMDAT xdata
xdata	SEGMENT
$unwind$??0_Container_proxy@std@@QEAA@PEAU_Container_base12@1@@Z DD 010b01H
	DD	0700bH
xdata	ENDS
;	COMDAT xdata
xdata	SEGMENT
$unwind$??$_Convert_size@_K@std@@YA_K_K@Z DD 010601H
	DD	07006H
xdata	ENDS
;	COMDAT xdata
xdata	SEGMENT
$unwind$?_Adjust_manually_vector_aligned@std@@YAXAEAPEAXAEA_K@Z DD 020f01H
	DD	0700b920fH
xdata	ENDS
;	COMDAT xdata
xdata	SEGMENT
$unwind$?_Allocate@_Default_allocate_traits@std@@SAPEAX_K@Z DD 020a01H
	DD	07006320aH
xdata	ENDS
;	COMDAT xdata
xdata	SEGMENT
$unwind$?_Throw_bad_array_new_length@std@@YAXXZ DD 020601H
	DD	070027206H
xdata	ENDS
;	COMDAT xdata
xdata	SEGMENT
$unwind$??_Gbad_array_new_length@std@@UEAAPEAXI@Z DD 020e01H
	DD	0700a320eH
xdata	ENDS
;	COMDAT xdata
xdata	SEGMENT
$unwind$??0bad_array_new_length@std@@QEAA@AEBV01@@Z DD 020f01H
	DD	0700b320fH
xdata	ENDS
;	COMDAT xdata
xdata	SEGMENT
$unwind$??1bad_array_new_length@std@@UEAA@XZ DD 020a01H
	DD	07006320aH
xdata	ENDS
;	COMDAT xdata
xdata	SEGMENT
$unwind$??0bad_array_new_length@std@@QEAA@XZ DD 020a01H
	DD	07006320aH
xdata	ENDS
;	COMDAT xdata
xdata	SEGMENT
$unwind$??_Gbad_alloc@std@@UEAAPEAXI@Z DD 020e01H
	DD	0700a320eH
xdata	ENDS
;	COMDAT xdata
xdata	SEGMENT
$unwind$??0bad_alloc@std@@QEAA@AEBV01@@Z DD 020f01H
	DD	0700b320fH
xdata	ENDS
;	COMDAT xdata
xdata	SEGMENT
$unwind$??1bad_alloc@std@@UEAA@XZ DD 020a01H
	DD	07006320aH
xdata	ENDS
;	COMDAT xdata
xdata	SEGMENT
$unwind$??0bad_alloc@std@@AEAA@QEBD@Z DD 020f01H
	DD	0700b320fH
xdata	ENDS
;	COMDAT xdata
xdata	SEGMENT
$unwind$??_Gexception@std@@UEAAPEAXI@Z DD 020e01H
	DD	0700a320eH
xdata	ENDS
;	COMDAT xdata
xdata	SEGMENT
$unwind$?what@exception@std@@UEBAPEBDXZ DD 020a01H
	DD	07006120aH
xdata	ENDS
;	COMDAT xdata
xdata	SEGMENT
$unwind$??1exception@std@@UEAA@XZ DD 020a01H
	DD	07006320aH
xdata	ENDS
;	COMDAT xdata
xdata	SEGMENT
$unwind$??0exception@std@@QEAA@AEBV01@@Z DD 020f01H
	DD	0700b320fH
xdata	ENDS
;	COMDAT xdata
xdata	SEGMENT
$unwind$??0exception@std@@QEAA@QEBDH@Z DD 011001H
	DD	07010H
xdata	ENDS
;	COMDAT xdata
xdata	SEGMENT
$unwind$?max@?$numeric_limits@_J@std@@SA_JXZ DD 010201H
	DD	07002H
xdata	ENDS
;	COMDAT xdata
xdata	SEGMENT
$unwind$??2@YAPEAX_KPEAX@Z DD 010b01H
	DD	0700bH
xdata	ENDS
;	COMDAT xdata
xdata	SEGMENT
$unwind$?__empty_global_delete@@YAXPEAX_K@Z DD 010b01H
	DD	0700bH
xdata	ENDS
;	COMDAT xdata
xdata	SEGMENT
$unwind$?__empty_global_delete@@YAXPEAX@Z DD 010601H
	DD	07006H
xdata	ENDS
; Function compile flags: /Odtp /RTCsu
; File C:\Program Files (x86)\Microsoft Visual Studio\2019\Community\VC\Tools\MSVC\14.29.30037\include\xutility
;	COMDAT ??$_Voidify_iter@PEAPEAH@std@@YAPEAXPEAPEAH@Z
_TEXT	SEGMENT
_It$ = 16
??$_Voidify_iter@PEAPEAH@std@@YAPEAXPEAPEAH@Z PROC	; std::_Voidify_iter<int * *>, COMDAT

; 130  : _NODISCARD constexpr void* _Voidify_iter(_Iter _It) noexcept {

$LN3:
  00000	48 89 4c 24 08	 mov	 QWORD PTR [rsp+8], rcx
  00005	57		 push	 rdi

; 131  :     if constexpr (is_pointer_v<_Iter>) {
; 132  :         return const_cast<void*>(static_cast<const volatile void*>(_It));

  00006	48 8b 44 24 10	 mov	 rax, QWORD PTR _It$[rsp]

; 133  :     } else {
; 134  :         return const_cast<void*>(static_cast<const volatile void*>(_STD addressof(*_It)));
; 135  :     }
; 136  : }

  0000b	5f		 pop	 rdi
  0000c	c3		 ret	 0
??$_Voidify_iter@PEAPEAH@std@@YAPEAXPEAPEAH@Z ENDP	; std::_Voidify_iter<int * *>
_TEXT	ENDS
; Function compile flags: /Odtp /RTCsu
; File C:\Program Files (x86)\Microsoft Visual Studio\2019\Community\VC\Tools\MSVC\14.29.30037\include\xstddef
;	COMDAT ??$addressof@PEAH@std@@YAPEAPEAHAEAPEAH@Z
_TEXT	SEGMENT
_Val$ = 16
??$addressof@PEAH@std@@YAPEAPEAHAEAPEAH@Z PROC		; std::addressof<int *>, COMDAT

; 274  : _NODISCARD constexpr _Ty* addressof(_Ty& _Val) noexcept {

$LN3:
  00000	48 89 4c 24 08	 mov	 QWORD PTR [rsp+8], rcx
  00005	57		 push	 rdi

; 275  :     return __builtin_addressof(_Val);

  00006	48 8b 44 24 10	 mov	 rax, QWORD PTR _Val$[rsp]

; 276  : }

  0000b	5f		 pop	 rdi
  0000c	c3		 ret	 0
??$addressof@PEAH@std@@YAPEAPEAHAEAPEAH@Z ENDP		; std::addressof<int *>
_TEXT	ENDS
; Function compile flags: /Odtp /RTCsu
; File C:\Program Files (x86)\Microsoft Visual Studio\2019\Community\VC\Tools\MSVC\14.29.30037\include\xutility
;	COMDAT ??$_Construct_in_place@PEAHAEAPEAH@std@@YAXAEAPEAH0@Z
_TEXT	SEGMENT
$T1 = 32
_Obj$ = 64
<_Args_0>$ = 72
??$_Construct_in_place@PEAHAEAPEAH@std@@YAXAEAPEAH0@Z PROC ; std::_Construct_in_place<int *,int * &>, COMDAT

; 151  :     is_nothrow_constructible_v<_Ty, _Types...>) {

$LN3:
  00000	48 89 54 24 10	 mov	 QWORD PTR [rsp+16], rdx
  00005	48 89 4c 24 08	 mov	 QWORD PTR [rsp+8], rcx
  0000a	57		 push	 rdi
  0000b	48 83 ec 30	 sub	 rsp, 48			; 00000030H

; 152  : #ifdef __cpp_lib_constexpr_dynamic_alloc
; 153  :     if (_STD is_constant_evaluated()) {
; 154  :         _STD construct_at(_STD addressof(_Obj), _STD forward<_Types>(_Args)...);
; 155  :     } else
; 156  : #endif // __cpp_lib_constexpr_dynamic_alloc
; 157  :     {
; 158  :         ::new (_Voidify_iter(_STD addressof(_Obj))) _Ty(_STD forward<_Types>(_Args)...);

  0000f	48 8b 4c 24 40	 mov	 rcx, QWORD PTR _Obj$[rsp]
  00014	e8 00 00 00 00	 call	 ??$addressof@PEAH@std@@YAPEAPEAHAEAPEAH@Z ; std::addressof<int *>
  00019	48 8b c8	 mov	 rcx, rax
  0001c	e8 00 00 00 00	 call	 ??$_Voidify_iter@PEAPEAH@std@@YAPEAXPEAPEAH@Z ; std::_Voidify_iter<int * *>
  00021	48 8b d0	 mov	 rdx, rax
  00024	b9 08 00 00 00	 mov	 ecx, 8
  00029	e8 00 00 00 00	 call	 ??2@YAPEAX_KPEAX@Z	; operator new
  0002e	48 89 44 24 20	 mov	 QWORD PTR $T1[rsp], rax
  00033	48 8b 4c 24 48	 mov	 rcx, QWORD PTR <_Args_0>$[rsp]
  00038	e8 00 00 00 00	 call	 ??$forward@AEAPEAH@std@@YAAEAPEAHAEAPEAH@Z ; std::forward<int * &>
  0003d	48 8b 4c 24 20	 mov	 rcx, QWORD PTR $T1[rsp]
  00042	48 8b 00	 mov	 rax, QWORD PTR [rax]
  00045	48 89 01	 mov	 QWORD PTR [rcx], rax

; 159  :     }
; 160  : }

  00048	48 83 c4 30	 add	 rsp, 48			; 00000030H
  0004c	5f		 pop	 rdi
  0004d	c3		 ret	 0
??$_Construct_in_place@PEAHAEAPEAH@std@@YAXAEAPEAH0@Z ENDP ; std::_Construct_in_place<int *,int * &>
_TEXT	ENDS
; Function compile flags: /Odtp /RTCsu
; File C:\Program Files (x86)\Microsoft Visual Studio\2019\Community\VC\Tools\MSVC\14.29.30037\include\type_traits
;	COMDAT ??$forward@AEAPEAH@std@@YAAEAPEAHAEAPEAH@Z
_TEXT	SEGMENT
_Arg$ = 16
??$forward@AEAPEAH@std@@YAAEAPEAHAEAPEAH@Z PROC		; std::forward<int * &>, COMDAT

; 1443 :     remove_reference_t<_Ty>& _Arg) noexcept { // forward an lvalue as either an lvalue or an rvalue

$LN3:
  00000	48 89 4c 24 08	 mov	 QWORD PTR [rsp+8], rcx
  00005	57		 push	 rdi

; 1444 :     return static_cast<_Ty&&>(_Arg);

  00006	48 8b 44 24 10	 mov	 rax, QWORD PTR _Arg$[rsp]

; 1445 : }

  0000b	5f		 pop	 rdi
  0000c	c3		 ret	 0
??$forward@AEAPEAH@std@@YAAEAPEAHAEAPEAH@Z ENDP		; std::forward<int * &>
_TEXT	ENDS
; Function compile flags: /Odtp /RTCsu
; File C:\Program Files (x86)\Microsoft Visual Studio\2019\Community\VC\Tools\MSVC\14.29.30037\include\xutility
;	COMDAT ??$_To_address@PEAPEAH@std@@YA?A_PAEBQEAPEAH@Z
_TEXT	SEGMENT
_Val$ = 16
??$_To_address@PEAPEAH@std@@YA?A_PAEBQEAPEAH@Z PROC	; std::_To_address<int * *>, COMDAT

; 4074 : _NODISCARD constexpr auto _To_address(const _Iter& _Val) noexcept {

$LN3:
  00000	48 89 4c 24 08	 mov	 QWORD PTR [rsp+8], rcx
  00005	57		 push	 rdi

; 4075 :     _STL_INTERNAL_STATIC_ASSERT(is_pointer_v<_Iter>);
; 4076 :     return _Val;

  00006	48 8b 44 24 10	 mov	 rax, QWORD PTR _Val$[rsp]
  0000b	48 8b 00	 mov	 rax, QWORD PTR [rax]

; 4077 : }

  0000e	5f		 pop	 rdi
  0000f	c3		 ret	 0
??$_To_address@PEAPEAH@std@@YA?A_PAEBQEAPEAH@Z ENDP	; std::_To_address<int * *>
_TEXT	ENDS
; Function compile flags: /Odtp /RTCsu
; File C:\Program Files (x86)\Microsoft Visual Studio\2019\Community\VC\Tools\MSVC\14.29.30037\include\type_traits
;	COMDAT ??$forward@PEAPEAH@std@@YA$$QEAPEAPEAHAEAPEAPEAH@Z
_TEXT	SEGMENT
_Arg$ = 16
??$forward@PEAPEAH@std@@YA$$QEAPEAPEAHAEAPEAPEAH@Z PROC	; std::forward<int * *>, COMDAT

; 1443 :     remove_reference_t<_Ty>& _Arg) noexcept { // forward an lvalue as either an lvalue or an rvalue

$LN3:
  00000	48 89 4c 24 08	 mov	 QWORD PTR [rsp+8], rcx
  00005	57		 push	 rdi

; 1444 :     return static_cast<_Ty&&>(_Arg);

  00006	48 8b 44 24 10	 mov	 rax, QWORD PTR _Arg$[rsp]

; 1445 : }

  0000b	5f		 pop	 rdi
  0000c	c3		 ret	 0
??$forward@PEAPEAH@std@@YA$$QEAPEAPEAHAEAPEAPEAH@Z ENDP	; std::forward<int * *>
_TEXT	ENDS
; Function compile flags: /Odtp /RTCsu
; File C:\Program Files (x86)\Microsoft Visual Studio\2019\Community\VC\Tools\MSVC\14.29.30037\include\xmemory
;	COMDAT ??$_Emplace_back@AEAPEAH@?$_Uninitialized_backout@PEAPEAH@std@@QEAAXAEAPEAH@Z
_TEXT	SEGMENT
this$ = 48
<_Vals_0>$ = 56
??$_Emplace_back@AEAPEAH@?$_Uninitialized_backout@PEAPEAH@std@@QEAAXAEAPEAH@Z PROC ; std::_Uninitialized_backout<int * *>::_Emplace_back<int * &>, COMDAT

; 1472 :     _CONSTEXPR20_DYNALLOC void _Emplace_back(_Types&&... _Vals) {

$LN3:
  00000	48 89 54 24 10	 mov	 QWORD PTR [rsp+16], rdx
  00005	48 89 4c 24 08	 mov	 QWORD PTR [rsp+8], rcx
  0000a	57		 push	 rdi
  0000b	48 83 ec 20	 sub	 rsp, 32			; 00000020H

; 1473 :         // construct a new element at *_Last and increment
; 1474 :         _Construct_in_place(*_Last, _STD forward<_Types>(_Vals)...);

  0000f	48 8b 4c 24 38	 mov	 rcx, QWORD PTR <_Vals_0>$[rsp]
  00014	e8 00 00 00 00	 call	 ??$forward@AEAPEAH@std@@YAAEAPEAHAEAPEAH@Z ; std::forward<int * &>
  00019	48 8b d0	 mov	 rdx, rax
  0001c	48 8b 44 24 30	 mov	 rax, QWORD PTR this$[rsp]
  00021	48 8b 48 08	 mov	 rcx, QWORD PTR [rax+8]
  00025	e8 00 00 00 00	 call	 ??$_Construct_in_place@PEAHAEAPEAH@std@@YAXAEAPEAH0@Z ; std::_Construct_in_place<int *,int * &>

; 1475 :         ++_Last;

  0002a	48 8b 44 24 30	 mov	 rax, QWORD PTR this$[rsp]
  0002f	48 8b 40 08	 mov	 rax, QWORD PTR [rax+8]
  00033	48 83 c0 08	 add	 rax, 8
  00037	48 8b 4c 24 30	 mov	 rcx, QWORD PTR this$[rsp]
  0003c	48 89 41 08	 mov	 QWORD PTR [rcx+8], rax

; 1476 :     }

  00040	48 83 c4 20	 add	 rsp, 32			; 00000020H
  00044	5f		 pop	 rdi
  00045	c3		 ret	 0
??$_Emplace_back@AEAPEAH@?$_Uninitialized_backout@PEAPEAH@std@@QEAAXAEAPEAH@Z ENDP ; std::_Uninitialized_backout<int * *>::_Emplace_back<int * &>
_TEXT	ENDS
; Function compile flags: /Odtp /RTCsu
; File C:\Program Files (x86)\Microsoft Visual Studio\2019\Community\VC\Tools\MSVC\14.29.30037\include\xmemory
;	COMDAT ?_Release@?$_Uninitialized_backout@PEAPEAH@std@@QEAAPEAPEAHXZ
_TEXT	SEGMENT
this$ = 16
?_Release@?$_Uninitialized_backout@PEAPEAH@std@@QEAAPEAPEAHXZ PROC ; std::_Uninitialized_backout<int * *>::_Release, COMDAT

; 1478 :     constexpr _NoThrowFwdIt _Release() { // suppress any exception handling backout and return _Last

$LN3:
  00000	48 89 4c 24 08	 mov	 QWORD PTR [rsp+8], rcx
  00005	57		 push	 rdi

; 1479 :         _First = _Last;

  00006	48 8b 44 24 10	 mov	 rax, QWORD PTR this$[rsp]
  0000b	48 8b 4c 24 10	 mov	 rcx, QWORD PTR this$[rsp]
  00010	48 8b 49 08	 mov	 rcx, QWORD PTR [rcx+8]
  00014	48 89 08	 mov	 QWORD PTR [rax], rcx

; 1480 :         return _Last;

  00017	48 8b 44 24 10	 mov	 rax, QWORD PTR this$[rsp]
  0001c	48 8b 40 08	 mov	 rax, QWORD PTR [rax+8]

; 1481 :     }

  00020	5f		 pop	 rdi
  00021	c3		 ret	 0
?_Release@?$_Uninitialized_backout@PEAPEAH@std@@QEAAPEAPEAHXZ ENDP ; std::_Uninitialized_backout<int * *>::_Release
_TEXT	ENDS
; Function compile flags: /Odtp /RTCsu
; File C:\Program Files (x86)\Microsoft Visual Studio\2019\Community\VC\Tools\MSVC\14.29.30037\include\xmemory
;	COMDAT ??1?$_Uninitialized_backout@PEAPEAH@std@@QEAA@XZ
_TEXT	SEGMENT
this$ = 48
??1?$_Uninitialized_backout@PEAPEAH@std@@QEAA@XZ PROC	; std::_Uninitialized_backout<int * *>::~_Uninitialized_backout<int * *>, COMDAT

; 1467 :     _CONSTEXPR20_DYNALLOC ~_Uninitialized_backout() {

$LN3:
  00000	48 89 4c 24 08	 mov	 QWORD PTR [rsp+8], rcx
  00005	57		 push	 rdi
  00006	48 83 ec 20	 sub	 rsp, 32			; 00000020H

; 1468 :         _Destroy_range(_First, _Last);

  0000a	48 8b 44 24 30	 mov	 rax, QWORD PTR this$[rsp]
  0000f	48 8b 50 08	 mov	 rdx, QWORD PTR [rax+8]
  00013	48 8b 44 24 30	 mov	 rax, QWORD PTR this$[rsp]
  00018	48 8b 08	 mov	 rcx, QWORD PTR [rax]
  0001b	e8 00 00 00 00	 call	 ??$_Destroy_range@PEAPEAHPEAPEAH@std@@YAXPEAPEAHQEAPEAH@Z ; std::_Destroy_range<int * *,int * *>

; 1469 :     }

  00020	48 83 c4 20	 add	 rsp, 32			; 00000020H
  00024	5f		 pop	 rdi
  00025	c3		 ret	 0
??1?$_Uninitialized_backout@PEAPEAH@std@@QEAA@XZ ENDP	; std::_Uninitialized_backout<int * *>::~_Uninitialized_backout<int * *>
_TEXT	ENDS
; Function compile flags: /Odtp /RTCsu
; File C:\Program Files (x86)\Microsoft Visual Studio\2019\Community\VC\Tools\MSVC\14.29.30037\include\xmemory
;	COMDAT ??0?$_Uninitialized_backout@PEAPEAH@std@@QEAA@PEAPEAH@Z
_TEXT	SEGMENT
this$ = 16
_Dest$ = 24
??0?$_Uninitialized_backout@PEAPEAH@std@@QEAA@PEAPEAH@Z PROC ; std::_Uninitialized_backout<int * *>::_Uninitialized_backout<int * *>, COMDAT

; 1460 :     constexpr explicit _Uninitialized_backout(_NoThrowFwdIt _Dest) : _First(_Dest), _Last(_Dest) {}

$LN3:
  00000	48 89 54 24 10	 mov	 QWORD PTR [rsp+16], rdx
  00005	48 89 4c 24 08	 mov	 QWORD PTR [rsp+8], rcx
  0000a	57		 push	 rdi
  0000b	48 8b 44 24 10	 mov	 rax, QWORD PTR this$[rsp]
  00010	48 8b 4c 24 18	 mov	 rcx, QWORD PTR _Dest$[rsp]
  00015	48 89 08	 mov	 QWORD PTR [rax], rcx
  00018	48 8b 44 24 10	 mov	 rax, QWORD PTR this$[rsp]
  0001d	48 8b 4c 24 18	 mov	 rcx, QWORD PTR _Dest$[rsp]
  00022	48 89 48 08	 mov	 QWORD PTR [rax+8], rcx
  00026	48 8b 44 24 10	 mov	 rax, QWORD PTR this$[rsp]
  0002b	5f		 pop	 rdi
  0002c	c3		 ret	 0
??0?$_Uninitialized_backout@PEAPEAH@std@@QEAA@PEAPEAH@Z ENDP ; std::_Uninitialized_backout<int * *>::_Uninitialized_backout<int * *>
_TEXT	ENDS
; Function compile flags: /Odtp /RTCsu
; File C:\Program Files (x86)\Microsoft Visual Studio\2019\Community\VC\Tools\MSVC\14.29.30037\include\xutility
;	COMDAT ??$_Copy_memmove@PEAPEAHPEAPEAH@std@@YAPEAPEAHPEAPEAH00@Z
_TEXT	SEGMENT
_FirstPtr$ = 32
_LastPtr$ = 40
_DestPtr$ = 48
_First_ch$ = 56
_Last_ch$ = 64
_Dest_ch$ = 72
_Count$ = 80
_First$ = 112
_Last$ = 120
_Dest$ = 128
??$_Copy_memmove@PEAPEAHPEAPEAH@std@@YAPEAPEAHPEAPEAH00@Z PROC ; std::_Copy_memmove<int * *,int * *>, COMDAT

; 4153 : _OutCtgIt _Copy_memmove(_CtgIt _First, _CtgIt _Last, _OutCtgIt _Dest) {

$LN3:
  00000	4c 89 44 24 18	 mov	 QWORD PTR [rsp+24], r8
  00005	48 89 54 24 10	 mov	 QWORD PTR [rsp+16], rdx
  0000a	48 89 4c 24 08	 mov	 QWORD PTR [rsp+8], rcx
  0000f	57		 push	 rdi
  00010	48 83 ec 60	 sub	 rsp, 96			; 00000060H

; 4154 :     auto _FirstPtr              = _To_address(_First);

  00014	48 8d 4c 24 70	 lea	 rcx, QWORD PTR _First$[rsp]
  00019	e8 00 00 00 00	 call	 ??$_To_address@PEAPEAH@std@@YA?A_PAEBQEAPEAH@Z ; std::_To_address<int * *>
  0001e	48 89 44 24 20	 mov	 QWORD PTR _FirstPtr$[rsp], rax

; 4155 :     auto _LastPtr               = _To_address(_Last);

  00023	48 8d 4c 24 78	 lea	 rcx, QWORD PTR _Last$[rsp]
  00028	e8 00 00 00 00	 call	 ??$_To_address@PEAPEAH@std@@YA?A_PAEBQEAPEAH@Z ; std::_To_address<int * *>
  0002d	48 89 44 24 28	 mov	 QWORD PTR _LastPtr$[rsp], rax

; 4156 :     auto _DestPtr               = _To_address(_Dest);

  00032	48 8d 8c 24 80
	00 00 00	 lea	 rcx, QWORD PTR _Dest$[rsp]
  0003a	e8 00 00 00 00	 call	 ??$_To_address@PEAPEAH@std@@YA?A_PAEBQEAPEAH@Z ; std::_To_address<int * *>
  0003f	48 89 44 24 30	 mov	 QWORD PTR _DestPtr$[rsp], rax

; 4157 :     const char* const _First_ch = const_cast<const char*>(reinterpret_cast<const volatile char*>(_FirstPtr));

  00044	48 8b 44 24 20	 mov	 rax, QWORD PTR _FirstPtr$[rsp]
  00049	48 89 44 24 38	 mov	 QWORD PTR _First_ch$[rsp], rax

; 4158 :     const char* const _Last_ch  = const_cast<const char*>(reinterpret_cast<const volatile char*>(_LastPtr));

  0004e	48 8b 44 24 28	 mov	 rax, QWORD PTR _LastPtr$[rsp]
  00053	48 89 44 24 40	 mov	 QWORD PTR _Last_ch$[rsp], rax

; 4159 :     char* const _Dest_ch        = const_cast<char*>(reinterpret_cast<const volatile char*>(_DestPtr));

  00058	48 8b 44 24 30	 mov	 rax, QWORD PTR _DestPtr$[rsp]
  0005d	48 89 44 24 48	 mov	 QWORD PTR _Dest_ch$[rsp], rax

; 4160 :     const auto _Count           = static_cast<size_t>(_Last_ch - _First_ch);

  00062	48 8b 44 24 38	 mov	 rax, QWORD PTR _First_ch$[rsp]
  00067	48 8b 4c 24 40	 mov	 rcx, QWORD PTR _Last_ch$[rsp]
  0006c	48 2b c8	 sub	 rcx, rax
  0006f	48 8b c1	 mov	 rax, rcx
  00072	48 89 44 24 50	 mov	 QWORD PTR _Count$[rsp], rax

; 4161 :     _CSTD memmove(_Dest_ch, _First_ch, _Count);

  00077	4c 8b 44 24 50	 mov	 r8, QWORD PTR _Count$[rsp]
  0007c	48 8b 54 24 38	 mov	 rdx, QWORD PTR _First_ch$[rsp]
  00081	48 8b 4c 24 48	 mov	 rcx, QWORD PTR _Dest_ch$[rsp]
  00086	e8 00 00 00 00	 call	 memmove

; 4162 :     if constexpr (is_pointer_v<_OutCtgIt>) {
; 4163 :         return reinterpret_cast<_OutCtgIt>(_Dest_ch + _Count);

  0008b	48 8b 44 24 50	 mov	 rax, QWORD PTR _Count$[rsp]
  00090	48 8b 4c 24 48	 mov	 rcx, QWORD PTR _Dest_ch$[rsp]
  00095	48 03 c8	 add	 rcx, rax
  00098	48 8b c1	 mov	 rax, rcx

; 4164 :     } else {
; 4165 :         return _Dest + (_LastPtr - _FirstPtr);
; 4166 :     }
; 4167 : }

  0009b	48 83 c4 60	 add	 rsp, 96			; 00000060H
  0009f	5f		 pop	 rdi
  000a0	c3		 ret	 0
??$_Copy_memmove@PEAPEAHPEAPEAH@std@@YAPEAPEAHPEAPEAH00@Z ENDP ; std::_Copy_memmove<int * *,int * *>
_TEXT	ENDS
; Function compile flags: /Odtp /RTCsu
; File C:\Program Files (x86)\Microsoft Visual Studio\2019\Community\VC\Tools\MSVC\14.29.30037\include\xutility
;	COMDAT ??$_Verify_range@PEAH@std@@YAXQEBQEAH0@Z
_TEXT	SEGMENT
_First$ = 64
_Last$ = 72
??$_Verify_range@PEAH@std@@YAXQEBQEAH0@Z PROC		; std::_Verify_range<int *>, COMDAT

; 1285 : constexpr void _Verify_range(const _Ty* const _First, const _Ty* const _Last) noexcept {

$LN12:
  00000	48 89 54 24 10	 mov	 QWORD PTR [rsp+16], rdx
  00005	48 89 4c 24 08	 mov	 QWORD PTR [rsp+8], rcx
  0000a	57		 push	 rdi
  0000b	48 83 ec 30	 sub	 rsp, 48			; 00000030H
$LN4@Verify_ran:

; 1286 :     // special case range verification for pointers
; 1287 :     _STL_VERIFY(_First <= _Last, "transposed pointer range");

  0000f	48 8b 44 24 48	 mov	 rax, QWORD PTR _Last$[rsp]
  00014	48 39 44 24 40	 cmp	 QWORD PTR _First$[rsp], rax
  00019	77 02		 ja	 SHORT $LN7@Verify_ran
  0001b	eb 6b		 jmp	 SHORT $LN9@Verify_ran
$LN7@Verify_ran:
  0001d	48 8d 05 00 00
	00 00		 lea	 rax, OFFSET FLAT:??_C@_0BJ@HAJGEHKO@transposed?5pointer?5range@
  00024	48 89 44 24 28	 mov	 QWORD PTR [rsp+40], rax
  00029	48 8d 05 00 00
	00 00		 lea	 rax, OFFSET FLAT:??_C@_02DKCKIIND@?$CFs@
  00030	48 89 44 24 20	 mov	 QWORD PTR [rsp+32], rax
  00035	45 33 c9	 xor	 r9d, r9d
  00038	41 b8 07 05 00
	00		 mov	 r8d, 1287		; 00000507H
  0003e	48 8d 15 00 00
	00 00		 lea	 rdx, OFFSET FLAT:??_C@_0GJ@LJDCNNIF@C?3?2Program?5Files?5?$CIx86?$CJ?2Microsof@
  00045	b9 02 00 00 00	 mov	 ecx, 2
  0004a	ff 15 00 00 00
	00		 call	 QWORD PTR __imp__CrtDbgReport
  00050	83 f8 01	 cmp	 eax, 1
  00053	75 03		 jne	 SHORT $LN11@Verify_ran
  00055	cc		 int	 3
  00056	33 c0		 xor	 eax, eax
$LN11@Verify_ran:
  00058	48 c7 44 24 20
	00 00 00 00	 mov	 QWORD PTR [rsp+32], 0
  00061	41 b9 07 05 00
	00		 mov	 r9d, 1287		; 00000507H
  00067	4c 8d 05 00 00
	00 00		 lea	 r8, OFFSET FLAT:??_C@_1NC@HPCGBKBF@?$AAC?$AA?3?$AA?2?$AAP?$AAr?$AAo?$AAg?$AAr?$AAa?$AAm?$AA?5?$AAF?$AAi?$AAl?$AAe@
  0006e	48 8d 15 00 00
	00 00		 lea	 rdx, OFFSET FLAT:??_C@_1CG@LJCPDKEJ@?$AAs?$AAt?$AAd?$AA?3?$AA?3?$AA_?$AAV?$AAe?$AAr?$AAi?$AAf?$AAy?$AA_?$AAr?$AAa@
  00075	48 8d 0d 00 00
	00 00		 lea	 rcx, OFFSET FLAT:??_C@_1DG@FJIKMGFD@?$AA?$CC?$AAt?$AAr?$AAa?$AAn?$AAs?$AAp?$AAo?$AAs?$AAe?$AAd?$AA?5?$AAp?$AAo?$AAi@
  0007c	ff 15 00 00 00
	00		 call	 QWORD PTR __imp__invalid_parameter
  00082	33 c0		 xor	 eax, eax
  00084	85 c0		 test	 eax, eax
  00086	75 95		 jne	 SHORT $LN7@Verify_ran
$LN9@Verify_ran:
  00088	33 c0		 xor	 eax, eax
  0008a	85 c0		 test	 eax, eax
  0008c	75 81		 jne	 SHORT $LN4@Verify_ran

; 1288 : }

  0008e	48 83 c4 30	 add	 rsp, 48			; 00000030H
  00092	5f		 pop	 rdi
  00093	c3		 ret	 0
??$_Verify_range@PEAH@std@@YAXQEBQEAH0@Z ENDP		; std::_Verify_range<int *>
_TEXT	ENDS
; Function compile flags: /Odtp /RTCsu
; File C:\Program Files (x86)\Microsoft Visual Studio\2019\Community\VC\Tools\MSVC\14.29.30037\include\xmemory
;	COMDAT ??$_Zero_range@PEAPEAH@std@@YAPEAPEAHQEAPEAH0@Z
_TEXT	SEGMENT
_First_ch$ = 32
_Last_ch$ = 40
_First$ = 64
_Last$ = 72
??$_Zero_range@PEAPEAH@std@@YAPEAPEAHQEAPEAH0@Z PROC	; std::_Zero_range<int * *>, COMDAT

; 1786 : _Ptr _Zero_range(const _Ptr _First, const _Ptr _Last) { // fill [_First, _Last) with zeroes

$LN3:
  00000	48 89 54 24 10	 mov	 QWORD PTR [rsp+16], rdx
  00005	48 89 4c 24 08	 mov	 QWORD PTR [rsp+8], rcx
  0000a	57		 push	 rdi
  0000b	48 83 ec 30	 sub	 rsp, 48			; 00000030H

; 1787 :     char* const _First_ch = reinterpret_cast<char*>(_To_address(_First));

  0000f	48 8d 4c 24 40	 lea	 rcx, QWORD PTR _First$[rsp]
  00014	e8 00 00 00 00	 call	 ??$_To_address@PEAPEAH@std@@YA?A_PAEBQEAPEAH@Z ; std::_To_address<int * *>
  00019	48 89 44 24 20	 mov	 QWORD PTR _First_ch$[rsp], rax

; 1788 :     char* const _Last_ch  = reinterpret_cast<char*>(_To_address(_Last));

  0001e	48 8d 4c 24 48	 lea	 rcx, QWORD PTR _Last$[rsp]
  00023	e8 00 00 00 00	 call	 ??$_To_address@PEAPEAH@std@@YA?A_PAEBQEAPEAH@Z ; std::_To_address<int * *>
  00028	48 89 44 24 28	 mov	 QWORD PTR _Last_ch$[rsp], rax

; 1789 :     _CSTD memset(_First_ch, 0, static_cast<size_t>(_Last_ch - _First_ch));

  0002d	48 8b 44 24 20	 mov	 rax, QWORD PTR _First_ch$[rsp]
  00032	48 8b 4c 24 28	 mov	 rcx, QWORD PTR _Last_ch$[rsp]
  00037	48 2b c8	 sub	 rcx, rax
  0003a	48 8b c1	 mov	 rax, rcx
  0003d	4c 8b c0	 mov	 r8, rax
  00040	33 d2		 xor	 edx, edx
  00042	48 8b 4c 24 20	 mov	 rcx, QWORD PTR _First_ch$[rsp]
  00047	e8 00 00 00 00	 call	 memset

; 1790 :     return _Last;

  0004c	48 8b 44 24 48	 mov	 rax, QWORD PTR _Last$[rsp]

; 1791 : }

  00051	48 83 c4 30	 add	 rsp, 48			; 00000030H
  00055	5f		 pop	 rdi
  00056	c3		 ret	 0
??$_Zero_range@PEAPEAH@std@@YAPEAPEAHQEAPEAH0@Z ENDP	; std::_Zero_range<int * *>
_TEXT	ENDS
; Function compile flags: /Odtp /RTCsu
; File C:\Program Files (x86)\Microsoft Visual Studio\2019\Community\VC\Tools\MSVC\14.29.30037\include\xutility
;	COMDAT ??$_Seek_wrapped@PEAPEAHPEAPEAH@std@@YAXAEAPEAPEAH$$QEAPEAPEAH@Z
_TEXT	SEGMENT
_It$ = 48
_UIt$ = 56
??$_Seek_wrapped@PEAPEAHPEAPEAH@std@@YAXAEAPEAPEAH$$QEAPEAPEAH@Z PROC ; std::_Seek_wrapped<int * *,int * *>, COMDAT

; 1427 : constexpr void _Seek_wrapped(_Iter& _It, _UIter&& _UIt) {

$LN3:
  00000	48 89 54 24 10	 mov	 QWORD PTR [rsp+16], rdx
  00005	48 89 4c 24 08	 mov	 QWORD PTR [rsp+8], rcx
  0000a	57		 push	 rdi
  0000b	48 83 ec 20	 sub	 rsp, 32			; 00000020H

; 1428 :     if constexpr (_Wrapped_seekable_v<_Iter, _UIter>) {
; 1429 :         _It._Seek_to(_STD forward<_UIter>(_UIt));
; 1430 :     } else {
; 1431 :         _It = _STD forward<_UIter>(_UIt);

  0000f	48 8b 4c 24 38	 mov	 rcx, QWORD PTR _UIt$[rsp]
  00014	e8 00 00 00 00	 call	 ??$forward@PEAPEAH@std@@YA$$QEAPEAPEAHAEAPEAPEAH@Z ; std::forward<int * *>
  00019	48 8b 4c 24 30	 mov	 rcx, QWORD PTR _It$[rsp]
  0001e	48 8b 00	 mov	 rax, QWORD PTR [rax]
  00021	48 89 01	 mov	 QWORD PTR [rcx], rax

; 1432 :     }
; 1433 : }

  00024	48 83 c4 20	 add	 rsp, 32			; 00000020H
  00028	5f		 pop	 rdi
  00029	c3		 ret	 0
??$_Seek_wrapped@PEAPEAHPEAPEAH@std@@YAXAEAPEAPEAH$$QEAPEAPEAH@Z ENDP ; std::_Seek_wrapped<int * *,int * *>
_TEXT	ENDS
; Function compile flags: /Odtp /RTCsu
; File C:\Program Files (x86)\Microsoft Visual Studio\2019\Community\VC\Tools\MSVC\14.29.30037\include\xmemory
;	COMDAT ??$_Uninitialized_copy_unchecked@PEAPEAHPEAPEAH@std@@YAPEAPEAHPEAPEAHQEAPEAH0@Z
_TEXT	SEGMENT
_Backout$ = 40
$T4 = 72
_First$ = 96
_Last$ = 104
_Dest$ = 112
??$_Uninitialized_copy_unchecked@PEAPEAHPEAPEAH@std@@YAPEAPEAHPEAPEAHQEAPEAH0@Z PROC ; std::_Uninitialized_copy_unchecked<int * *,int * *>, COMDAT

; 1660 :     _InIt _First, const _InIt _Last, _NoThrowFwdIt _Dest) {

$LN7:
  00000	4c 89 44 24 18	 mov	 QWORD PTR [rsp+24], r8
  00005	48 89 54 24 10	 mov	 QWORD PTR [rsp+16], rdx
  0000a	48 89 4c 24 08	 mov	 QWORD PTR [rsp+8], rcx
  0000f	57		 push	 rdi
  00010	48 83 ec 50	 sub	 rsp, 80			; 00000050H
  00014	48 8d 7c 24 20	 lea	 rdi, QWORD PTR [rsp+32]
  00019	b9 0c 00 00 00	 mov	 ecx, 12
  0001e	b8 cc cc cc cc	 mov	 eax, -858993460		; ccccccccH
  00023	f3 ab		 rep stosd
  00025	48 8b 4c 24 60	 mov	 rcx, QWORD PTR [rsp+96]

; 1661 :     // copy [_First, _Last) to raw [_Dest, ...)
; 1662 :     if constexpr (_Ptr_copy_cat<_InIt, _NoThrowFwdIt>::_Really_trivial) {
; 1663 : #ifdef __cpp_lib_constexpr_dynamic_alloc
; 1664 :         if (!_STD is_constant_evaluated())
; 1665 : #endif // __cpp_lib_constexpr_dynamic_alloc
; 1666 :         {
; 1667 :             return _Copy_memmove(_First, _Last, _Dest);

  0002a	4c 8b 44 24 70	 mov	 r8, QWORD PTR _Dest$[rsp]
  0002f	48 8b 54 24 68	 mov	 rdx, QWORD PTR _Last$[rsp]
  00034	48 8b 4c 24 60	 mov	 rcx, QWORD PTR _First$[rsp]
  00039	e8 00 00 00 00	 call	 ??$_Copy_memmove@PEAPEAHPEAPEAH@std@@YAPEAPEAHPEAPEAH00@Z ; std::_Copy_memmove<int * *,int * *>
  0003e	eb 5a		 jmp	 SHORT $LN1@Uninitiali

; 1668 :         }
; 1669 :     }
; 1670 : 
; 1671 :     _Uninitialized_backout<_NoThrowFwdIt> _Backout{_Dest};

  00040	48 8b 54 24 70	 mov	 rdx, QWORD PTR _Dest$[rsp]
  00045	48 8d 4c 24 28	 lea	 rcx, QWORD PTR _Backout$[rsp]
  0004a	e8 00 00 00 00	 call	 ??0?$_Uninitialized_backout@PEAPEAH@std@@QEAA@PEAPEAH@Z ; std::_Uninitialized_backout<int * *>::_Uninitialized_backout<int * *>

; 1672 :     for (; _First != _Last; ++_First) {

  0004f	eb 0e		 jmp	 SHORT $LN4@Uninitiali
$LN2@Uninitiali:
  00051	48 8b 44 24 60	 mov	 rax, QWORD PTR _First$[rsp]
  00056	48 83 c0 08	 add	 rax, 8
  0005a	48 89 44 24 60	 mov	 QWORD PTR _First$[rsp], rax
$LN4@Uninitiali:
  0005f	48 8b 44 24 68	 mov	 rax, QWORD PTR _Last$[rsp]
  00064	48 39 44 24 60	 cmp	 QWORD PTR _First$[rsp], rax
  00069	74 11		 je	 SHORT $LN3@Uninitiali

; 1673 :         _Backout._Emplace_back(*_First);

  0006b	48 8b 54 24 60	 mov	 rdx, QWORD PTR _First$[rsp]
  00070	48 8d 4c 24 28	 lea	 rcx, QWORD PTR _Backout$[rsp]
  00075	e8 00 00 00 00	 call	 ??$_Emplace_back@AEAPEAH@?$_Uninitialized_backout@PEAPEAH@std@@QEAAXAEAPEAH@Z ; std::_Uninitialized_backout<int * *>::_Emplace_back<int * &>

; 1674 :     }

  0007a	eb d5		 jmp	 SHORT $LN2@Uninitiali
$LN3@Uninitiali:

; 1675 : 
; 1676 :     return _Backout._Release();

  0007c	48 8d 4c 24 28	 lea	 rcx, QWORD PTR _Backout$[rsp]
  00081	e8 00 00 00 00	 call	 ?_Release@?$_Uninitialized_backout@PEAPEAH@std@@QEAAPEAPEAHXZ ; std::_Uninitialized_backout<int * *>::_Release
  00086	48 89 44 24 48	 mov	 QWORD PTR $T4[rsp], rax
  0008b	48 8d 4c 24 28	 lea	 rcx, QWORD PTR _Backout$[rsp]
  00090	e8 00 00 00 00	 call	 ??1?$_Uninitialized_backout@PEAPEAH@std@@QEAA@XZ ; std::_Uninitialized_backout<int * *>::~_Uninitialized_backout<int * *>
  00095	48 8b 44 24 48	 mov	 rax, QWORD PTR $T4[rsp]
$LN1@Uninitiali:

; 1677 : }

  0009a	48 8b f8	 mov	 rdi, rax
  0009d	48 8b cc	 mov	 rcx, rsp
  000a0	48 8d 15 00 00
	00 00		 lea	 rdx, OFFSET FLAT:??$_Uninitialized_copy_unchecked@PEAPEAHPEAPEAH@std@@YAPEAPEAHPEAPEAHQEAPEAH0@Z$rtcFrameData
  000a7	e8 00 00 00 00	 call	 _RTC_CheckStackVars
  000ac	48 8b c7	 mov	 rax, rdi
  000af	48 83 c4 50	 add	 rsp, 80			; 00000050H
  000b3	5f		 pop	 rdi
  000b4	c3		 ret	 0
??$_Uninitialized_copy_unchecked@PEAPEAHPEAPEAH@std@@YAPEAPEAHPEAPEAHQEAPEAH0@Z ENDP ; std::_Uninitialized_copy_unchecked<int * *,int * *>
_TEXT	ENDS
;	COMDAT text$x
text$x	SEGMENT
_Backout$ = 40
$T4 = 72
_First$ = 96
_Last$ = 104
_Dest$ = 112
?dtor$0@?0???$_Uninitialized_copy_unchecked@PEAPEAHPEAPEAH@std@@YAPEAPEAHPEAPEAHQEAPEAH0@Z@4HA PROC ; `std::_Uninitialized_copy_unchecked<int * *,int * *>'::`1'::dtor$0
  00000	48 89 4c 24 08	 mov	 QWORD PTR [rsp+8], rcx
  00005	48 89 54 24 10	 mov	 QWORD PTR [rsp+16], rdx
  0000a	55		 push	 rbp
  0000b	57		 push	 rdi
  0000c	48 83 ec 28	 sub	 rsp, 40			; 00000028H
  00010	48 8b ea	 mov	 rbp, rdx
  00013	48 8d 4d 28	 lea	 rcx, QWORD PTR _Backout$[rbp]
  00017	e8 00 00 00 00	 call	 ??1?$_Uninitialized_backout@PEAPEAH@std@@QEAA@XZ ; std::_Uninitialized_backout<int * *>::~_Uninitialized_backout<int * *>
  0001c	48 83 c4 28	 add	 rsp, 40			; 00000028H
  00020	5f		 pop	 rdi
  00021	5d		 pop	 rbp
  00022	c3		 ret	 0
?dtor$0@?0???$_Uninitialized_copy_unchecked@PEAPEAHPEAPEAH@std@@YAPEAPEAHPEAPEAHQEAPEAH0@Z@4HA ENDP ; `std::_Uninitialized_copy_unchecked<int * *,int * *>'::`1'::dtor$0
text$x	ENDS
; Function compile flags: /Odtp /RTCsu
;	COMDAT text$x
text$x	SEGMENT
_Backout$ = 40
$T4 = 72
_First$ = 96
_Last$ = 104
_Dest$ = 112
?dtor$0@?0???$_Uninitialized_copy_unchecked@PEAPEAHPEAPEAH@std@@YAPEAPEAHPEAPEAHQEAPEAH0@Z@4HA PROC ; `std::_Uninitialized_copy_unchecked<int * *,int * *>'::`1'::dtor$0
  00000	48 89 4c 24 08	 mov	 QWORD PTR [rsp+8], rcx
  00005	48 89 54 24 10	 mov	 QWORD PTR [rsp+16], rdx
  0000a	55		 push	 rbp
  0000b	57		 push	 rdi
  0000c	48 83 ec 28	 sub	 rsp, 40			; 00000028H
  00010	48 8b ea	 mov	 rbp, rdx
  00013	48 8d 4d 28	 lea	 rcx, QWORD PTR _Backout$[rbp]
  00017	e8 00 00 00 00	 call	 ??1?$_Uninitialized_backout@PEAPEAH@std@@QEAA@XZ ; std::_Uninitialized_backout<int * *>::~_Uninitialized_backout<int * *>
  0001c	48 83 c4 28	 add	 rsp, 40			; 00000028H
  00020	5f		 pop	 rdi
  00021	5d		 pop	 rbp
  00022	c3		 ret	 0
?dtor$0@?0???$_Uninitialized_copy_unchecked@PEAPEAHPEAPEAH@std@@YAPEAPEAHPEAPEAHQEAPEAH0@Z@4HA ENDP ; `std::_Uninitialized_copy_unchecked<int * *,int * *>'::`1'::dtor$0
text$x	ENDS
; Function compile flags: /Odtp /RTCsu
; File C:\Program Files (x86)\Microsoft Visual Studio\2019\Community\VC\Tools\MSVC\14.29.30037\include\xutility
;	COMDAT ??$_Get_unwrapped_n@AEAPEAPEAH_J@std@@YA?A_TAEAPEAPEAH_J@Z
_TEXT	SEGMENT
_It$ = 16
_Off$ = 24
??$_Get_unwrapped_n@AEAPEAPEAH_J@std@@YA?A_TAEAPEAPEAH_J@Z PROC ; std::_Get_unwrapped_n<int * * &,__int64>, COMDAT

; 1392 : _NODISCARD constexpr decltype(auto) _Get_unwrapped_n(_Iter&& _It, const _Diff _Off) {

$LN3:
  00000	48 89 54 24 10	 mov	 QWORD PTR [rsp+16], rdx
  00005	48 89 4c 24 08	 mov	 QWORD PTR [rsp+8], rcx
  0000a	57		 push	 rdi

; 1393 :     if constexpr (is_pointer_v<decay_t<_Iter>>) {
; 1394 :         return _It + 0;

  0000b	48 8b 44 24 10	 mov	 rax, QWORD PTR _It$[rsp]
  00010	48 8b 00	 mov	 rax, QWORD PTR [rax]

; 1395 :     } else if constexpr (_Unwrappable_for_offset_v<_Iter> && is_integral_v<_Diff>) {
; 1396 :         // ask an iterator to assert that the iterator moved _Off positions is valid, and unwrap
; 1397 :         using _IDiff     = _Iter_diff_t<_Remove_cvref_t<_Iter>>;
; 1398 :         using _CDiff     = common_type_t<_Diff, _IDiff>;
; 1399 :         const auto _COff = static_cast<_CDiff>(_Off);
; 1400 : 
; 1401 :         _STL_ASSERT(_COff <= static_cast<_CDiff>(_Max_possible_v<_IDiff>)
; 1402 :                         && (is_unsigned_v<_Diff> || static_cast<_CDiff>(_Min_possible_v<_IDiff>) <= _COff),
; 1403 :             "integer overflow");
; 1404 :         (void) _COff;
; 1405 : 
; 1406 :         _It._Verify_offset(static_cast<_IDiff>(_Off));
; 1407 :         return static_cast<_Iter&&>(_It)._Unwrapped();
; 1408 :     } else if constexpr (_Unwrappable_for_unverified_v<_Iter>) {
; 1409 :         // iterator doesn't support offset-based asserts, or offset unknown; defer to unverified unwrap
; 1410 :         return static_cast<_Iter&&>(_It)._Unwrapped();
; 1411 :     } else {
; 1412 :         // pass through iterator that doesn't participate in checking
; 1413 :         return static_cast<_Iter&&>(_It);
; 1414 :     }
; 1415 : }

  00013	5f		 pop	 rdi
  00014	c3		 ret	 0
??$_Get_unwrapped_n@AEAPEAPEAH_J@std@@YA?A_TAEAPEAPEAH_J@Z ENDP ; std::_Get_unwrapped_n<int * * &,__int64>
_TEXT	ENDS
; Function compile flags: /Odtp /RTCsu
; File C:\Program Files (x86)\Microsoft Visual Studio\2019\Community\VC\Tools\MSVC\14.29.30037\include\xutility
;	COMDAT ??$_Idl_distance@PEAPEAHPEAPEAH@std@@YA?A_PAEBQEAPEAH0@Z
_TEXT	SEGMENT
_First$ = 16
_Last$ = 24
??$_Idl_distance@PEAPEAHPEAPEAH@std@@YA?A_PAEBQEAPEAH0@Z PROC ; std::_Idl_distance<int * *,int * *>, COMDAT

; 1476 : _NODISCARD constexpr auto _Idl_distance(const _Iter& _First, const _Iter& _Last) {

$LN3:
  00000	48 89 54 24 10	 mov	 QWORD PTR [rsp+16], rdx
  00005	48 89 4c 24 08	 mov	 QWORD PTR [rsp+8], rcx
  0000a	57		 push	 rdi

; 1477 :     // tries to get the distance between _First and _Last if they are random-access iterators
; 1478 :     if constexpr (_Is_random_iter_v<_Iter>) {
; 1479 :         return static_cast<_Iter_diff_t<_Checked>>(_Last - _First);

  0000b	48 8b 44 24 18	 mov	 rax, QWORD PTR _Last$[rsp]
  00010	48 8b 4c 24 10	 mov	 rcx, QWORD PTR _First$[rsp]
  00015	48 8b 09	 mov	 rcx, QWORD PTR [rcx]
  00018	48 8b 00	 mov	 rax, QWORD PTR [rax]
  0001b	48 2b c1	 sub	 rax, rcx
  0001e	48 c1 f8 03	 sar	 rax, 3

; 1480 :     } else {
; 1481 :         return _Distance_unknown{};
; 1482 :     }
; 1483 : }

  00022	5f		 pop	 rdi
  00023	c3		 ret	 0
??$_Idl_distance@PEAPEAHPEAPEAH@std@@YA?A_PAEBQEAPEAH0@Z ENDP ; std::_Idl_distance<int * *,int * *>
_TEXT	ENDS
; Function compile flags: /Odtp /RTCsu
; File C:\Program Files (x86)\Microsoft Visual Studio\2019\Community\VC\Tools\MSVC\14.29.30037\include\xutility
;	COMDAT ??$_Get_unwrapped@AEBQEAPEAH@std@@YA?A_TAEBQEAPEAH@Z
_TEXT	SEGMENT
_It$ = 16
??$_Get_unwrapped@AEBQEAPEAH@std@@YA?A_TAEBQEAPEAH@Z PROC ; std::_Get_unwrapped<int * * const &>, COMDAT

; 1324 : _NODISCARD constexpr decltype(auto) _Get_unwrapped(_Iter&& _It) {

$LN3:
  00000	48 89 4c 24 08	 mov	 QWORD PTR [rsp+8], rcx
  00005	57		 push	 rdi

; 1325 :     // unwrap an iterator previously subjected to _Adl_verify_range or otherwise validated
; 1326 :     if constexpr (is_pointer_v<decay_t<_Iter>>) { // special-case pointers and arrays
; 1327 :         return _It + 0;

  00006	48 8b 44 24 10	 mov	 rax, QWORD PTR _It$[rsp]
  0000b	48 8b 00	 mov	 rax, QWORD PTR [rax]

; 1328 :     } else if constexpr (_Unwrappable_v<_Iter>) {
; 1329 :         return static_cast<_Iter&&>(_It)._Unwrapped();
; 1330 :     } else {
; 1331 :         return static_cast<_Iter&&>(_It);
; 1332 :     }
; 1333 : }

  0000e	5f		 pop	 rdi
  0000f	c3		 ret	 0
??$_Get_unwrapped@AEBQEAPEAH@std@@YA?A_TAEBQEAPEAH@Z ENDP ; std::_Get_unwrapped<int * * const &>
_TEXT	ENDS
; Function compile flags: /Odtp /RTCsu
; File C:\Program Files (x86)\Microsoft Visual Studio\2019\Community\VC\Tools\MSVC\14.29.30037\include\xutility
;	COMDAT ??$_Adl_verify_range@PEAPEAHPEAPEAH@std@@YAXAEBQEAPEAH0@Z
_TEXT	SEGMENT
_First$ = 48
_Last$ = 56
??$_Adl_verify_range@PEAPEAHPEAPEAH@std@@YAXAEBQEAPEAH0@Z PROC ; std::_Adl_verify_range<int * *,int * *>, COMDAT

; 1307 : constexpr void _Adl_verify_range(const _Iter& _First, const _Sentinel& _Last) {

$LN3:
  00000	48 89 54 24 10	 mov	 QWORD PTR [rsp+16], rdx
  00005	48 89 4c 24 08	 mov	 QWORD PTR [rsp+8], rcx
  0000a	57		 push	 rdi
  0000b	48 83 ec 20	 sub	 rsp, 32			; 00000020H

; 1308 :     // check that [_First, _Last) forms an iterator range
; 1309 :     if constexpr (_Range_verifiable_v<_Iter, _Sentinel>) {
; 1310 :         _Verify_range(_First, _Last);

  0000f	48 8b 44 24 38	 mov	 rax, QWORD PTR _Last$[rsp]
  00014	48 8b 10	 mov	 rdx, QWORD PTR [rax]
  00017	48 8b 44 24 30	 mov	 rax, QWORD PTR _First$[rsp]
  0001c	48 8b 08	 mov	 rcx, QWORD PTR [rax]
  0001f	e8 00 00 00 00	 call	 ??$_Verify_range@PEAH@std@@YAXQEBQEAH0@Z ; std::_Verify_range<int *>

; 1311 :     }
; 1312 : }

  00024	48 83 c4 20	 add	 rsp, 32			; 00000020H
  00028	5f		 pop	 rdi
  00029	c3		 ret	 0
??$_Adl_verify_range@PEAPEAHPEAPEAH@std@@YAXAEBQEAPEAH0@Z ENDP ; std::_Adl_verify_range<int * *,int * *>
_TEXT	ENDS
; Function compile flags: /Odtp /RTCsu
; File C:\Program Files (x86)\Microsoft Visual Studio\2019\Community\VC\Tools\MSVC\14.29.30037\include\xutility
;	COMDAT ??$_Voidify_iter@PEAH@std@@YAPEAXPEAH@Z
_TEXT	SEGMENT
_It$ = 16
??$_Voidify_iter@PEAH@std@@YAPEAXPEAH@Z PROC		; std::_Voidify_iter<int *>, COMDAT

; 130  : _NODISCARD constexpr void* _Voidify_iter(_Iter _It) noexcept {

$LN3:
  00000	48 89 4c 24 08	 mov	 QWORD PTR [rsp+8], rcx
  00005	57		 push	 rdi

; 131  :     if constexpr (is_pointer_v<_Iter>) {
; 132  :         return const_cast<void*>(static_cast<const volatile void*>(_It));

  00006	48 8b 44 24 10	 mov	 rax, QWORD PTR _It$[rsp]

; 133  :     } else {
; 134  :         return const_cast<void*>(static_cast<const volatile void*>(_STD addressof(*_It)));
; 135  :     }
; 136  : }

  0000b	5f		 pop	 rdi
  0000c	c3		 ret	 0
??$_Voidify_iter@PEAH@std@@YAPEAXPEAH@Z ENDP		; std::_Voidify_iter<int *>
_TEXT	ENDS
; Function compile flags: /Odtp /RTCsu
; File C:\Program Files (x86)\Microsoft Visual Studio\2019\Community\VC\Tools\MSVC\14.29.30037\include\xmemory
;	COMDAT ?deallocate@?$_Default_allocator_traits@V?$allocator@U_Container_proxy@std@@@std@@@std@@SAXAEAV?$allocator@U_Container_proxy@std@@@2@QEAU_Container_proxy@2@_K@Z
_TEXT	SEGMENT
_Al$ = 48
_Ptr$ = 56
_Count$ = 64
?deallocate@?$_Default_allocator_traits@V?$allocator@U_Container_proxy@std@@@std@@@std@@SAXAEAV?$allocator@U_Container_proxy@std@@@2@QEAU_Container_proxy@2@_K@Z PROC ; std::_Default_allocator_traits<std::allocator<std::_Container_proxy> >::deallocate, COMDAT

; 693  :     static _CONSTEXPR20_DYNALLOC void deallocate(_Alloc& _Al, const pointer _Ptr, const size_type _Count) {

$LN3:
  00000	4c 89 44 24 18	 mov	 QWORD PTR [rsp+24], r8
  00005	48 89 54 24 10	 mov	 QWORD PTR [rsp+16], rdx
  0000a	48 89 4c 24 08	 mov	 QWORD PTR [rsp+8], rcx
  0000f	57		 push	 rdi
  00010	48 83 ec 20	 sub	 rsp, 32			; 00000020H

; 694  :         // no overflow check on the following multiply; we assume _Allocate did that check
; 695  : #ifdef __cpp_lib_constexpr_dynamic_alloc // TRANSITION, GH-1532
; 696  :         if (_STD is_constant_evaluated()) {
; 697  :             _Al.deallocate(_Ptr, _Count);
; 698  :         } else
; 699  : #endif // __cpp_lib_constexpr_dynamic_alloc
; 700  :         {
; 701  :             (void) _Al;
; 702  :             _Deallocate<_New_alignof<value_type>>(_Ptr, sizeof(value_type) * _Count);

  00014	48 6b 44 24 40
	10		 imul	 rax, QWORD PTR _Count$[rsp], 16
  0001a	48 8b d0	 mov	 rdx, rax
  0001d	48 8b 4c 24 38	 mov	 rcx, QWORD PTR _Ptr$[rsp]
  00022	e8 00 00 00 00	 call	 ??$_Deallocate@$0BA@$0A@@std@@YAXPEAX_K@Z ; std::_Deallocate<16,0>

; 703  :         }
; 704  :     }

  00027	48 83 c4 20	 add	 rsp, 32			; 00000020H
  0002b	5f		 pop	 rdi
  0002c	c3		 ret	 0
?deallocate@?$_Default_allocator_traits@V?$allocator@U_Container_proxy@std@@@std@@@std@@SAXAEAV?$allocator@U_Container_proxy@std@@@2@QEAU_Container_proxy@2@_K@Z ENDP ; std::_Default_allocator_traits<std::allocator<std::_Container_proxy> >::deallocate
_TEXT	ENDS
; Function compile flags: /Odtp /RTCsu
; File C:\Program Files (x86)\Microsoft Visual Studio\2019\Community\VC\Tools\MSVC\14.29.30037\include\xmemory
;	COMDAT ??$_Get_size_of_n@$07@std@@YA_K_K@Z
_TEXT	SEGMENT
_Overflow_is_possible$ = 32
_Max_possible$1 = 40
_Count$ = 64
??$_Get_size_of_n@$07@std@@YA_K_K@Z PROC		; std::_Get_size_of_n<8>, COMDAT

; 59   : _NODISCARD constexpr size_t _Get_size_of_n(const size_t _Count) {

$LN4:
  00000	48 89 4c 24 08	 mov	 QWORD PTR [rsp+8], rcx
  00005	57		 push	 rdi
  00006	48 83 ec 30	 sub	 rsp, 48			; 00000030H

; 60   :     constexpr bool _Overflow_is_possible = _Ty_size > 1;

  0000a	c6 44 24 20 01	 mov	 BYTE PTR _Overflow_is_possible$[rsp], 1

; 61   : 
; 62   :     if constexpr (_Overflow_is_possible) {
; 63   :         constexpr size_t _Max_possible = static_cast<size_t>(-1) / _Ty_size;

  0000f	48 b8 ff ff ff
	ff ff ff ff 1f	 mov	 rax, 2305843009213693951 ; 1fffffffffffffffH
  00019	48 89 44 24 28	 mov	 QWORD PTR _Max_possible$1[rsp], rax

; 64   :         if (_Count > _Max_possible) {

  0001e	48 b8 ff ff ff
	ff ff ff ff 1f	 mov	 rax, 2305843009213693951 ; 1fffffffffffffffH
  00028	48 39 44 24 40	 cmp	 QWORD PTR _Count$[rsp], rax
  0002d	76 05		 jbe	 SHORT $LN2@Get_size_o

; 65   :             _Throw_bad_array_new_length(); // multiply overflow

  0002f	e8 00 00 00 00	 call	 ?_Throw_bad_array_new_length@std@@YAXXZ ; std::_Throw_bad_array_new_length
$LN2@Get_size_o:

; 66   :         }
; 67   :     }
; 68   : 
; 69   :     return _Count * _Ty_size;

  00034	48 8b 44 24 40	 mov	 rax, QWORD PTR _Count$[rsp]
  00039	48 c1 e0 03	 shl	 rax, 3
$LN3@Get_size_o:

; 70   : }

  0003d	48 83 c4 30	 add	 rsp, 48			; 00000030H
  00041	5f		 pop	 rdi
  00042	c3		 ret	 0
??$_Get_size_of_n@$07@std@@YA_K_K@Z ENDP		; std::_Get_size_of_n<8>
_TEXT	ENDS
; Function compile flags: /Odtp /RTCsu
; File C:\Program Files (x86)\Microsoft Visual Studio\2019\Community\VC\Tools\MSVC\14.29.30037\include\xmemory
;	COMDAT ??$_Get_size_of_n@$03@std@@YA_K_K@Z
_TEXT	SEGMENT
_Overflow_is_possible$ = 32
_Max_possible$1 = 40
_Count$ = 64
??$_Get_size_of_n@$03@std@@YA_K_K@Z PROC		; std::_Get_size_of_n<4>, COMDAT

; 59   : _NODISCARD constexpr size_t _Get_size_of_n(const size_t _Count) {

$LN4:
  00000	48 89 4c 24 08	 mov	 QWORD PTR [rsp+8], rcx
  00005	57		 push	 rdi
  00006	48 83 ec 30	 sub	 rsp, 48			; 00000030H

; 60   :     constexpr bool _Overflow_is_possible = _Ty_size > 1;

  0000a	c6 44 24 20 01	 mov	 BYTE PTR _Overflow_is_possible$[rsp], 1

; 61   : 
; 62   :     if constexpr (_Overflow_is_possible) {
; 63   :         constexpr size_t _Max_possible = static_cast<size_t>(-1) / _Ty_size;

  0000f	48 b8 ff ff ff
	ff ff ff ff 3f	 mov	 rax, 4611686018427387903 ; 3fffffffffffffffH
  00019	48 89 44 24 28	 mov	 QWORD PTR _Max_possible$1[rsp], rax

; 64   :         if (_Count > _Max_possible) {

  0001e	48 b8 ff ff ff
	ff ff ff ff 3f	 mov	 rax, 4611686018427387903 ; 3fffffffffffffffH
  00028	48 39 44 24 40	 cmp	 QWORD PTR _Count$[rsp], rax
  0002d	76 05		 jbe	 SHORT $LN2@Get_size_o

; 65   :             _Throw_bad_array_new_length(); // multiply overflow

  0002f	e8 00 00 00 00	 call	 ?_Throw_bad_array_new_length@std@@YAXXZ ; std::_Throw_bad_array_new_length
$LN2@Get_size_o:

; 66   :         }
; 67   :     }
; 68   : 
; 69   :     return _Count * _Ty_size;

  00034	48 8b 44 24 40	 mov	 rax, QWORD PTR _Count$[rsp]
  00039	48 c1 e0 02	 shl	 rax, 2
$LN3@Get_size_o:

; 70   : }

  0003d	48 83 c4 30	 add	 rsp, 48			; 00000030H
  00041	5f		 pop	 rdi
  00042	c3		 ret	 0
??$_Get_size_of_n@$03@std@@YA_K_K@Z ENDP		; std::_Get_size_of_n<4>
_TEXT	ENDS
; Function compile flags: /Odtp /RTCsu
; File C:\Program Files (x86)\Microsoft Visual Studio\2019\Community\VC\Tools\MSVC\14.29.30037\include\xmemory
;	COMDAT ??$_Destroy_range@PEAPEAHPEAPEAH@std@@YAXPEAPEAHQEAPEAH@Z
_TEXT	SEGMENT
_First$ = 16
_Last$ = 24
??$_Destroy_range@PEAPEAHPEAPEAH@std@@YAXPEAPEAHQEAPEAH@Z PROC ; std::_Destroy_range<int * *,int * *>, COMDAT

; 957  : _CONSTEXPR20_DYNALLOC void _Destroy_range(_NoThrowFwdIt _First, const _NoThrowSentinel _Last) noexcept {

$LN3:
  00000	48 89 54 24 10	 mov	 QWORD PTR [rsp+16], rdx
  00005	48 89 4c 24 08	 mov	 QWORD PTR [rsp+8], rcx
  0000a	57		 push	 rdi

; 958  :     // note that this is an optimization for debug mode codegen; in release mode the BE removes all of this
; 959  :     if constexpr (!is_trivially_destructible_v<_Iter_value_t<_NoThrowFwdIt>>) {
; 960  :         for (; _First != _Last; ++_First) {
; 961  :             _Destroy_in_place(*_First);
; 962  :         }
; 963  :     }
; 964  : }

  0000b	5f		 pop	 rdi
  0000c	c3		 ret	 0
??$_Destroy_range@PEAPEAHPEAPEAH@std@@YAXPEAPEAHQEAPEAH@Z ENDP ; std::_Destroy_range<int * *,int * *>
_TEXT	ENDS
; Function compile flags: /Odtp /RTCsu
; File C:\Program Files (x86)\Microsoft Visual Studio\2019\Community\VC\Tools\MSVC\14.29.30037\include\xmemory
;	COMDAT ??$_Uninitialized_value_construct_n_unchecked1@PEAPEAH_K@std@@YAPEAPEAHPEAPEAH_K@Z
_TEXT	SEGMENT
_UFirst$ = 48
_Count$ = 56
??$_Uninitialized_value_construct_n_unchecked1@PEAPEAH_K@std@@YAPEAPEAHPEAPEAH_K@Z PROC ; std::_Uninitialized_value_construct_n_unchecked1<int * *,unsigned __int64>, COMDAT

; 1818 : _NoThrowFwdIt _Uninitialized_value_construct_n_unchecked1(_NoThrowFwdIt _UFirst, _Diff _Count) {

$LN3:
  00000	48 89 54 24 10	 mov	 QWORD PTR [rsp+16], rdx
  00005	48 89 4c 24 08	 mov	 QWORD PTR [rsp+8], rcx
  0000a	57		 push	 rdi
  0000b	48 83 ec 20	 sub	 rsp, 32			; 00000020H

; 1819 :     // value-initialize all elements in [_UFirst, _UFirst + _Count_raw)
; 1820 :     _STL_INTERNAL_CHECK(_Count >= 0);
; 1821 :     if constexpr (_Use_memset_value_construct_v<_NoThrowFwdIt>) {
; 1822 :         return _Zero_range(_UFirst, _UFirst + _Count);

  0000f	48 8b 44 24 30	 mov	 rax, QWORD PTR _UFirst$[rsp]
  00014	48 8b 4c 24 38	 mov	 rcx, QWORD PTR _Count$[rsp]
  00019	48 8d 04 c8	 lea	 rax, QWORD PTR [rax+rcx*8]
  0001d	48 8b d0	 mov	 rdx, rax
  00020	48 8b 4c 24 30	 mov	 rcx, QWORD PTR _UFirst$[rsp]
  00025	e8 00 00 00 00	 call	 ??$_Zero_range@PEAPEAH@std@@YAPEAPEAHQEAPEAH0@Z ; std::_Zero_range<int * *>

; 1823 :     } else {
; 1824 :         _Uninitialized_backout<_NoThrowFwdIt> _Backout{_UFirst};
; 1825 :         for (; 0 < _Count; --_Count) {
; 1826 :             _Backout._Emplace_back();
; 1827 :         }
; 1828 : 
; 1829 :         return _Backout._Release();
; 1830 :     }
; 1831 : }

  0002a	48 83 c4 20	 add	 rsp, 32			; 00000020H
  0002e	5f		 pop	 rdi
  0002f	c3		 ret	 0
??$_Uninitialized_value_construct_n_unchecked1@PEAPEAH_K@std@@YAPEAPEAHPEAPEAH_K@Z ENDP ; std::_Uninitialized_value_construct_n_unchecked1<int * *,unsigned __int64>
_TEXT	ENDS
; Function compile flags: /Odtp /RTCsu
; File C:\Program Files (x86)\Microsoft Visual Studio\2019\Community\VC\Tools\MSVC\14.29.30037\include\xmemory
;	COMDAT ??$uninitialized_copy@PEAPEAHPEAPEAH@std@@YAPEAPEAHQEAPEAH0PEAPEAH@Z
_TEXT	SEGMENT
_UFirst$ = 40
_ULast$ = 72
_UDest$ = 88
$T5 = 96
_First$ = 128
_Last$ = 136
_Dest$ = 144
??$uninitialized_copy@PEAPEAHPEAPEAH@std@@YAPEAPEAHQEAPEAH0PEAPEAH@Z PROC ; std::uninitialized_copy<int * *,int * *>, COMDAT

; 1680 : _NoThrowFwdIt uninitialized_copy(const _InIt _First, const _InIt _Last, _NoThrowFwdIt _Dest) {

$LN3:
  00000	4c 89 44 24 18	 mov	 QWORD PTR [rsp+24], r8
  00005	48 89 54 24 10	 mov	 QWORD PTR [rsp+16], rdx
  0000a	48 89 4c 24 08	 mov	 QWORD PTR [rsp+8], rcx
  0000f	57		 push	 rdi
  00010	48 83 ec 70	 sub	 rsp, 112		; 00000070H
  00014	48 8d 7c 24 20	 lea	 rdi, QWORD PTR [rsp+32]
  00019	b9 14 00 00 00	 mov	 ecx, 20
  0001e	b8 cc cc cc cc	 mov	 eax, -858993460		; ccccccccH
  00023	f3 ab		 rep stosd
  00025	48 8b 8c 24 80
	00 00 00	 mov	 rcx, QWORD PTR [rsp+128]

; 1681 :     // copy [_First, _Last) to raw [_Dest, ...)
; 1682 :     _Adl_verify_range(_First, _Last);

  0002d	48 8d 94 24 88
	00 00 00	 lea	 rdx, QWORD PTR _Last$[rsp]
  00035	48 8d 8c 24 80
	00 00 00	 lea	 rcx, QWORD PTR _First$[rsp]
  0003d	e8 00 00 00 00	 call	 ??$_Adl_verify_range@PEAPEAHPEAPEAH@std@@YAXAEBQEAPEAH0@Z ; std::_Adl_verify_range<int * *,int * *>

; 1683 :     auto _UFirst      = _Get_unwrapped(_First);

  00042	48 8d 8c 24 80
	00 00 00	 lea	 rcx, QWORD PTR _First$[rsp]
  0004a	e8 00 00 00 00	 call	 ??$_Get_unwrapped@AEBQEAPEAH@std@@YA?A_TAEBQEAPEAH@Z ; std::_Get_unwrapped<int * * const &>
  0004f	48 89 44 24 28	 mov	 QWORD PTR _UFirst$[rsp], rax

; 1684 :     const auto _ULast = _Get_unwrapped(_Last);

  00054	48 8d 8c 24 88
	00 00 00	 lea	 rcx, QWORD PTR _Last$[rsp]
  0005c	e8 00 00 00 00	 call	 ??$_Get_unwrapped@AEBQEAPEAH@std@@YA?A_TAEBQEAPEAH@Z ; std::_Get_unwrapped<int * * const &>
  00061	48 89 44 24 48	 mov	 QWORD PTR _ULast$[rsp], rax

; 1685 :     auto _UDest       = _Get_unwrapped_n(_Dest, _Idl_distance<_InIt>(_UFirst, _ULast));

  00066	48 8d 54 24 48	 lea	 rdx, QWORD PTR _ULast$[rsp]
  0006b	48 8d 4c 24 28	 lea	 rcx, QWORD PTR _UFirst$[rsp]
  00070	e8 00 00 00 00	 call	 ??$_Idl_distance@PEAPEAHPEAPEAH@std@@YA?A_PAEBQEAPEAH0@Z ; std::_Idl_distance<int * *,int * *>
  00075	48 8b d0	 mov	 rdx, rax
  00078	48 8d 8c 24 90
	00 00 00	 lea	 rcx, QWORD PTR _Dest$[rsp]
  00080	e8 00 00 00 00	 call	 ??$_Get_unwrapped_n@AEAPEAPEAH_J@std@@YA?A_TAEAPEAPEAH_J@Z ; std::_Get_unwrapped_n<int * * &,__int64>
  00085	48 89 44 24 58	 mov	 QWORD PTR _UDest$[rsp], rax

; 1686 :     _Seek_wrapped(_Dest, _Uninitialized_copy_unchecked(_UFirst, _ULast, _UDest));

  0008a	4c 8b 44 24 58	 mov	 r8, QWORD PTR _UDest$[rsp]
  0008f	48 8b 54 24 48	 mov	 rdx, QWORD PTR _ULast$[rsp]
  00094	48 8b 4c 24 28	 mov	 rcx, QWORD PTR _UFirst$[rsp]
  00099	e8 00 00 00 00	 call	 ??$_Uninitialized_copy_unchecked@PEAPEAHPEAPEAH@std@@YAPEAPEAHPEAPEAHQEAPEAH0@Z ; std::_Uninitialized_copy_unchecked<int * *,int * *>
  0009e	48 89 44 24 60	 mov	 QWORD PTR $T5[rsp], rax
  000a3	48 8d 54 24 60	 lea	 rdx, QWORD PTR $T5[rsp]
  000a8	48 8d 8c 24 90
	00 00 00	 lea	 rcx, QWORD PTR _Dest$[rsp]
  000b0	e8 00 00 00 00	 call	 ??$_Seek_wrapped@PEAPEAHPEAPEAH@std@@YAXAEAPEAPEAH$$QEAPEAPEAH@Z ; std::_Seek_wrapped<int * *,int * *>

; 1687 :     return _Dest;

  000b5	48 8b 84 24 90
	00 00 00	 mov	 rax, QWORD PTR _Dest$[rsp]

; 1688 : }

  000bd	48 8b f8	 mov	 rdi, rax
  000c0	48 8b cc	 mov	 rcx, rsp
  000c3	48 8d 15 00 00
	00 00		 lea	 rdx, OFFSET FLAT:??$uninitialized_copy@PEAPEAHPEAPEAH@std@@YAPEAPEAHQEAPEAH0PEAPEAH@Z$rtcFrameData
  000ca	e8 00 00 00 00	 call	 _RTC_CheckStackVars
  000cf	48 8b c7	 mov	 rax, rdi
  000d2	48 83 c4 70	 add	 rsp, 112		; 00000070H
  000d6	5f		 pop	 rdi
  000d7	c3		 ret	 0
??$uninitialized_copy@PEAPEAHPEAPEAH@std@@YAPEAPEAHQEAPEAH0PEAPEAH@Z ENDP ; std::uninitialized_copy<int * *,int * *>
_TEXT	ENDS
; Function compile flags: /Odtp /RTCsu
; File C:\Program Files (x86)\Microsoft Visual Studio\2019\Community\VC\Tools\MSVC\14.29.30037\include\xmemory
;	COMDAT ??$_Allocate_manually_vector_aligned@U_Default_allocate_traits@std@@@std@@YAPEAX_K@Z
_TEXT	SEGMENT
_Block_size$ = 48
_Ptr_container$ = 56
_Ptr$ = 64
_Bytes$ = 96
??$_Allocate_manually_vector_aligned@U_Default_allocate_traits@std@@@std@@YAPEAX_K@Z PROC ; std::_Allocate_manually_vector_aligned<std::_Default_allocate_traits>, COMDAT

; 134  : __declspec(allocator) void* _Allocate_manually_vector_aligned(const size_t _Bytes) {

$LN13:
  00000	48 89 4c 24 08	 mov	 QWORD PTR [rsp+8], rcx
  00005	57		 push	 rdi
  00006	48 83 ec 50	 sub	 rsp, 80			; 00000050H

; 135  :     // allocate _Bytes manually aligned to at least _Big_allocation_alignment
; 136  :     const size_t _Block_size = _Non_user_size + _Bytes;

  0000a	48 8b 44 24 60	 mov	 rax, QWORD PTR _Bytes$[rsp]
  0000f	48 83 c0 2f	 add	 rax, 47			; 0000002fH
  00013	48 89 44 24 30	 mov	 QWORD PTR _Block_size$[rsp], rax

; 137  :     if (_Block_size <= _Bytes) {

  00018	48 8b 44 24 60	 mov	 rax, QWORD PTR _Bytes$[rsp]
  0001d	48 39 44 24 30	 cmp	 QWORD PTR _Block_size$[rsp], rax
  00022	77 05		 ja	 SHORT $LN8@Allocate_m

; 138  :         _Throw_bad_array_new_length(); // add overflow

  00024	e8 00 00 00 00	 call	 ?_Throw_bad_array_new_length@std@@YAXXZ ; std::_Throw_bad_array_new_length
$LN8@Allocate_m:

; 139  :     }
; 140  : 
; 141  :     const uintptr_t _Ptr_container = reinterpret_cast<uintptr_t>(_Traits::_Allocate(_Block_size));

  00029	48 8b 4c 24 30	 mov	 rcx, QWORD PTR _Block_size$[rsp]
  0002e	e8 00 00 00 00	 call	 ?_Allocate@_Default_allocate_traits@std@@SAPEAX_K@Z ; std::_Default_allocate_traits::_Allocate
  00033	48 89 44 24 38	 mov	 QWORD PTR _Ptr_container$[rsp], rax
$LN4@Allocate_m:

; 142  :     _STL_VERIFY(_Ptr_container != 0, "invalid argument"); // validate even in release since we're doing p[-1]

  00038	48 83 7c 24 38
	00		 cmp	 QWORD PTR _Ptr_container$[rsp], 0
  0003e	74 02		 je	 SHORT $LN9@Allocate_m
  00040	eb 6b		 jmp	 SHORT $LN10@Allocate_m
$LN9@Allocate_m:
$LN7@Allocate_m:
  00042	48 8d 05 00 00
	00 00		 lea	 rax, OFFSET FLAT:$SG48087
  00049	48 89 44 24 28	 mov	 QWORD PTR [rsp+40], rax
  0004e	48 8d 05 00 00
	00 00		 lea	 rax, OFFSET FLAT:$SG48088
  00055	48 89 44 24 20	 mov	 QWORD PTR [rsp+32], rax
  0005a	45 33 c9	 xor	 r9d, r9d
  0005d	41 b8 8e 00 00
	00		 mov	 r8d, 142		; 0000008eH
  00063	48 8d 15 00 00
	00 00		 lea	 rdx, OFFSET FLAT:$SG48089
  0006a	b9 02 00 00 00	 mov	 ecx, 2
  0006f	ff 15 00 00 00
	00		 call	 QWORD PTR __imp__CrtDbgReport
  00075	83 f8 01	 cmp	 eax, 1
  00078	75 03		 jne	 SHORT $LN12@Allocate_m
  0007a	cc		 int	 3
  0007b	33 c0		 xor	 eax, eax
$LN12@Allocate_m:
  0007d	48 c7 44 24 20
	00 00 00 00	 mov	 QWORD PTR [rsp+32], 0
  00086	41 b9 8e 00 00
	00		 mov	 r9d, 142		; 0000008eH
  0008c	4c 8d 05 00 00
	00 00		 lea	 r8, OFFSET FLAT:$SG48090
  00093	48 8d 15 00 00
	00 00		 lea	 rdx, OFFSET FLAT:$SG48091
  0009a	48 8d 0d 00 00
	00 00		 lea	 rcx, OFFSET FLAT:$SG48092
  000a1	ff 15 00 00 00
	00		 call	 QWORD PTR __imp__invalid_parameter
  000a7	33 c0		 xor	 eax, eax
  000a9	85 c0		 test	 eax, eax
  000ab	75 95		 jne	 SHORT $LN7@Allocate_m
$LN10@Allocate_m:
  000ad	33 c0		 xor	 eax, eax
  000af	85 c0		 test	 eax, eax
  000b1	75 85		 jne	 SHORT $LN4@Allocate_m

; 143  :     void* const _Ptr = reinterpret_cast<void*>((_Ptr_container + _Non_user_size) & ~(_Big_allocation_alignment - 1));

  000b3	48 8b 44 24 38	 mov	 rax, QWORD PTR _Ptr_container$[rsp]
  000b8	48 83 c0 2f	 add	 rax, 47			; 0000002fH
  000bc	48 83 e0 e0	 and	 rax, -32		; ffffffffffffffe0H
  000c0	48 89 44 24 40	 mov	 QWORD PTR _Ptr$[rsp], rax

; 144  :     static_cast<uintptr_t*>(_Ptr)[-1] = _Ptr_container;

  000c5	b8 08 00 00 00	 mov	 eax, 8
  000ca	48 6b c0 ff	 imul	 rax, rax, -1
  000ce	48 8b 4c 24 40	 mov	 rcx, QWORD PTR _Ptr$[rsp]
  000d3	48 8b 54 24 38	 mov	 rdx, QWORD PTR _Ptr_container$[rsp]
  000d8	48 89 14 01	 mov	 QWORD PTR [rcx+rax], rdx

; 145  : 
; 146  : #ifdef _DEBUG
; 147  :     static_cast<uintptr_t*>(_Ptr)[-2] = _Big_allocation_sentinel;

  000dc	b8 08 00 00 00	 mov	 eax, 8
  000e1	48 6b c0 fe	 imul	 rax, rax, -2
  000e5	48 8b 4c 24 40	 mov	 rcx, QWORD PTR _Ptr$[rsp]
  000ea	48 ba fa fa fa
	fa fa fa fa fa	 mov	 rdx, -361700864190383366 ; fafafafafafafafaH
  000f4	48 89 14 01	 mov	 QWORD PTR [rcx+rax], rdx

; 148  : #endif // _DEBUG
; 149  :     return _Ptr;

  000f8	48 8b 44 24 40	 mov	 rax, QWORD PTR _Ptr$[rsp]
$LN11@Allocate_m:

; 150  : }

  000fd	48 83 c4 50	 add	 rsp, 80			; 00000050H
  00101	5f		 pop	 rdi
  00102	c3		 ret	 0
??$_Allocate_manually_vector_aligned@U_Default_allocate_traits@std@@@std@@YAPEAX_K@Z ENDP ; std::_Allocate_manually_vector_aligned<std::_Default_allocate_traits>
_TEXT	ENDS
; Function compile flags: /Odtp /RTCsu
; File C:\Program Files (x86)\Microsoft Visual Studio\2019\Community\VC\Tools\MSVC\14.29.30037\include\type_traits
;	COMDAT ??$forward@AEBQEAD@std@@YAAEBQEADAEBQEAD@Z
_TEXT	SEGMENT
_Arg$ = 16
??$forward@AEBQEAD@std@@YAAEBQEADAEBQEAD@Z PROC		; std::forward<char * const &>, COMDAT

; 1443 :     remove_reference_t<_Ty>& _Arg) noexcept { // forward an lvalue as either an lvalue or an rvalue

$LN3:
  00000	48 89 4c 24 08	 mov	 QWORD PTR [rsp+8], rcx
  00005	57		 push	 rdi

; 1444 :     return static_cast<_Ty&&>(_Arg);

  00006	48 8b 44 24 10	 mov	 rax, QWORD PTR _Arg$[rsp]

; 1445 : }

  0000b	5f		 pop	 rdi
  0000c	c3		 ret	 0
??$forward@AEBQEAD@std@@YAAEBQEADAEBQEAD@Z ENDP		; std::forward<char * const &>
_TEXT	ENDS
; Function compile flags: /Odtp /RTCsu
; File C:\Program Files (x86)\Microsoft Visual Studio\2019\Community\VC\Tools\MSVC\14.29.30037\include\xutility
;	COMDAT ??$_Voidify_iter@PEAPEAD@std@@YAPEAXPEAPEAD@Z
_TEXT	SEGMENT
_It$ = 16
??$_Voidify_iter@PEAPEAD@std@@YAPEAXPEAPEAD@Z PROC	; std::_Voidify_iter<char * *>, COMDAT

; 130  : _NODISCARD constexpr void* _Voidify_iter(_Iter _It) noexcept {

$LN3:
  00000	48 89 4c 24 08	 mov	 QWORD PTR [rsp+8], rcx
  00005	57		 push	 rdi

; 131  :     if constexpr (is_pointer_v<_Iter>) {
; 132  :         return const_cast<void*>(static_cast<const volatile void*>(_It));

  00006	48 8b 44 24 10	 mov	 rax, QWORD PTR _It$[rsp]

; 133  :     } else {
; 134  :         return const_cast<void*>(static_cast<const volatile void*>(_STD addressof(*_It)));
; 135  :     }
; 136  : }

  0000b	5f		 pop	 rdi
  0000c	c3		 ret	 0
??$_Voidify_iter@PEAPEAD@std@@YAPEAXPEAPEAD@Z ENDP	; std::_Voidify_iter<char * *>
_TEXT	ENDS
; Function compile flags: /Odtp /RTCsu
; File C:\Program Files (x86)\Microsoft Visual Studio\2019\Community\VC\Tools\MSVC\14.29.30037\include\xstddef
;	COMDAT ??$addressof@PEAD@std@@YAPEAPEADAEAPEAD@Z
_TEXT	SEGMENT
_Val$ = 16
??$addressof@PEAD@std@@YAPEAPEADAEAPEAD@Z PROC		; std::addressof<char *>, COMDAT

; 274  : _NODISCARD constexpr _Ty* addressof(_Ty& _Val) noexcept {

$LN3:
  00000	48 89 4c 24 08	 mov	 QWORD PTR [rsp+8], rcx
  00005	57		 push	 rdi

; 275  :     return __builtin_addressof(_Val);

  00006	48 8b 44 24 10	 mov	 rax, QWORD PTR _Val$[rsp]

; 276  : }

  0000b	5f		 pop	 rdi
  0000c	c3		 ret	 0
??$addressof@PEAD@std@@YAPEAPEADAEAPEAD@Z ENDP		; std::addressof<char *>
_TEXT	ENDS
; Function compile flags: /Odtp /RTCsu
; File C:\Program Files (x86)\Microsoft Visual Studio\2019\Community\VC\Tools\MSVC\14.29.30037\include\xmemory
;	COMDAT ??$construct@HAEBH@?$_Default_allocator_traits@V?$allocator@H@std@@@std@@SAXAEAV?$allocator@H@1@QEAHAEBH@Z
_TEXT	SEGMENT
$T1 = 32
__formal$ = 64
_Ptr$ = 72
<_Args_0>$ = 80
??$construct@HAEBH@?$_Default_allocator_traits@V?$allocator@H@std@@@std@@SAXAEAV?$allocator@H@1@QEAHAEBH@Z PROC ; std::_Default_allocator_traits<std::allocator<int> >::construct<int,int const &>, COMDAT

; 707  :     static _CONSTEXPR20_DYNALLOC void construct(_Alloc&, _Objty* const _Ptr, _Types&&... _Args) {

$LN3:
  00000	4c 89 44 24 18	 mov	 QWORD PTR [rsp+24], r8
  00005	48 89 54 24 10	 mov	 QWORD PTR [rsp+16], rdx
  0000a	48 89 4c 24 08	 mov	 QWORD PTR [rsp+8], rcx
  0000f	57		 push	 rdi
  00010	48 83 ec 30	 sub	 rsp, 48			; 00000030H

; 708  : #ifdef __cpp_lib_constexpr_dynamic_alloc
; 709  :         if (_STD is_constant_evaluated()) {
; 710  :             _STD construct_at(_Ptr, _STD forward<_Types>(_Args)...);
; 711  :         } else
; 712  : #endif // __cpp_lib_constexpr_dynamic_alloc
; 713  :         {
; 714  :             ::new (_Voidify_iter(_Ptr)) _Objty(_STD forward<_Types>(_Args)...);

  00014	48 8b 4c 24 48	 mov	 rcx, QWORD PTR _Ptr$[rsp]
  00019	e8 00 00 00 00	 call	 ??$_Voidify_iter@PEAH@std@@YAPEAXPEAH@Z ; std::_Voidify_iter<int *>
  0001e	48 8b d0	 mov	 rdx, rax
  00021	b9 04 00 00 00	 mov	 ecx, 4
  00026	e8 00 00 00 00	 call	 ??2@YAPEAX_KPEAX@Z	; operator new
  0002b	48 89 44 24 20	 mov	 QWORD PTR $T1[rsp], rax
  00030	48 8b 4c 24 50	 mov	 rcx, QWORD PTR <_Args_0>$[rsp]
  00035	e8 00 00 00 00	 call	 ??$forward@AEBH@std@@YAAEBHAEBH@Z ; std::forward<int const &>
  0003a	48 8b 4c 24 20	 mov	 rcx, QWORD PTR $T1[rsp]
  0003f	8b 00		 mov	 eax, DWORD PTR [rax]
  00041	89 01		 mov	 DWORD PTR [rcx], eax

; 715  :         }
; 716  :     }

  00043	48 83 c4 30	 add	 rsp, 48			; 00000030H
  00047	5f		 pop	 rdi
  00048	c3		 ret	 0
??$construct@HAEBH@?$_Default_allocator_traits@V?$allocator@H@std@@@std@@SAXAEAV?$allocator@H@1@QEAHAEBH@Z ENDP ; std::_Default_allocator_traits<std::allocator<int> >::construct<int,int const &>
_TEXT	ENDS
; Function compile flags: /Odtp /RTCsu
; File C:\Program Files (x86)\Microsoft Visual Studio\2019\Community\VC\Tools\MSVC\14.29.30037\include\type_traits
;	COMDAT ??$forward@AEBH@std@@YAAEBHAEBH@Z
_TEXT	SEGMENT
_Arg$ = 16
??$forward@AEBH@std@@YAAEBHAEBH@Z PROC			; std::forward<int const &>, COMDAT

; 1443 :     remove_reference_t<_Ty>& _Arg) noexcept { // forward an lvalue as either an lvalue or an rvalue

$LN3:
  00000	48 89 4c 24 08	 mov	 QWORD PTR [rsp+8], rcx
  00005	57		 push	 rdi

; 1444 :     return static_cast<_Ty&&>(_Arg);

  00006	48 8b 44 24 10	 mov	 rax, QWORD PTR _Arg$[rsp]

; 1445 : }

  0000b	5f		 pop	 rdi
  0000c	c3		 ret	 0
??$forward@AEBH@std@@YAAEBHAEBH@Z ENDP			; std::forward<int const &>
_TEXT	ENDS
; Function compile flags: /Odtp /RTCsu
; File C:\Program Files (x86)\Microsoft Visual Studio\2019\Community\VC\Tools\MSVC\14.29.30037\include\type_traits
;	COMDAT ??$forward@PEAU_Container_base12@std@@@std@@YA$$QEAPEAU_Container_base12@0@AEAPEAU10@@Z
_TEXT	SEGMENT
_Arg$ = 16
??$forward@PEAU_Container_base12@std@@@std@@YA$$QEAPEAU_Container_base12@0@AEAPEAU10@@Z PROC ; std::forward<std::_Container_base12 *>, COMDAT

; 1443 :     remove_reference_t<_Ty>& _Arg) noexcept { // forward an lvalue as either an lvalue or an rvalue

$LN3:
  00000	48 89 4c 24 08	 mov	 QWORD PTR [rsp+8], rcx
  00005	57		 push	 rdi

; 1444 :     return static_cast<_Ty&&>(_Arg);

  00006	48 8b 44 24 10	 mov	 rax, QWORD PTR _Arg$[rsp]

; 1445 : }

  0000b	5f		 pop	 rdi
  0000c	c3		 ret	 0
??$forward@PEAU_Container_base12@std@@@std@@YA$$QEAPEAU_Container_base12@0@AEAPEAU10@@Z ENDP ; std::forward<std::_Container_base12 *>
_TEXT	ENDS
; Function compile flags: /Odtp /RTCsu
; File C:\Program Files (x86)\Microsoft Visual Studio\2019\Community\VC\Tools\MSVC\14.29.30037\include\xutility
;	COMDAT ??$_Voidify_iter@PEAU_Container_proxy@std@@@std@@YAPEAXPEAU_Container_proxy@0@@Z
_TEXT	SEGMENT
_It$ = 16
??$_Voidify_iter@PEAU_Container_proxy@std@@@std@@YAPEAXPEAU_Container_proxy@0@@Z PROC ; std::_Voidify_iter<std::_Container_proxy *>, COMDAT

; 130  : _NODISCARD constexpr void* _Voidify_iter(_Iter _It) noexcept {

$LN3:
  00000	48 89 4c 24 08	 mov	 QWORD PTR [rsp+8], rcx
  00005	57		 push	 rdi

; 131  :     if constexpr (is_pointer_v<_Iter>) {
; 132  :         return const_cast<void*>(static_cast<const volatile void*>(_It));

  00006	48 8b 44 24 10	 mov	 rax, QWORD PTR _It$[rsp]

; 133  :     } else {
; 134  :         return const_cast<void*>(static_cast<const volatile void*>(_STD addressof(*_It)));
; 135  :     }
; 136  : }

  0000b	5f		 pop	 rdi
  0000c	c3		 ret	 0
??$_Voidify_iter@PEAU_Container_proxy@std@@@std@@YAPEAXPEAU_Container_proxy@0@@Z ENDP ; std::_Voidify_iter<std::_Container_proxy *>
_TEXT	ENDS
; Function compile flags: /Odtp /RTCsu
; File C:\Program Files (x86)\Microsoft Visual Studio\2019\Community\VC\Tools\MSVC\14.29.30037\include\xstddef
;	COMDAT ??$addressof@U_Container_proxy@std@@@std@@YAPEAU_Container_proxy@0@AEAU10@@Z
_TEXT	SEGMENT
_Val$ = 16
??$addressof@U_Container_proxy@std@@@std@@YAPEAU_Container_proxy@0@AEAU10@@Z PROC ; std::addressof<std::_Container_proxy>, COMDAT

; 274  : _NODISCARD constexpr _Ty* addressof(_Ty& _Val) noexcept {

$LN3:
  00000	48 89 4c 24 08	 mov	 QWORD PTR [rsp+8], rcx
  00005	57		 push	 rdi

; 275  :     return __builtin_addressof(_Val);

  00006	48 8b 44 24 10	 mov	 rax, QWORD PTR _Val$[rsp]

; 276  : }

  0000b	5f		 pop	 rdi
  0000c	c3		 ret	 0
??$addressof@U_Container_proxy@std@@@std@@YAPEAU_Container_proxy@0@AEAU10@@Z ENDP ; std::addressof<std::_Container_proxy>
_TEXT	ENDS
; Function compile flags: /Odtp /RTCsu
; File C:\Program Files (x86)\Microsoft Visual Studio\2019\Community\VC\Tools\MSVC\14.29.30037\include\type_traits
;	COMDAT ??$forward@V?$allocator@D@std@@@std@@YA$$QEAV?$allocator@D@0@AEAV10@@Z
_TEXT	SEGMENT
_Arg$ = 16
??$forward@V?$allocator@D@std@@@std@@YA$$QEAV?$allocator@D@0@AEAV10@@Z PROC ; std::forward<std::allocator<char> >, COMDAT

; 1443 :     remove_reference_t<_Ty>& _Arg) noexcept { // forward an lvalue as either an lvalue or an rvalue

$LN3:
  00000	48 89 4c 24 08	 mov	 QWORD PTR [rsp+8], rcx
  00005	57		 push	 rdi

; 1444 :     return static_cast<_Ty&&>(_Arg);

  00006	48 8b 44 24 10	 mov	 rax, QWORD PTR _Arg$[rsp]

; 1445 : }

  0000b	5f		 pop	 rdi
  0000c	c3		 ret	 0
??$forward@V?$allocator@D@std@@@std@@YA$$QEAV?$allocator@D@0@AEAV10@@Z ENDP ; std::forward<std::allocator<char> >
_TEXT	ENDS
; Function compile flags: /Odtp /RTCsu
; File C:\Program Files (x86)\Microsoft Visual Studio\2019\Community\VC\Tools\MSVC\14.29.30037\include\xmemory
;	COMDAT ??$_Deallocate_plain@V?$allocator@U_Container_proxy@std@@@std@@@std@@YAXAEAV?$allocator@U_Container_proxy@std@@@0@QEAU_Container_proxy@0@@Z
_TEXT	SEGMENT
_Al$ = 48
_Ptr$ = 56
??$_Deallocate_plain@V?$allocator@U_Container_proxy@std@@@std@@@std@@YAXAEAV?$allocator@U_Container_proxy@std@@@0@QEAU_Container_proxy@0@@Z PROC ; std::_Deallocate_plain<std::allocator<std::_Container_proxy> >, COMDAT

; 985  : _CONSTEXPR20_DYNALLOC void _Deallocate_plain(_Alloc& _Al, typename _Alloc::value_type* const _Ptr) noexcept {

$LN3:
  00000	48 89 54 24 10	 mov	 QWORD PTR [rsp+16], rdx
  00005	48 89 4c 24 08	 mov	 QWORD PTR [rsp+8], rcx
  0000a	57		 push	 rdi
  0000b	48 83 ec 20	 sub	 rsp, 32			; 00000020H

; 986  :     // deallocate a plain pointer using an allocator
; 987  :     using _Alloc_traits = allocator_traits<_Alloc>;
; 988  :     if constexpr (is_same_v<_Alloc_ptr_t<_Alloc>, typename _Alloc::value_type*>) {
; 989  :         _Alloc_traits::deallocate(_Al, _Ptr, 1);

  0000f	41 b8 01 00 00
	00		 mov	 r8d, 1
  00015	48 8b 54 24 38	 mov	 rdx, QWORD PTR _Ptr$[rsp]
  0001a	48 8b 4c 24 30	 mov	 rcx, QWORD PTR _Al$[rsp]
  0001f	e8 00 00 00 00	 call	 ?deallocate@?$_Default_allocator_traits@V?$allocator@U_Container_proxy@std@@@std@@@std@@SAXAEAV?$allocator@U_Container_proxy@std@@@2@QEAU_Container_proxy@2@_K@Z ; std::_Default_allocator_traits<std::allocator<std::_Container_proxy> >::deallocate
  00024	90		 npad	 1

; 990  :     } else {
; 991  :         using _Ptr_traits = pointer_traits<_Alloc_ptr_t<_Alloc>>;
; 992  :         _Alloc_traits::deallocate(_Al, _Ptr_traits::pointer_to(*_Ptr), 1);
; 993  :     }
; 994  : }

  00025	48 83 c4 20	 add	 rsp, 32			; 00000020H
  00029	5f		 pop	 rdi
  0002a	c3		 ret	 0
??$_Deallocate_plain@V?$allocator@U_Container_proxy@std@@@std@@@std@@YAXAEAV?$allocator@U_Container_proxy@std@@@0@QEAU_Container_proxy@0@@Z ENDP ; std::_Deallocate_plain<std::allocator<std::_Container_proxy> >
_TEXT	ENDS
; Function compile flags: /Odtp /RTCsu
; File C:\Program Files (x86)\Microsoft Visual Studio\2019\Community\VC\Tools\MSVC\14.29.30037\include\xstring
;	COMDAT ??$_Insert_string@DU?$char_traits@D@std@@_K@std@@YAAEAV?$basic_ostream@DU?$char_traits@D@std@@@0@AEAV10@QEBD_K@Z
_TEXT	SEGMENT
_State$ = 32
_Pad$ = 40
_Ok$ = 56
$T4 = 84
$T5 = 88
$T6 = 92
$T7 = 96
$T8 = 104
tv136 = 112
tv290 = 116
tv291 = 120
tv292 = 128
tv293 = 136
tv294 = 144
tv295 = 152
tv296 = 160
tv297 = 168
_Ostr$ = 192
_Data$ = 200
_Size$ = 208
??$_Insert_string@DU?$char_traits@D@std@@_K@std@@YAAEAV?$basic_ostream@DU?$char_traits@D@std@@@0@AEAV10@QEBD_K@Z PROC ; std::_Insert_string<char,std::char_traits<char>,unsigned __int64>, COMDAT

; 501  :     basic_ostream<_Elem, _Traits>& _Ostr, const _Elem* const _Data, const _SizeT _Size) {

$LN26:
  00000	4c 89 44 24 18	 mov	 QWORD PTR [rsp+24], r8
  00005	48 89 54 24 10	 mov	 QWORD PTR [rsp+16], rdx
  0000a	48 89 4c 24 08	 mov	 QWORD PTR [rsp+8], rcx
  0000f	57		 push	 rdi
  00010	48 81 ec b0 00
	00 00		 sub	 rsp, 176		; 000000b0H
  00017	48 8d 7c 24 20	 lea	 rdi, QWORD PTR [rsp+32]
  0001c	b9 24 00 00 00	 mov	 ecx, 36			; 00000024H
  00021	b8 cc cc cc cc	 mov	 eax, -858993460		; ccccccccH
  00026	f3 ab		 rep stosd
  00028	48 8b 8c 24 c0
	00 00 00	 mov	 rcx, QWORD PTR [rsp+192]

; 502  :     // insert a character-type sequence into _Ostr as if through a basic_string copy
; 503  :     using _Ostr_t                    = basic_ostream<_Elem, _Traits>;
; 504  :     typename _Ostr_t::iostate _State = _Ostr_t::goodbit;

  00030	c7 44 24 20 00
	00 00 00	 mov	 DWORD PTR _State$[rsp], 0

; 505  : 
; 506  :     _SizeT _Pad;
; 507  :     if (_Ostr.width() <= 0 || static_cast<_SizeT>(_Ostr.width()) <= _Size) {

  00038	48 8b 84 24 c0
	00 00 00	 mov	 rax, QWORD PTR _Ostr$[rsp]
  00040	48 8b 00	 mov	 rax, QWORD PTR [rax]
  00043	48 63 40 04	 movsxd	 rax, DWORD PTR [rax+4]
  00047	48 8b 8c 24 c0
	00 00 00	 mov	 rcx, QWORD PTR _Ostr$[rsp]
  0004f	48 03 c8	 add	 rcx, rax
  00052	48 8b c1	 mov	 rax, rcx
  00055	48 8b c8	 mov	 rcx, rax
  00058	ff 15 00 00 00
	00		 call	 QWORD PTR __imp_?width@ios_base@std@@QEBA_JXZ
  0005e	48 85 c0	 test	 rax, rax
  00061	7e 30		 jle	 SHORT $LN10@Insert_str
  00063	48 8b 84 24 c0
	00 00 00	 mov	 rax, QWORD PTR _Ostr$[rsp]
  0006b	48 8b 00	 mov	 rax, QWORD PTR [rax]
  0006e	48 63 40 04	 movsxd	 rax, DWORD PTR [rax+4]
  00072	48 8b 8c 24 c0
	00 00 00	 mov	 rcx, QWORD PTR _Ostr$[rsp]
  0007a	48 03 c8	 add	 rcx, rax
  0007d	48 8b c1	 mov	 rax, rcx
  00080	48 8b c8	 mov	 rcx, rax
  00083	ff 15 00 00 00
	00		 call	 QWORD PTR __imp_?width@ios_base@std@@QEBA_JXZ
  00089	48 3b 84 24 d0
	00 00 00	 cmp	 rax, QWORD PTR _Size$[rsp]
  00091	77 0b		 ja	 SHORT $LN8@Insert_str
$LN10@Insert_str:

; 508  :         _Pad = 0;

  00093	48 c7 44 24 28
	00 00 00 00	 mov	 QWORD PTR _Pad$[rsp], 0

; 509  :     } else {

  0009c	eb 33		 jmp	 SHORT $LN9@Insert_str
$LN8@Insert_str:

; 510  :         _Pad = static_cast<_SizeT>(_Ostr.width()) - _Size;

  0009e	48 8b 84 24 c0
	00 00 00	 mov	 rax, QWORD PTR _Ostr$[rsp]
  000a6	48 8b 00	 mov	 rax, QWORD PTR [rax]
  000a9	48 63 40 04	 movsxd	 rax, DWORD PTR [rax+4]
  000ad	48 8b 8c 24 c0
	00 00 00	 mov	 rcx, QWORD PTR _Ostr$[rsp]
  000b5	48 03 c8	 add	 rcx, rax
  000b8	48 8b c1	 mov	 rax, rcx
  000bb	48 8b c8	 mov	 rcx, rax
  000be	ff 15 00 00 00
	00		 call	 QWORD PTR __imp_?width@ios_base@std@@QEBA_JXZ
  000c4	48 2b 84 24 d0
	00 00 00	 sub	 rax, QWORD PTR _Size$[rsp]
  000cc	48 89 44 24 28	 mov	 QWORD PTR _Pad$[rsp], rax
$LN9@Insert_str:

; 511  :     }
; 512  : 
; 513  :     const typename _Ostr_t::sentry _Ok(_Ostr);

  000d1	48 8b 94 24 c0
	00 00 00	 mov	 rdx, QWORD PTR _Ostr$[rsp]
  000d9	48 8d 4c 24 38	 lea	 rcx, QWORD PTR _Ok$[rsp]
  000de	e8 00 00 00 00	 call	 ??0sentry@?$basic_ostream@DU?$char_traits@D@std@@@std@@QEAA@AEAV12@@Z ; std::basic_ostream<char,std::char_traits<char> >::sentry::sentry
  000e3	90		 npad	 1

; 514  : 
; 515  :     if (!_Ok) {

  000e4	48 8d 4c 24 38	 lea	 rcx, QWORD PTR _Ok$[rsp]
  000e9	e8 00 00 00 00	 call	 ??Bsentry@?$basic_ostream@DU?$char_traits@D@std@@@std@@QEBA_NXZ ; std::basic_ostream<char,std::char_traits<char> >::sentry::operator bool
  000ee	0f b6 c0	 movzx	 eax, al
  000f1	85 c0		 test	 eax, eax
  000f3	75 10		 jne	 SHORT $LN11@Insert_str

; 516  :         _State |= _Ostr_t::badbit;

  000f5	8b 44 24 20	 mov	 eax, DWORD PTR _State$[rsp]
  000f9	83 c8 04	 or	 eax, 4
  000fc	89 44 24 20	 mov	 DWORD PTR _State$[rsp], eax

; 517  :     } else { // state okay, insert characters

  00100	e9 76 02 00 00	 jmp	 $LN12@Insert_str
$LN11@Insert_str:

; 518  :         _TRY_IO_BEGIN
; 519  :         if ((_Ostr.flags() & _Ostr_t::adjustfield) != _Ostr_t::left) {

  00105	48 8b 84 24 c0
	00 00 00	 mov	 rax, QWORD PTR _Ostr$[rsp]
  0010d	48 8b 00	 mov	 rax, QWORD PTR [rax]
  00110	48 63 40 04	 movsxd	 rax, DWORD PTR [rax+4]
  00114	48 8b 8c 24 c0
	00 00 00	 mov	 rcx, QWORD PTR _Ostr$[rsp]
  0011c	48 03 c8	 add	 rcx, rax
  0011f	48 8b c1	 mov	 rax, rcx
  00122	48 8b c8	 mov	 rcx, rax
  00125	ff 15 00 00 00
	00		 call	 QWORD PTR __imp_?flags@ios_base@std@@QEBAHXZ
  0012b	89 44 24 70	 mov	 DWORD PTR tv136[rsp], eax
  0012f	8b 44 24 70	 mov	 eax, DWORD PTR tv136[rsp]
  00133	25 c0 01 00 00	 and	 eax, 448		; 000001c0H
  00138	83 f8 40	 cmp	 eax, 64			; 00000040H
  0013b	0f 84 c3 00 00
	00		 je	 $LN14@Insert_str

; 520  :             for (; 0 < _Pad; --_Pad) { // pad on left

  00141	eb 0d		 jmp	 SHORT $LN4@Insert_str
$LN2@Insert_str:
  00143	48 8b 44 24 28	 mov	 rax, QWORD PTR _Pad$[rsp]
  00148	48 ff c8	 dec	 rax
  0014b	48 89 44 24 28	 mov	 QWORD PTR _Pad$[rsp], rax
$LN4@Insert_str:
  00150	48 83 7c 24 28
	00		 cmp	 QWORD PTR _Pad$[rsp], 0
  00156	0f 86 a8 00 00
	00		 jbe	 $LN14@Insert_str

; 521  :                 if (_Traits::eq_int_type(_Traits::eof(), _Ostr.rdbuf()->sputc(_Ostr.fill()))) {

  0015c	48 8b 84 24 c0
	00 00 00	 mov	 rax, QWORD PTR _Ostr$[rsp]
  00164	48 8b 00	 mov	 rax, QWORD PTR [rax]
  00167	48 63 40 04	 movsxd	 rax, DWORD PTR [rax+4]
  0016b	48 8b 8c 24 c0
	00 00 00	 mov	 rcx, QWORD PTR _Ostr$[rsp]
  00173	48 03 c8	 add	 rcx, rax
  00176	48 8b c1	 mov	 rax, rcx
  00179	48 8b c8	 mov	 rcx, rax
  0017c	ff 15 00 00 00
	00		 call	 QWORD PTR __imp_?fill@?$basic_ios@DU?$char_traits@D@std@@@std@@QEBADXZ
  00182	88 44 24 74	 mov	 BYTE PTR tv290[rsp], al
  00186	48 8b 84 24 c0
	00 00 00	 mov	 rax, QWORD PTR _Ostr$[rsp]
  0018e	48 8b 00	 mov	 rax, QWORD PTR [rax]
  00191	48 63 40 04	 movsxd	 rax, DWORD PTR [rax+4]
  00195	48 8b 8c 24 c0
	00 00 00	 mov	 rcx, QWORD PTR _Ostr$[rsp]
  0019d	48 03 c8	 add	 rcx, rax
  001a0	48 8b c1	 mov	 rax, rcx
  001a3	48 8b c8	 mov	 rcx, rax
  001a6	ff 15 00 00 00
	00		 call	 QWORD PTR __imp_?rdbuf@?$basic_ios@DU?$char_traits@D@std@@@std@@QEBAPEAV?$basic_streambuf@DU?$char_traits@D@std@@@2@XZ
  001ac	48 89 44 24 78	 mov	 QWORD PTR tv291[rsp], rax
  001b1	0f b6 54 24 74	 movzx	 edx, BYTE PTR tv290[rsp]
  001b6	48 8b 4c 24 78	 mov	 rcx, QWORD PTR tv291[rsp]
  001bb	ff 15 00 00 00
	00		 call	 QWORD PTR __imp_?sputc@?$basic_streambuf@DU?$char_traits@D@std@@@std@@QEAAHD@Z
  001c1	89 84 24 80 00
	00 00		 mov	 DWORD PTR tv292[rsp], eax
  001c8	8b 84 24 80 00
	00 00		 mov	 eax, DWORD PTR tv292[rsp]
  001cf	89 44 24 54	 mov	 DWORD PTR $T4[rsp], eax
  001d3	e8 00 00 00 00	 call	 ?eof@?$_Narrow_char_traits@DH@std@@SAHXZ ; std::_Narrow_char_traits<char,int>::eof
  001d8	89 44 24 58	 mov	 DWORD PTR $T5[rsp], eax
  001dc	48 8d 54 24 54	 lea	 rdx, QWORD PTR $T4[rsp]
  001e1	48 8d 4c 24 58	 lea	 rcx, QWORD PTR $T5[rsp]
  001e6	e8 00 00 00 00	 call	 ?eq_int_type@?$_Narrow_char_traits@DH@std@@SA_NAEBH0@Z ; std::_Narrow_char_traits<char,int>::eq_int_type
  001eb	0f b6 c0	 movzx	 eax, al
  001ee	85 c0		 test	 eax, eax
  001f0	74 0d		 je	 SHORT $LN15@Insert_str

; 522  :                     _State |= _Ostr_t::badbit; // insertion failed, quit

  001f2	8b 44 24 20	 mov	 eax, DWORD PTR _State$[rsp]
  001f6	83 c8 04	 or	 eax, 4
  001f9	89 44 24 20	 mov	 DWORD PTR _State$[rsp], eax

; 523  :                     break;

  001fd	eb 05		 jmp	 SHORT $LN14@Insert_str
$LN15@Insert_str:

; 524  :                 }
; 525  :             }

  001ff	e9 3f ff ff ff	 jmp	 $LN2@Insert_str
$LN14@Insert_str:

; 526  :         }
; 527  : 
; 528  :         if (_State == _Ostr_t::goodbit
; 529  :             && _Ostr.rdbuf()->sputn(_Data, static_cast<streamsize>(_Size)) != static_cast<streamsize>(_Size)) {

  00204	83 7c 24 20 00	 cmp	 DWORD PTR _State$[rsp], 0
  00209	75 76		 jne	 SHORT $LN16@Insert_str
  0020b	48 8b 84 24 c0
	00 00 00	 mov	 rax, QWORD PTR _Ostr$[rsp]
  00213	48 8b 00	 mov	 rax, QWORD PTR [rax]
  00216	48 63 40 04	 movsxd	 rax, DWORD PTR [rax+4]
  0021a	48 8b 8c 24 c0
	00 00 00	 mov	 rcx, QWORD PTR _Ostr$[rsp]
  00222	48 03 c8	 add	 rcx, rax
  00225	48 8b c1	 mov	 rax, rcx
  00228	48 8b c8	 mov	 rcx, rax
  0022b	ff 15 00 00 00
	00		 call	 QWORD PTR __imp_?rdbuf@?$basic_ios@DU?$char_traits@D@std@@@std@@QEBAPEAV?$basic_streambuf@DU?$char_traits@D@std@@@2@XZ
  00231	48 89 84 24 88
	00 00 00	 mov	 QWORD PTR tv293[rsp], rax
  00239	4c 8b 84 24 d0
	00 00 00	 mov	 r8, QWORD PTR _Size$[rsp]
  00241	48 8b 94 24 c8
	00 00 00	 mov	 rdx, QWORD PTR _Data$[rsp]
  00249	48 8b 8c 24 88
	00 00 00	 mov	 rcx, QWORD PTR tv293[rsp]
  00251	ff 15 00 00 00
	00		 call	 QWORD PTR __imp_?sputn@?$basic_streambuf@DU?$char_traits@D@std@@@std@@QEAA_JPEBD_J@Z
  00257	48 89 84 24 90
	00 00 00	 mov	 QWORD PTR tv294[rsp], rax
  0025f	48 8b 84 24 d0
	00 00 00	 mov	 rax, QWORD PTR _Size$[rsp]
  00267	48 39 84 24 90
	00 00 00	 cmp	 QWORD PTR tv294[rsp], rax
  0026f	74 10		 je	 SHORT $LN16@Insert_str

; 530  :             _State |= _Ostr_t::badbit;

  00271	8b 44 24 20	 mov	 eax, DWORD PTR _State$[rsp]
  00275	83 c8 04	 or	 eax, 4
  00278	89 44 24 20	 mov	 DWORD PTR _State$[rsp], eax

; 531  :         } else {

  0027c	e9 cf 00 00 00	 jmp	 $LN17@Insert_str
$LN16@Insert_str:

; 532  :             for (; 0 < _Pad; --_Pad) { // pad on right

  00281	eb 0d		 jmp	 SHORT $LN7@Insert_str
$LN5@Insert_str:
  00283	48 8b 44 24 28	 mov	 rax, QWORD PTR _Pad$[rsp]
  00288	48 ff c8	 dec	 rax
  0028b	48 89 44 24 28	 mov	 QWORD PTR _Pad$[rsp], rax
$LN7@Insert_str:
  00290	48 83 7c 24 28
	00		 cmp	 QWORD PTR _Pad$[rsp], 0
  00296	0f 86 b4 00 00
	00		 jbe	 $LN17@Insert_str

; 533  :                 if (_Traits::eq_int_type(_Traits::eof(), _Ostr.rdbuf()->sputc(_Ostr.fill()))) {

  0029c	48 8b 84 24 c0
	00 00 00	 mov	 rax, QWORD PTR _Ostr$[rsp]
  002a4	48 8b 00	 mov	 rax, QWORD PTR [rax]
  002a7	48 63 40 04	 movsxd	 rax, DWORD PTR [rax+4]
  002ab	48 8b 8c 24 c0
	00 00 00	 mov	 rcx, QWORD PTR _Ostr$[rsp]
  002b3	48 03 c8	 add	 rcx, rax
  002b6	48 8b c1	 mov	 rax, rcx
  002b9	48 8b c8	 mov	 rcx, rax
  002bc	ff 15 00 00 00
	00		 call	 QWORD PTR __imp_?fill@?$basic_ios@DU?$char_traits@D@std@@@std@@QEBADXZ
  002c2	88 84 24 98 00
	00 00		 mov	 BYTE PTR tv295[rsp], al
  002c9	48 8b 84 24 c0
	00 00 00	 mov	 rax, QWORD PTR _Ostr$[rsp]
  002d1	48 8b 00	 mov	 rax, QWORD PTR [rax]
  002d4	48 63 40 04	 movsxd	 rax, DWORD PTR [rax+4]
  002d8	48 8b 8c 24 c0
	00 00 00	 mov	 rcx, QWORD PTR _Ostr$[rsp]
  002e0	48 03 c8	 add	 rcx, rax
  002e3	48 8b c1	 mov	 rax, rcx
  002e6	48 8b c8	 mov	 rcx, rax
  002e9	ff 15 00 00 00
	00		 call	 QWORD PTR __imp_?rdbuf@?$basic_ios@DU?$char_traits@D@std@@@std@@QEBAPEAV?$basic_streambuf@DU?$char_traits@D@std@@@2@XZ
  002ef	48 89 84 24 a0
	00 00 00	 mov	 QWORD PTR tv296[rsp], rax
  002f7	0f b6 94 24 98
	00 00 00	 movzx	 edx, BYTE PTR tv295[rsp]
  002ff	48 8b 8c 24 a0
	00 00 00	 mov	 rcx, QWORD PTR tv296[rsp]
